	.text
	.file	"dscparse.bc"
	.globl	dsc_init
	.align	16, 0x90
	.type	dsc_init,@function
dsc_init:                               # @dsc_init
	.cfi_startproc
# BB#0:                                 # %entry
	pushq	%r14
.Ltmp0:
	.cfi_def_cfa_offset 16
	pushq	%rbx
.Ltmp1:
	.cfi_def_cfa_offset 24
	pushq	%rax
.Ltmp2:
	.cfi_def_cfa_offset 32
.Ltmp3:
	.cfi_offset %rbx, -24
.Ltmp4:
	.cfi_offset %r14, -16
	movq	%rdi, %r14
	movl	$9968, %edi             # imm = 0x26F0
	callq	malloc
	movq	%rax, %rbx
	testq	%rbx, %rbx
	je	.LBB0_1
# BB#2:                                 # %if.end
	xorl	%esi, %esi
	movl	$9968, %edx             # imm = 0x26F0
	movq	%rbx, %rdi
	callq	memset
	movq	%r14, 1288(%rbx)
	movl	$1, 9952(%rbx)
	movq	%rbx, %rdi
	addq	$8, %rsp
	popq	%rbx
	popq	%r14
	jmp	dsc_init2               # TAILCALL
.LBB0_1:                                # %cleanup
	xorl	%eax, %eax
	addq	$8, %rsp
	popq	%rbx
	popq	%r14
	retq
.Lfunc_end0:
	.size	dsc_init, .Lfunc_end0-dsc_init
	.cfi_endproc

	.globl	dsc_ref
	.align	16, 0x90
	.type	dsc_ref,@function
dsc_ref:                                # @dsc_ref
	.cfi_startproc
# BB#0:                                 # %entry
	movl	9952(%rdi), %eax
	incl	%eax
	movl	%eax, 9952(%rdi)
	retq
.Lfunc_end1:
	.size	dsc_ref, .Lfunc_end1-dsc_ref
	.cfi_endproc

	.align	16, 0x90
	.type	dsc_init2,@function
dsc_init2:                              # @dsc_init2
	.cfi_startproc
# BB#0:                                 # %entry
	pushq	%rbx
.Ltmp5:
	.cfi_def_cfa_offset 16
.Ltmp6:
	.cfi_offset %rbx, -16
	movq	%rdi, %rbx
	callq	dsc_reset
	movq	9880(%rbx), %rax
	testq	%rax, %rax
	je	.LBB2_2
# BB#1:                                 # %if.then.i
	movq	9896(%rbx), %rsi
	movl	$24, %edi
	callq	*%rax
	jmp	.LBB2_3
.LBB2_2:                                # %if.end.i
	movl	$24, %edi
	callq	malloc
.LBB2_3:                                # %dsc_memalloc.exit
	movq	%rax, 9864(%rbx)
	testq	%rax, %rax
	je	.LBB2_4
# BB#6:                                 # %if.end
	movq	%rax, 9872(%rbx)
	movq	$0, 16(%rax)
	movq	9880(%rbx), %rax
	testq	%rax, %rax
	je	.LBB2_8
# BB#7:                                 # %if.then.i.27
	movq	9896(%rbx), %rsi
	movl	$4096, %edi             # imm = 0x1000
	callq	*%rax
	jmp	.LBB2_9
.LBB2_8:                                # %if.end.i.29
	movl	$4096, %edi             # imm = 0x1000
	callq	malloc
.LBB2_9:                                # %dsc_memalloc.exit31
	movq	9872(%rbx), %rcx
	movq	%rax, 8(%rcx)
	testq	%rax, %rax
	je	.LBB2_4
# BB#10:                                # %if.end.10
	movabsq	$17592186044416, %rax   # imm = 0x100000000000
	movq	%rax, (%rcx)
	movq	9880(%rbx), %rax
	testq	%rax, %rax
	je	.LBB2_12
# BB#11:                                # %if.then.i.44
	movq	9896(%rbx), %rsi
	movl	$9216, %edi             # imm = 0x2400
	callq	*%rax
	jmp	.LBB2_13
.LBB2_12:                               # %if.end.i.46
	movl	$9216, %edi             # imm = 0x2400
	callq	malloc
.LBB2_13:                               # %dsc_memalloc.exit48
	movq	%rax, 1160(%rbx)
	testq	%rax, %rax
	je	.LBB2_4
# BB#14:                                # %if.end.17
	movl	$128, 1312(%rbx)
	movl	$0, 1168(%rbx)
	movq	$0, 9576(%rbx)
	movq	$0, 9552(%rbx)
	jmp	.LBB2_15
.LBB2_4:                                # %if.end.i.22
	movq	%rbx, %rdi
	callq	dsc_reset
	movq	9888(%rbx), %rax
	testq	%rax, %rax
	je	.LBB2_16
# BB#5:                                 # %if.then.i.i
	movq	9896(%rbx), %rsi
	movq	%rbx, %rdi
	callq	*%rax
	xorl	%ebx, %ebx
	jmp	.LBB2_15
.LBB2_16:                               # %if.else.i.i
	movq	%rbx, %rdi
	callq	free
	xorl	%ebx, %ebx
.LBB2_15:                               # %return
	movq	%rbx, %rax
	popq	%rbx
	retq
.Lfunc_end2:
	.size	dsc_init2, .Lfunc_end2-dsc_init2
	.cfi_endproc

	.globl	dsc_init_with_alloc
	.align	16, 0x90
	.type	dsc_init_with_alloc,@function
dsc_init_with_alloc:                    # @dsc_init_with_alloc
	.cfi_startproc
# BB#0:                                 # %entry
	pushq	%r15
.Ltmp7:
	.cfi_def_cfa_offset 16
	pushq	%r14
.Ltmp8:
	.cfi_def_cfa_offset 24
	pushq	%r13
.Ltmp9:
	.cfi_def_cfa_offset 32
	pushq	%r12
.Ltmp10:
	.cfi_def_cfa_offset 40
	pushq	%rbx
.Ltmp11:
	.cfi_def_cfa_offset 48
.Ltmp12:
	.cfi_offset %rbx, -48
.Ltmp13:
	.cfi_offset %r12, -40
.Ltmp14:
	.cfi_offset %r13, -32
.Ltmp15:
	.cfi_offset %r14, -24
.Ltmp16:
	.cfi_offset %r15, -16
	movq	%rcx, %r15
	movq	%rdx, %r14
	movq	%rsi, %r13
	movq	%rdi, %r12
	movl	$9968, %edi             # imm = 0x26F0
	movq	%r15, %rsi
	callq	*%r13
	movq	%rax, %rbx
	testq	%rbx, %rbx
	je	.LBB3_1
# BB#2:                                 # %if.end
	xorl	%esi, %esi
	movl	$9968, %edx             # imm = 0x26F0
	movq	%rbx, %rdi
	callq	memset
	movq	%r12, 1288(%rbx)
	movq	%r13, 9880(%rbx)
	movq	%r14, 9888(%rbx)
	movq	%r15, 9896(%rbx)
	movl	$1, 9952(%rbx)
	movq	%rbx, %rdi
	popq	%rbx
	popq	%r12
	popq	%r13
	popq	%r14
	popq	%r15
	jmp	dsc_init2               # TAILCALL
.LBB3_1:                                # %cleanup
	xorl	%eax, %eax
	popq	%rbx
	popq	%r12
	popq	%r13
	popq	%r14
	popq	%r15
	retq
.Lfunc_end3:
	.size	dsc_init_with_alloc, .Lfunc_end3-dsc_init_with_alloc
	.cfi_endproc

	.globl	dsc_free
	.align	16, 0x90
	.type	dsc_free,@function
dsc_free:                               # @dsc_free
	.cfi_startproc
# BB#0:                                 # %entry
	pushq	%rbx
.Ltmp17:
	.cfi_def_cfa_offset 16
.Ltmp18:
	.cfi_offset %rbx, -16
	movq	%rdi, %rbx
	testq	%rbx, %rbx
	je	.LBB4_3
# BB#1:                                 # %if.end
	movq	%rbx, %rdi
	callq	dsc_reset
	movq	9888(%rbx), %rax
	testq	%rax, %rax
	je	.LBB4_2
# BB#4:                                 # %if.then.i
	movq	9896(%rbx), %rsi
	movq	%rbx, %rdi
	popq	%rbx
	jmpq	*%rax                   # TAILCALL
.LBB4_3:                                # %return
	popq	%rbx
	retq
.LBB4_2:                                # %if.else.i
	movq	%rbx, %rdi
	popq	%rbx
	jmp	free                    # TAILCALL
.Lfunc_end4:
	.size	dsc_free, .Lfunc_end4-dsc_free
	.cfi_endproc

	.section	.rodata.cst16,"aM",@progbits,16
	.align	16
.LCPI5_0:
	.long	0                       # 0x0
	.long	0                       # 0x0
	.long	0                       # 0x0
	.long	1                       # 0x1
.LCPI5_1:
	.zero	16
	.text
	.align	16, 0x90
	.type	dsc_reset,@function
dsc_reset:                              # @dsc_reset
	.cfi_startproc
# BB#0:                                 # %entry
	pushq	%r15
.Ltmp19:
	.cfi_def_cfa_offset 16
	pushq	%r14
.Ltmp20:
	.cfi_def_cfa_offset 24
	pushq	%rbx
.Ltmp21:
	.cfi_def_cfa_offset 32
.Ltmp22:
	.cfi_offset %rbx, -32
.Ltmp23:
	.cfi_offset %r14, -24
.Ltmp24:
	.cfi_offset %r15, -16
	movq	%rdi, %r14
	movl	$0, 1040(%r14)
	xorps	%xmm0, %xmm0
	movups	%xmm0, 1024(%r14)
	movl	$0, 1044(%r14)
	movq	$0, 1048(%r14)
	movl	$0, 1056(%r14)
	movl	$0, 1060(%r14)
	movups	%xmm0, 1064(%r14)
	movups	%xmm0, 1080(%r14)
	movups	%xmm0, 1096(%r14)
	movq	$0, 1112(%r14)
	movups	%xmm0, 1120(%r14)
	movups	%xmm0, 1136(%r14)
	movq	$0, 1152(%r14)
	cmpl	$0, 1168(%r14)
	je	.LBB5_15
# BB#1:                                 # %for.body.lr.ph
	xorl	%ebx, %ebx
	.align	16, 0x90
.LBB5_2:                                # %for.body
                                        # =>This Inner Loop Header: Depth=1
	movl	%ebx, %ebx
	movq	1160(%r14), %rax
	leaq	(%rbx,%rbx,8), %r15
	movq	48(%rax,%r15,8), %rdi
	testq	%rdi, %rdi
	je	.LBB5_6
# BB#3:                                 # %if.then
                                        #   in Loop: Header=BB5_2 Depth=1
	movq	9888(%r14), %rax
	testq	%rax, %rax
	je	.LBB5_5
# BB#4:                                 # %if.then.i
                                        #   in Loop: Header=BB5_2 Depth=1
	movq	9896(%r14), %rsi
	callq	*%rax
	jmp	.LBB5_6
	.align	16, 0x90
.LBB5_5:                                # %if.else.i
                                        #   in Loop: Header=BB5_2 Depth=1
	callq	free
.LBB5_6:                                # %if.end
                                        #   in Loop: Header=BB5_2 Depth=1
	movq	1160(%r14), %rax
	movq	56(%rax,%r15,8), %rdi
	testq	%rdi, %rdi
	je	.LBB5_10
# BB#7:                                 # %if.then.11
                                        #   in Loop: Header=BB5_2 Depth=1
	movq	9888(%r14), %rax
	testq	%rax, %rax
	je	.LBB5_9
# BB#8:                                 # %if.then.i.157
                                        #   in Loop: Header=BB5_2 Depth=1
	movq	9896(%r14), %rsi
	callq	*%rax
	jmp	.LBB5_10
	.align	16, 0x90
.LBB5_9:                                # %if.else.i.158
                                        #   in Loop: Header=BB5_2 Depth=1
	callq	free
.LBB5_10:                               # %if.end.16
                                        #   in Loop: Header=BB5_2 Depth=1
	movq	1160(%r14), %rax
	movq	64(%rax,%r15,8), %rdi
	testq	%rdi, %rdi
	je	.LBB5_14
# BB#11:                                # %if.then.21
                                        #   in Loop: Header=BB5_2 Depth=1
	movq	9888(%r14), %rax
	testq	%rax, %rax
	je	.LBB5_13
# BB#12:                                # %if.then.i.163
                                        #   in Loop: Header=BB5_2 Depth=1
	movq	9896(%r14), %rsi
	callq	*%rax
	jmp	.LBB5_14
	.align	16, 0x90
.LBB5_13:                               # %if.else.i.164
                                        #   in Loop: Header=BB5_2 Depth=1
	callq	free
.LBB5_14:                               # %for.inc
                                        #   in Loop: Header=BB5_2 Depth=1
	incl	%ebx
	cmpl	1168(%r14), %ebx
	jb	.LBB5_2
.LBB5_15:                               # %for.end
	movq	1160(%r14), %rdi
	testq	%rdi, %rdi
	je	.LBB5_19
# BB#16:                                # %if.then.29
	movq	9888(%r14), %rax
	testq	%rax, %rax
	je	.LBB5_18
# BB#17:                                # %if.then.i.169
	movq	9896(%r14), %rsi
	callq	*%rax
	jmp	.LBB5_19
.LBB5_18:                               # %if.else.i.170
	callq	free
.LBB5_19:                               # %if.end.31
	movq	$0, 1160(%r14)
	xorps	%xmm0, %xmm0
	movups	%xmm0, 1168(%r14)
	movq	1184(%r14), %rdi
	testq	%rdi, %rdi
	je	.LBB5_23
# BB#20:                                # %if.then.36
	movq	9888(%r14), %rax
	testq	%rax, %rax
	je	.LBB5_22
# BB#21:                                # %if.then.i.175
	movq	9896(%r14), %rsi
	callq	*%rax
	jmp	.LBB5_23
.LBB5_22:                               # %if.else.i.176
	callq	free
.LBB5_23:                               # %if.end.38
	movq	$0, 1184(%r14)
	movq	1200(%r14), %rdi
	testq	%rdi, %rdi
	je	.LBB5_40
# BB#24:                                # %for.cond.42.preheader
	cmpl	$0, 1192(%r14)
	je	.LBB5_37
# BB#25:                                # %for.body.44.lr.ph
	xorl	%ebx, %ebx
	jmp	.LBB5_26
	.align	16, 0x90
.LBB5_35:                               # %for.inc.64.for.body.44_crit_edge
                                        #   in Loop: Header=BB5_26 Depth=1
	movq	1200(%r14), %rdi
.LBB5_26:                               # %for.body.44
                                        # =>This Inner Loop Header: Depth=1
	movl	%ebx, %ebx
	movq	(%rdi,%rbx,8), %rax
	testq	%rax, %rax
	je	.LBB5_34
# BB#27:                                # %if.then.49
                                        #   in Loop: Header=BB5_26 Depth=1
	movq	40(%rax), %rdi
	testq	%rdi, %rdi
	je	.LBB5_31
# BB#28:                                # %if.then.54
                                        #   in Loop: Header=BB5_26 Depth=1
	movq	9888(%r14), %rax
	testq	%rax, %rax
	je	.LBB5_30
# BB#29:                                # %if.then.i.181
                                        #   in Loop: Header=BB5_26 Depth=1
	movq	9896(%r14), %rsi
	callq	*%rax
	jmp	.LBB5_31
.LBB5_30:                               # %if.else.i.182
                                        #   in Loop: Header=BB5_26 Depth=1
	callq	free
.LBB5_31:                               # %if.end.59
                                        #   in Loop: Header=BB5_26 Depth=1
	movq	1200(%r14), %rax
	movq	(%rax,%rbx,8), %rdi
	movq	9888(%r14), %rax
	testq	%rax, %rax
	je	.LBB5_33
# BB#32:                                # %if.then.i.187
                                        #   in Loop: Header=BB5_26 Depth=1
	movq	9896(%r14), %rsi
	callq	*%rax
	jmp	.LBB5_34
	.align	16, 0x90
.LBB5_33:                               # %if.else.i.188
                                        #   in Loop: Header=BB5_26 Depth=1
	callq	free
.LBB5_34:                               # %for.inc.64
                                        #   in Loop: Header=BB5_26 Depth=1
	incl	%ebx
	cmpl	1192(%r14), %ebx
	jb	.LBB5_35
# BB#36:                                # %for.cond.42.for.end.66_crit_edge
	movq	1200(%r14), %rdi
.LBB5_37:                               # %for.end.66
	movq	9888(%r14), %rax
	testq	%rax, %rax
	je	.LBB5_39
# BB#38:                                # %if.then.i.193
	movq	9896(%r14), %rsi
	callq	*%rax
	jmp	.LBB5_40
.LBB5_39:                               # %if.else.i.194
	callq	free
.LBB5_40:                               # %if.end.68
	movl	$0, 1192(%r14)
	xorps	%xmm0, %xmm0
	movups	%xmm0, 1200(%r14)
	movq	1216(%r14), %rdi
	testq	%rdi, %rdi
	je	.LBB5_44
# BB#41:                                # %if.then.73
	movq	9888(%r14), %rax
	testq	%rax, %rax
	je	.LBB5_43
# BB#42:                                # %if.then.i.199
	movq	9896(%r14), %rsi
	callq	*%rax
	jmp	.LBB5_44
.LBB5_43:                               # %if.else.i.200
	callq	free
.LBB5_44:                               # %if.end.75
	movq	$0, 1216(%r14)
	movq	1224(%r14), %rdi
	testq	%rdi, %rdi
	je	.LBB5_48
# BB#45:                                # %if.then.78
	movq	9888(%r14), %rax
	testq	%rax, %rax
	je	.LBB5_47
# BB#46:                                # %if.then.i.205
	movq	9896(%r14), %rsi
	callq	*%rax
	jmp	.LBB5_48
.LBB5_47:                               # %if.else.i.206
	callq	free
.LBB5_48:                               # %if.end.80
	movq	$0, 1224(%r14)
	movq	1232(%r14), %rdi
	testq	%rdi, %rdi
	je	.LBB5_52
# BB#49:                                # %if.then.83
	movq	9888(%r14), %rax
	testq	%rax, %rax
	je	.LBB5_51
# BB#50:                                # %if.then.i.211
	movq	9896(%r14), %rsi
	callq	*%rax
	jmp	.LBB5_52
.LBB5_51:                               # %if.else.i.212
	callq	free
.LBB5_52:                               # %if.end.85
	movq	$0, 1232(%r14)
	xorps	%xmm0, %xmm0
	movups	%xmm0, 1240(%r14)
	movups	%xmm0, 1256(%r14)
	movl	$15, 1272(%r14)
	movq	$dsc_severity, 1280(%r14)
	movl	$0, 1296(%r14)
	movl	$0, 1300(%r14)
	movq	$0, 1304(%r14)
	movl	$0, 1312(%r14)
	movq	$0, 1320(%r14)
	movups	%xmm0, 1328(%r14)
	movups	%xmm0, 1344(%r14)
	movl	$0, 9552(%r14)
	movl	$0, 9556(%r14)
	movq	$0, 9560(%r14)
	movl	$0, 9568(%r14)
	movq	$0, 9576(%r14)
	movaps	.LCPI5_0(%rip), %xmm0   # xmm0 = [0,0,0,1]
	movups	%xmm0, 9584(%r14)
	movl	$0, 9600(%r14)
	leaq	9604(%r14), %rdi
	xorl	%esi, %esi
	movl	$256, %edx              # imm = 0x100
	callq	memset
	movq	9864(%r14), %rax
	movq	%rax, 9872(%r14)
	jmp	.LBB5_53
	.align	16, 0x90
.LBB5_59:                               # %if.then.i.223
                                        #   in Loop: Header=BB5_53 Depth=1
	movq	9896(%r14), %rsi
	callq	*%rax
	movq	9872(%r14), %rax
.LBB5_53:                               # %if.end.85
                                        # =>This Inner Loop Header: Depth=1
	testq	%rax, %rax
	je	.LBB5_62
# BB#54:                                # %while.body
                                        #   in Loop: Header=BB5_53 Depth=1
	movq	8(%rax), %rdi
	testq	%rdi, %rdi
	je	.LBB5_58
# BB#55:                                # %if.then.91
                                        #   in Loop: Header=BB5_53 Depth=1
	movq	9888(%r14), %rax
	testq	%rax, %rax
	je	.LBB5_57
# BB#56:                                # %if.then.i.217
                                        #   in Loop: Header=BB5_53 Depth=1
	movq	9896(%r14), %rsi
	callq	*%rax
	jmp	.LBB5_58
	.align	16, 0x90
.LBB5_57:                               # %if.else.i.218
                                        #   in Loop: Header=BB5_53 Depth=1
	callq	free
.LBB5_58:                               # %if.end.94
                                        #   in Loop: Header=BB5_53 Depth=1
	movq	9872(%r14), %rdi
	movq	%rdi, 9864(%r14)
	movq	16(%rdi), %rax
	movq	%rax, 9872(%r14)
	movq	9888(%r14), %rax
	testq	%rax, %rax
	jne	.LBB5_59
# BB#60:                                # %if.else.i.224
                                        #   in Loop: Header=BB5_53 Depth=1
	callq	free
	movq	9872(%r14), %rax
	jmp	.LBB5_53
.LBB5_62:                               # %while.end
	xorps	%xmm0, %xmm0
	movups	%xmm0, 9864(%r14)
	movq	9920(%r14), %rdi
	testq	%rdi, %rdi
	je	.LBB5_66
# BB#63:                                # %if.then.103
	movq	9888(%r14), %rax
	testq	%rax, %rax
	je	.LBB5_65
# BB#64:                                # %if.then.i.229
	movq	9896(%r14), %rsi
	callq	*%rax
	jmp	.LBB5_66
.LBB5_65:                               # %if.else.i.230
	callq	free
.LBB5_66:                               # %if.end.105
	movq	$0, 9920(%r14)
	movq	9928(%r14), %rdi
	testq	%rdi, %rdi
	je	.LBB5_70
# BB#67:                                # %if.then.109
	movq	9888(%r14), %rax
	testq	%rax, %rax
	je	.LBB5_69
# BB#68:                                # %if.then.i.235
	movq	9896(%r14), %rsi
	callq	*%rax
	jmp	.LBB5_70
.LBB5_69:                               # %if.else.i.236
	callq	free
.LBB5_70:                               # %if.end.111
	movq	$0, 9928(%r14)
	movq	9936(%r14), %rdi
	testq	%rdi, %rdi
	je	.LBB5_75
	.align	16, 0x90
.LBB5_71:                               # %while.body.118
                                        # =>This Inner Loop Header: Depth=1
	movq	48(%rdi), %rbx
	movq	9888(%r14), %rax
	testq	%rax, %rax
	je	.LBB5_85
# BB#72:                                # %if.then.i.241
                                        #   in Loop: Header=BB5_71 Depth=1
	movq	9896(%r14), %rsi
	callq	*%rax
	jmp	.LBB5_73
	.align	16, 0x90
.LBB5_85:                               # %if.else.i.242
                                        #   in Loop: Header=BB5_71 Depth=1
	callq	free
.LBB5_73:                               # %while.cond.116.backedge
                                        #   in Loop: Header=BB5_71 Depth=1
	testq	%rbx, %rbx
	movq	%rbx, %rdi
	jne	.LBB5_71
# BB#74:                                # %while.end.120
	movq	$0, 9936(%r14)
.LBB5_75:                               # %if.end.122
	movq	9944(%r14), %rdi
	testq	%rdi, %rdi
	je	.LBB5_80
	.align	16, 0x90
.LBB5_76:                               # %while.body.128
                                        # =>This Inner Loop Header: Depth=1
	movq	48(%rdi), %rbx
	movq	9888(%r14), %rax
	testq	%rax, %rax
	je	.LBB5_86
# BB#77:                                # %if.then.i.247
                                        #   in Loop: Header=BB5_76 Depth=1
	movq	9896(%r14), %rsi
	callq	*%rax
	jmp	.LBB5_78
	.align	16, 0x90
.LBB5_86:                               # %if.else.i.248
                                        #   in Loop: Header=BB5_76 Depth=1
	callq	free
.LBB5_78:                               # %while.cond.126.backedge
                                        #   in Loop: Header=BB5_76 Depth=1
	testq	%rbx, %rbx
	movq	%rbx, %rdi
	jne	.LBB5_76
# BB#79:                                # %while.end.130
	movq	$0, 9944(%r14)
.LBB5_80:                               # %if.end.132
	movq	9960(%r14), %rdi
	testq	%rdi, %rdi
	je	.LBB5_84
# BB#81:                                # %if.then.134
	movq	9888(%r14), %rax
	testq	%rax, %rax
	je	.LBB5_83
# BB#82:                                # %if.then.i.253
	movq	9896(%r14), %rsi
	callq	*%rax
	jmp	.LBB5_84
.LBB5_83:                               # %if.else.i.254
	callq	free
.LBB5_84:                               # %if.end.136
	movq	$0, 9960(%r14)
	popq	%rbx
	popq	%r14
	popq	%r15
	retq
.Lfunc_end5:
	.size	dsc_reset, .Lfunc_end5-dsc_reset
	.cfi_endproc

	.globl	dsc_new
	.align	16, 0x90
	.type	dsc_new,@function
dsc_new:                                # @dsc_new
	.cfi_startproc
# BB#0:                                 # %entry
	pushq	%r14
.Ltmp25:
	.cfi_def_cfa_offset 16
	pushq	%rbx
.Ltmp26:
	.cfi_def_cfa_offset 24
	pushq	%rax
.Ltmp27:
	.cfi_def_cfa_offset 32
.Ltmp28:
	.cfi_offset %rbx, -24
.Ltmp29:
	.cfi_offset %r14, -16
	movq	%rdi, %r14
	movl	$9968, %edi             # imm = 0x26F0
	callq	malloc
	movq	%rax, %rbx
	testq	%rbx, %rbx
	je	.LBB6_1
# BB#2:                                 # %if.end.i
	xorl	%esi, %esi
	movl	$9968, %edx             # imm = 0x26F0
	movq	%rbx, %rdi
	callq	memset
	movq	%r14, 1288(%rbx)
	movl	$1, 9952(%rbx)
	movq	%rbx, %rdi
	addq	$8, %rsp
	popq	%rbx
	popq	%r14
	jmp	dsc_init2               # TAILCALL
.LBB6_1:                                # %dsc_init.exit
	xorl	%eax, %eax
	addq	$8, %rsp
	popq	%rbx
	popq	%r14
	retq
.Lfunc_end6:
	.size	dsc_new, .Lfunc_end6-dsc_new
	.cfi_endproc

	.globl	dsc_unref
	.align	16, 0x90
	.type	dsc_unref,@function
dsc_unref:                              # @dsc_unref
	.cfi_startproc
# BB#0:                                 # %entry
	pushq	%rbx
.Ltmp30:
	.cfi_def_cfa_offset 16
.Ltmp31:
	.cfi_offset %rbx, -16
	movq	%rdi, %rbx
	movl	9952(%rbx), %ecx
	movl	$-1, %eax
	testl	%ecx, %ecx
	jle	.LBB7_6
# BB#1:                                 # %if.end
	decl	%ecx
	movl	%ecx, 9952(%rbx)
	movl	%ecx, %eax
	jne	.LBB7_6
# BB#2:                                 # %if.end.i
	movq	%rbx, %rdi
	callq	dsc_reset
	movq	9888(%rbx), %rax
	testq	%rax, %rax
	je	.LBB7_4
# BB#3:                                 # %if.then.i.i
	movq	9896(%rbx), %rsi
	movq	%rbx, %rdi
	callq	*%rax
	jmp	.LBB7_5
.LBB7_4:                                # %if.else.i.i
	movq	%rbx, %rdi
	callq	free
.LBB7_5:                                # %return
	xorl	%eax, %eax
.LBB7_6:                                # %return
	popq	%rbx
	retq
.Lfunc_end7:
	.size	dsc_unref, .Lfunc_end7-dsc_unref
	.cfi_endproc

	.globl	dsc_set_length
	.align	16, 0x90
	.type	dsc_set_length,@function
dsc_set_length:                         # @dsc_set_length
	.cfi_startproc
# BB#0:                                 # %entry
	movq	%rsi, 1320(%rdi)
	retq
.Lfunc_end8:
	.size	dsc_set_length, .Lfunc_end8-dsc_set_length
	.cfi_endproc

	.section	.rodata.cst16,"aM",@progbits,16
	.align	16
.LCPI9_0:
	.quad	255                     # 0xff
	.quad	255                     # 0xff
	.text
	.globl	dsc_scan_data
	.align	16, 0x90
	.type	dsc_scan_data,@function
dsc_scan_data:                          # @dsc_scan_data
	.cfi_startproc
# BB#0:                                 # %entry
	pushq	%rbp
.Ltmp32:
	.cfi_def_cfa_offset 16
	pushq	%r15
.Ltmp33:
	.cfi_def_cfa_offset 24
	pushq	%r14
.Ltmp34:
	.cfi_def_cfa_offset 32
	pushq	%r13
.Ltmp35:
	.cfi_def_cfa_offset 40
	pushq	%r12
.Ltmp36:
	.cfi_def_cfa_offset 48
	pushq	%rbx
.Ltmp37:
	.cfi_def_cfa_offset 56
	subq	$440, %rsp              # imm = 0x1B8
.Ltmp38:
	.cfi_def_cfa_offset 496
.Ltmp39:
	.cfi_offset %rbx, -56
.Ltmp40:
	.cfi_offset %r12, -48
.Ltmp41:
	.cfi_offset %r13, -40
.Ltmp42:
	.cfi_offset %r14, -32
.Ltmp43:
	.cfi_offset %r15, -24
.Ltmp44:
	.cfi_offset %rbp, -16
	movl	%edx, %r15d
	movq	%rsi, %r14
	movq	%rdi, %r13
	movl	$-1, %ebx
	testq	%r13, %r13
	je	.LBB9_1624
# BB#1:                                 # %if.end
	movl	$1, %ebx
	cmpl	$1, 1296(%r13)
	je	.LBB9_1624
# BB#2:                                 # %if.end.3
	movl	$0, 1296(%r13)
	xorl	%ebx, %ebx
	cmpl	$0, 9568(%r13)
	jne	.LBB9_1624
# BB#3:                                 # %if.end.6
	testl	%r15d, %r15d
	jne	.LBB9_5
# BB#4:                                 # %if.then.8
	movl	$1, 9568(%r13)
	xorl	%r15d, %r15d
.LBB9_5:                                # %do.body.preheader
	leaq	1064(%r13), %rax
	movq	%rax, 80(%rsp)          # 8-byte Spill
	leaq	1088(%r13), %rax
	movq	%rax, 128(%rsp)         # 8-byte Spill
	leaq	1104(%r13), %rax
	movq	%rax, 136(%rsp)         # 8-byte Spill
	leaq	1136(%r13), %rax
	movq	%rax, 152(%rsp)         # 8-byte Spill
	leaq	1120(%r13), %rax
	movq	%rax, 144(%rsp)         # 8-byte Spill
	leaq	1072(%r13), %rax
	movq	%rax, 120(%rsp)         # 8-byte Spill
	leaq	9604(%r13), %rax
	movq	%rax, 160(%rsp)         # 8-byte Spill
	leaq	1208(%r13), %rax
	movq	%rax, 72(%rsp)          # 8-byte Spill
	leaq	1180(%r13), %rax
	movq	%rax, 104(%rsp)         # 8-byte Spill
	leaq	1224(%r13), %rax
	movq	%rax, 64(%rsp)          # 8-byte Spill
	leaq	1184(%r13), %rax
	movq	%rax, 56(%rsp)          # 8-byte Spill
	leaq	9928(%r13), %rax
	movq	%rax, 88(%rsp)          # 8-byte Spill
	leaq	1216(%r13), %rax
	movq	%rax, 112(%rsp)         # 8-byte Spill
	leaq	9920(%r13), %rax
	movq	%rax, 96(%rsp)          # 8-byte Spill
	leaq	1360(%r13), %rax
	movq	%rax, 168(%rsp)         # 8-byte Spill
	xorl	%ebx, %ebx
	jmp	.LBB9_6
.LBB9_1614:                             # %if.end.1540.i
                                        #   in Loop: Header=BB9_189 Depth=2
	movl	9556(%r13), %eax
	addq	9560(%r13), %rax
	movq	%rax, 1152(%r13)
	.align	16, 0x90
.LBB9_189:                              # %while.cond.preheader
                                        #   Parent Loop BB9_6 Depth=1
                                        # =>  This Loop Header: Depth=2
                                        #       Child Loop BB9_258 Depth 3
                                        #         Child Loop BB9_259 Depth 4
                                        #           Child Loop BB9_1338 Depth 5
                                        #           Child Loop BB9_1345 Depth 5
                                        #         Child Loop BB9_902 Depth 4
                                        #         Child Loop BB9_908 Depth 4
                                        #       Child Loop BB9_1364 Depth 3
                                        #       Child Loop BB9_1133 Depth 3
                                        #         Child Loop BB9_1137 Depth 4
                                        #       Child Loop BB9_1124 Depth 3
                                        #         Child Loop BB9_1126 Depth 4
                                        #       Child Loop BB9_825 Depth 3
                                        #         Child Loop BB9_829 Depth 4
                                        #       Child Loop BB9_818 Depth 3
                                        #         Child Loop BB9_820 Depth 4
	movq	%r13, %rdi
	callq	dsc_read_line
	movl	%eax, %ebx
	testl	%ebx, %ebx
	jle	.LBB9_1620
# BB#190:                               # %while.body
                                        #   in Loop: Header=BB9_189 Depth=2
	cmpl	$1, 1296(%r13)
	je	.LBB9_1620
# BB#191:                               # %if.end.72
                                        #   in Loop: Header=BB9_189 Depth=2
	movq	1320(%r13), %rax
	testq	%rax, %rax
	je	.LBB9_193
# BB#192:                               # %land.lhs.true
                                        #   in Loop: Header=BB9_189 Depth=2
	movl	9556(%r13), %ecx
	addq	9560(%r13), %rcx
	xorl	%ebx, %ebx
	cmpq	%rax, %rcx
	ja	.LBB9_1624
.LBB9_193:                              # %if.end.82
                                        #   in Loop: Header=BB9_189 Depth=2
	movq	1304(%r13), %rax
	testq	%rax, %rax
	je	.LBB9_195
# BB#194:                               # %land.lhs.true.84
                                        #   in Loop: Header=BB9_189 Depth=2
	movl	9556(%r13), %ecx
	addq	9560(%r13), %rcx
	xorl	%ebx, %ebx
	cmpq	%rax, %rcx
	ja	.LBB9_1624
.LBB9_195:                              # %if.end.93
                                        #   in Loop: Header=BB9_189 Depth=2
	xorl	%ebx, %ebx
	cmpl	$0, 9568(%r13)
	jne	.LBB9_1624
# BB#196:                               # %if.end.97
                                        #   in Loop: Header=BB9_189 Depth=2
	cmpl	$0, 1328(%r13)
	jne	.LBB9_189
# BB#197:                               # %if.end.100
                                        #   in Loop: Header=BB9_189 Depth=2
	cmpl	$0, 1336(%r13)
	jne	.LBB9_189
# BB#198:                               # %if.end.103
                                        #   in Loop: Header=BB9_189 Depth=2
	movl	$.L.str.10, %edi
	callq	strlen
	movq	%rax, %rcx
	cmpq	$11, %rcx
	ja	.LBB9_208
# BB#199:                               # %land.lhs.true.108
                                        #   in Loop: Header=BB9_189 Depth=2
	movq	9576(%r13), %rdi
	cmpq	$3, %rcx
	ja	.LBB9_207
# BB#200:                               # %cond.true.112
                                        #   in Loop: Header=BB9_189 Depth=2
	movzbl	(%rdi), %eax
	addl	$-37, %eax
	testq	%rcx, %rcx
	je	.LBB9_209
# BB#201:                               # %cond.true.112
                                        #   in Loop: Header=BB9_189 Depth=2
	testl	%eax, %eax
	jne	.LBB9_209
# BB#202:                               # %if.then.123
                                        #   in Loop: Header=BB9_189 Depth=2
	movzbl	1(%rdi), %eax
	addl	$-37, %eax
	cmpq	$2, %rcx
	jb	.LBB9_209
# BB#203:                               # %if.then.123
                                        #   in Loop: Header=BB9_189 Depth=2
	testl	%eax, %eax
	jne	.LBB9_209
# BB#204:                               # %if.then.133
                                        #   in Loop: Header=BB9_189 Depth=2
	movzbl	2(%rdi), %eax
	addl	$-66, %eax
	cmpq	$3, %rcx
	jb	.LBB9_209
# BB#205:                               # %if.then.133
                                        #   in Loop: Header=BB9_189 Depth=2
	testl	%eax, %eax
	jne	.LBB9_209
# BB#206:                               # %if.then.143
                                        #   in Loop: Header=BB9_189 Depth=2
	movzbl	3(%rdi), %eax
	addl	$-101, %eax
	jmp	.LBB9_209
.LBB9_208:                              # %cond.false.157
                                        #   in Loop: Header=BB9_189 Depth=2
	movq	9576(%r13), %rdi
	movl	$.L.str.10, %esi
	movl	$12, %edx
	callq	strncmp
	jmp	.LBB9_209
.LBB9_207:                              # %cond.false.152
                                        #   in Loop: Header=BB9_189 Depth=2
	movl	$.L.str.10, %esi
	callq	strcmp
.LBB9_209:                              # %cond.end.160
                                        #   in Loop: Header=BB9_189 Depth=2
	testl	%eax, %eax
	je	.LBB9_189
# BB#210:                               # %if.end.165
                                        #   in Loop: Header=BB9_189 Depth=2
	movl	$.L.str.11, %edi
	callq	strlen
	movq	%rax, %rcx
	cmpq	$13, %rcx
	ja	.LBB9_220
# BB#211:                               # %land.lhs.true.175
                                        #   in Loop: Header=BB9_189 Depth=2
	movq	9576(%r13), %rdi
	cmpq	$3, %rcx
	ja	.LBB9_219
# BB#212:                               # %cond.true.179
                                        #   in Loop: Header=BB9_189 Depth=2
	movzbl	(%rdi), %eax
	addl	$-37, %eax
	testq	%rcx, %rcx
	je	.LBB9_221
# BB#213:                               # %cond.true.179
                                        #   in Loop: Header=BB9_189 Depth=2
	testl	%eax, %eax
	jne	.LBB9_221
# BB#214:                               # %if.then.194
                                        #   in Loop: Header=BB9_189 Depth=2
	movzbl	1(%rdi), %eax
	addl	$-37, %eax
	cmpq	$2, %rcx
	jb	.LBB9_221
# BB#215:                               # %if.then.194
                                        #   in Loop: Header=BB9_189 Depth=2
	testl	%eax, %eax
	jne	.LBB9_221
# BB#216:                               # %if.then.204
                                        #   in Loop: Header=BB9_189 Depth=2
	movzbl	2(%rdi), %eax
	addl	$-66, %eax
	cmpq	$3, %rcx
	jb	.LBB9_221
# BB#217:                               # %if.then.204
                                        #   in Loop: Header=BB9_189 Depth=2
	testl	%eax, %eax
	jne	.LBB9_221
# BB#218:                               # %if.then.214
                                        #   in Loop: Header=BB9_189 Depth=2
	movzbl	3(%rdi), %eax
	addl	$-101, %eax
	jmp	.LBB9_221
.LBB9_220:                              # %cond.false.228
                                        #   in Loop: Header=BB9_189 Depth=2
	movq	9576(%r13), %rdi
	movl	$.L.str.11, %esi
	movl	$14, %edx
	callq	strncmp
	jmp	.LBB9_221
.LBB9_219:                              # %cond.false.223
                                        #   in Loop: Header=BB9_189 Depth=2
	movl	$.L.str.11, %esi
	callq	strcmp
.LBB9_221:                              # %cond.end.231
                                        #   in Loop: Header=BB9_189 Depth=2
	testl	%eax, %eax
	je	.LBB9_189
# BB#222:                               # %if.end.236
                                        #   in Loop: Header=BB9_189 Depth=2
	movl	$.L.str.12, %edi
	callq	strlen
	movq	%rax, %rcx
	cmpq	$12, %rcx
	ja	.LBB9_232
# BB#223:                               # %land.lhs.true.246
                                        #   in Loop: Header=BB9_189 Depth=2
	movq	9576(%r13), %rdi
	cmpq	$3, %rcx
	ja	.LBB9_231
# BB#224:                               # %cond.true.250
                                        #   in Loop: Header=BB9_189 Depth=2
	movzbl	(%rdi), %eax
	addl	$-37, %eax
	testq	%rcx, %rcx
	je	.LBB9_233
# BB#225:                               # %cond.true.250
                                        #   in Loop: Header=BB9_189 Depth=2
	testl	%eax, %eax
	jne	.LBB9_233
# BB#226:                               # %if.then.265
                                        #   in Loop: Header=BB9_189 Depth=2
	movzbl	1(%rdi), %eax
	addl	$-37, %eax
	cmpq	$2, %rcx
	jb	.LBB9_233
# BB#227:                               # %if.then.265
                                        #   in Loop: Header=BB9_189 Depth=2
	testl	%eax, %eax
	jne	.LBB9_233
# BB#228:                               # %if.then.275
                                        #   in Loop: Header=BB9_189 Depth=2
	movzbl	2(%rdi), %eax
	addl	$-69, %eax
	cmpq	$3, %rcx
	jb	.LBB9_233
# BB#229:                               # %if.then.275
                                        #   in Loop: Header=BB9_189 Depth=2
	testl	%eax, %eax
	jne	.LBB9_233
# BB#230:                               # %if.then.285
                                        #   in Loop: Header=BB9_189 Depth=2
	movzbl	3(%rdi), %eax
	addl	$-110, %eax
	jmp	.LBB9_233
.LBB9_232:                              # %cond.false.299
                                        #   in Loop: Header=BB9_189 Depth=2
	movq	9576(%r13), %rdi
	movl	$.L.str.12, %esi
	movl	$13, %edx
	callq	strncmp
	jmp	.LBB9_233
.LBB9_231:                              # %cond.false.294
                                        #   in Loop: Header=BB9_189 Depth=2
	movl	$.L.str.12, %esi
	callq	strcmp
.LBB9_233:                              # %cond.end.302
                                        #   in Loop: Header=BB9_189 Depth=2
	testl	%eax, %eax
	je	.LBB9_189
# BB#234:                               # %if.end.307
                                        #   in Loop: Header=BB9_189 Depth=2
	movl	$.L.str.13, %edi
	callq	strlen
	movq	%rax, %rcx
	cmpq	$8, %rcx
	ja	.LBB9_244
# BB#235:                               # %land.lhs.true.317
                                        #   in Loop: Header=BB9_189 Depth=2
	movq	9576(%r13), %rdi
	cmpq	$3, %rcx
	ja	.LBB9_243
# BB#236:                               # %cond.true.321
                                        #   in Loop: Header=BB9_189 Depth=2
	movzbl	(%rdi), %eax
	addl	$-37, %eax
	testq	%rcx, %rcx
	je	.LBB9_245
# BB#237:                               # %cond.true.321
                                        #   in Loop: Header=BB9_189 Depth=2
	testl	%eax, %eax
	jne	.LBB9_245
# BB#238:                               # %if.then.336
                                        #   in Loop: Header=BB9_189 Depth=2
	movzbl	1(%rdi), %eax
	addl	$-37, %eax
	cmpq	$2, %rcx
	jb	.LBB9_245
# BB#239:                               # %if.then.336
                                        #   in Loop: Header=BB9_189 Depth=2
	testl	%eax, %eax
	jne	.LBB9_245
# BB#240:                               # %if.then.346
                                        #   in Loop: Header=BB9_189 Depth=2
	movzbl	2(%rdi), %eax
	addl	$-69, %eax
	cmpq	$3, %rcx
	jb	.LBB9_245
# BB#241:                               # %if.then.346
                                        #   in Loop: Header=BB9_189 Depth=2
	testl	%eax, %eax
	jne	.LBB9_245
# BB#242:                               # %if.then.356
                                        #   in Loop: Header=BB9_189 Depth=2
	movzbl	3(%rdi), %eax
	addl	$-110, %eax
	jmp	.LBB9_245
.LBB9_244:                              # %cond.false.370
                                        #   in Loop: Header=BB9_189 Depth=2
	movq	9576(%r13), %rdi
	movl	$.L.str.13, %esi
	movl	$9, %edx
	callq	strncmp
	jmp	.LBB9_245
.LBB9_243:                              # %cond.false.365
                                        #   in Loop: Header=BB9_189 Depth=2
	movl	$.L.str.13, %esi
	callq	strcmp
.LBB9_245:                              # %cond.end.373
                                        #   in Loop: Header=BB9_189 Depth=2
	testl	%eax, %eax
	je	.LBB9_189
# BB#246:                               # %if.end.378
                                        #   in Loop: Header=BB9_189 Depth=2
	movl	$.L.str.14, %edi
	callq	strlen
	movq	%rax, %rcx
	cmpq	$10, %rcx
	ja	.LBB9_256
# BB#247:                               # %land.lhs.true.388
                                        #   in Loop: Header=BB9_189 Depth=2
	movq	9576(%r13), %rdi
	cmpq	$3, %rcx
	ja	.LBB9_255
# BB#248:                               # %cond.true.392
                                        #   in Loop: Header=BB9_189 Depth=2
	movzbl	(%rdi), %eax
	addl	$-37, %eax
	testq	%rcx, %rcx
	je	.LBB9_257
# BB#249:                               # %cond.true.392
                                        #   in Loop: Header=BB9_189 Depth=2
	testl	%eax, %eax
	jne	.LBB9_257
# BB#250:                               # %if.then.407
                                        #   in Loop: Header=BB9_189 Depth=2
	movzbl	1(%rdi), %eax
	addl	$-37, %eax
	cmpq	$2, %rcx
	jb	.LBB9_257
# BB#251:                               # %if.then.407
                                        #   in Loop: Header=BB9_189 Depth=2
	testl	%eax, %eax
	jne	.LBB9_257
# BB#252:                               # %if.then.417
                                        #   in Loop: Header=BB9_189 Depth=2
	movzbl	2(%rdi), %eax
	addl	$-69, %eax
	cmpq	$3, %rcx
	jb	.LBB9_257
# BB#253:                               # %if.then.417
                                        #   in Loop: Header=BB9_189 Depth=2
	testl	%eax, %eax
	jne	.LBB9_257
# BB#254:                               # %if.then.427
                                        #   in Loop: Header=BB9_189 Depth=2
	movzbl	3(%rdi), %eax
	addl	$-110, %eax
	jmp	.LBB9_257
.LBB9_256:                              # %cond.false.441
                                        #   in Loop: Header=BB9_189 Depth=2
	movq	9576(%r13), %rdi
	movl	$.L.str.14, %esi
	movl	$11, %edx
	callq	strncmp
	jmp	.LBB9_257
.LBB9_255:                              # %cond.false.436
                                        #   in Loop: Header=BB9_189 Depth=2
	movl	$.L.str.14, %esi
	callq	strcmp
.LBB9_257:                              # %cond.end.444
                                        #   in Loop: Header=BB9_189 Depth=2
	testl	%eax, %eax
	jne	.LBB9_258
	jmp	.LBB9_189
.LBB9_1558:                             # %if.then.1220.i.964
                                        #   in Loop: Header=BB9_258 Depth=3
	movl	9556(%r13), %eax
	addq	9560(%r13), %rax
	movl	9584(%r13), %edx
	subq	%rdx, %rax
	decl	%ecx
	movq	1160(%r13), %rdx
	leaq	(%rcx,%rcx,8), %rcx
	movq	%rax, 24(%rdx,%rcx,8)
.LBB9_258:                              # %do.body.450thread-pre-split
                                        #   Parent Loop BB9_6 Depth=1
                                        #     Parent Loop BB9_189 Depth=2
                                        # =>    This Loop Header: Depth=3
                                        #         Child Loop BB9_259 Depth 4
                                        #           Child Loop BB9_1338 Depth 5
                                        #           Child Loop BB9_1345 Depth 5
                                        #         Child Loop BB9_902 Depth 4
                                        #         Child Loop BB9_908 Depth 4
	movl	1300(%r13), %eax
	jmp	.LBB9_259
.LBB9_890:                              # %if.then.217.i
                                        #   in Loop: Header=BB9_259 Depth=4
	movl	$12, 1300(%r13)
	movl	$12, %eax
.LBB9_259:                              # %do.body.450
                                        #   Parent Loop BB9_6 Depth=1
                                        #     Parent Loop BB9_189 Depth=2
                                        #       Parent Loop BB9_258 Depth=3
                                        # =>      This Loop Header: Depth=4
                                        #           Child Loop BB9_1338 Depth 5
                                        #           Child Loop BB9_1345 Depth 5
	leal	-1(%rax), %ecx
	cmpl	$12, %ecx
	ja	.LBB9_189
# BB#260:                               # %do.body.450
                                        #   in Loop: Header=BB9_259 Depth=4
	jmpq	*.LJTI9_0(,%rcx,8)
.LBB9_261:                              # %sw.bb.453
                                        #   in Loop: Header=BB9_259 Depth=4
	movq	9576(%r13), %rbx
	movl	$0, 1296(%r13)
	cmpl	$2, %eax
	jne	.LBB9_279
# BB#262:                               # %if.then.i
                                        #   in Loop: Header=BB9_259 Depth=4
	movzbl	(%rbx), %ebp
	cmpl	$10, %ebp
	je	.LBB9_189
# BB#263:                               # %if.then.i
                                        #   in Loop: Header=BB9_259 Depth=4
	movzbl	%bpl, %eax
	cmpl	$13, %eax
	je	.LBB9_189
# BB#264:                               # %if.else.i.164
                                        #   in Loop: Header=BB9_259 Depth=4
	movl	$.L.str.67, %edi
	callq	strlen
	cmpq	$13, %rax
	ja	.LBB9_274
# BB#265:                               # %land.lhs.true.i.165
                                        #   in Loop: Header=BB9_259 Depth=4
	cmpq	$3, %rax
	ja	.LBB9_273
# BB#266:                               # %cond.true.14.i
                                        #   in Loop: Header=BB9_259 Depth=4
	addl	$-37, %ebp
	jne	.LBB9_276
# BB#267:                               # %cond.true.14.i
                                        #   in Loop: Header=BB9_259 Depth=4
	testq	%rax, %rax
	je	.LBB9_276
# BB#268:                               # %if.then.25.i
                                        #   in Loop: Header=BB9_259 Depth=4
	movzbl	1(%rbx), %ebp
	addl	$-37, %ebp
	cmpq	$2, %rax
	jb	.LBB9_276
# BB#269:                               # %if.then.25.i
                                        #   in Loop: Header=BB9_259 Depth=4
	testl	%ebp, %ebp
	jne	.LBB9_276
# BB#270:                               # %if.then.35.i
                                        #   in Loop: Header=BB9_259 Depth=4
	movzbl	2(%rbx), %ebp
	addl	$-66, %ebp
	cmpq	$3, %rax
	jb	.LBB9_276
# BB#271:                               # %if.then.35.i
                                        #   in Loop: Header=BB9_259 Depth=4
	testl	%ebp, %ebp
	jne	.LBB9_276
# BB#272:                               # %if.then.45.i
                                        #   in Loop: Header=BB9_259 Depth=4
	movzbl	3(%rbx), %ebp
	addl	$-101, %ebp
	jmp	.LBB9_276
.LBB9_311:                              # %sw.bb.455
                                        #   in Loop: Header=BB9_259 Depth=4
	movq	9576(%r13), %rbp
	movl	$0, 1296(%r13)
	movzbl	(%rbp), %ebx
	cmpl	$4, %eax
	jne	.LBB9_328
# BB#312:                               # %if.then.i.187
                                        #   in Loop: Header=BB9_259 Depth=4
	cmpl	$10, %ebx
	je	.LBB9_189
# BB#313:                               # %if.then.i.187
                                        #   in Loop: Header=BB9_259 Depth=4
	movzbl	%bl, %eax
	cmpl	$13, %eax
	je	.LBB9_189
# BB#314:                               # %if.else.i.190
                                        #   in Loop: Header=BB9_259 Depth=4
	movl	$.L.str.68, %edi
	callq	strlen
	cmpq	$14, %rax
	ja	.LBB9_324
# BB#315:                               # %land.lhs.true.i.192
                                        #   in Loop: Header=BB9_259 Depth=4
	cmpq	$3, %rax
	ja	.LBB9_323
# BB#316:                               # %cond.true.14.i.198
                                        #   in Loop: Header=BB9_259 Depth=4
	addl	$-37, %ebx
	jne	.LBB9_326
# BB#317:                               # %cond.true.14.i.198
                                        #   in Loop: Header=BB9_259 Depth=4
	testq	%rax, %rax
	je	.LBB9_326
# BB#318:                               # %if.then.25.i.205
                                        #   in Loop: Header=BB9_259 Depth=4
	movzbl	1(%rbp), %ebx
	addl	$-37, %ebx
	cmpq	$2, %rax
	jb	.LBB9_326
# BB#319:                               # %if.then.25.i.205
                                        #   in Loop: Header=BB9_259 Depth=4
	testl	%ebx, %ebx
	jne	.LBB9_326
# BB#320:                               # %if.then.35.i.212
                                        #   in Loop: Header=BB9_259 Depth=4
	movzbl	2(%rbp), %ebx
	addl	$-66, %ebx
	cmpq	$3, %rax
	jb	.LBB9_326
# BB#321:                               # %if.then.35.i.212
                                        #   in Loop: Header=BB9_259 Depth=4
	testl	%ebx, %ebx
	jne	.LBB9_326
# BB#322:                               # %if.then.45.i.216
                                        #   in Loop: Header=BB9_259 Depth=4
	movzbl	3(%rbp), %ebx
	addl	$-101, %ebx
	jmp	.LBB9_326
.LBB9_435:                              # %sw.bb.457
                                        #   in Loop: Header=BB9_259 Depth=4
	movq	9576(%r13), %r12
	movl	$0, 1296(%r13)
	cmpl	$6, %eax
	jne	.LBB9_462
# BB#436:                               # %if.then.i.270
                                        #   in Loop: Header=BB9_259 Depth=4
	movq	%r12, %rdi
	callq	dsc_is_section
	testl	%eax, %eax
	je	.LBB9_450
# BB#437:                               # %land.lhs.true.i.271
                                        #   in Loop: Header=BB9_259 Depth=4
	movl	$.L.str.69, %edi
	callq	strlen
	movq	%rax, %rcx
	cmpq	$12, %rcx
	ja	.LBB9_447
# BB#438:                               # %land.lhs.true.4.i
                                        #   in Loop: Header=BB9_259 Depth=4
	cmpq	$3, %rcx
	ja	.LBB9_446
# BB#439:                               # %cond.true.7.i
                                        #   in Loop: Header=BB9_259 Depth=4
	movzbl	(%r12), %eax
	addl	$-37, %eax
	testq	%rcx, %rcx
	je	.LBB9_448
# BB#440:                               # %cond.true.7.i
                                        #   in Loop: Header=BB9_259 Depth=4
	testl	%eax, %eax
	jne	.LBB9_448
# BB#441:                               # %if.then.16.i
                                        #   in Loop: Header=BB9_259 Depth=4
	movzbl	1(%r12), %eax
	addl	$-37, %eax
	cmpq	$2, %rcx
	jb	.LBB9_448
# BB#442:                               # %if.then.16.i
                                        #   in Loop: Header=BB9_259 Depth=4
	testl	%eax, %eax
	jne	.LBB9_448
# BB#443:                               # %if.then.26.i
                                        #   in Loop: Header=BB9_259 Depth=4
	movzbl	2(%r12), %eax
	addl	$-66, %eax
	cmpq	$3, %rcx
	jb	.LBB9_448
# BB#444:                               # %if.then.26.i
                                        #   in Loop: Header=BB9_259 Depth=4
	testl	%eax, %eax
	jne	.LBB9_448
# BB#445:                               # %if.then.36.i
                                        #   in Loop: Header=BB9_259 Depth=4
	movzbl	3(%r12), %eax
	addl	$-101, %eax
	jmp	.LBB9_448
.LBB9_618:                              # %sw.bb.459
                                        #   in Loop: Header=BB9_259 Depth=4
	movq	9576(%r13), %r12
	movl	$0, 1296(%r13)
	movzbl	(%r12), %ebx
	cmpl	$8, %eax
	jne	.LBB9_636
# BB#619:                               # %if.then.i.331
                                        #   in Loop: Header=BB9_259 Depth=4
	cmpl	$10, %ebx
	je	.LBB9_189
# BB#620:                               # %if.then.i.331
                                        #   in Loop: Header=BB9_259 Depth=4
	movzbl	%bl, %eax
	cmpl	$13, %eax
	je	.LBB9_189
# BB#621:                               # %if.else.i.334
                                        #   in Loop: Header=BB9_259 Depth=4
	movl	$.L.str.70, %edi
	callq	strlen
	cmpq	$11, %rax
	ja	.LBB9_631
# BB#622:                               # %land.lhs.true.i.336
                                        #   in Loop: Header=BB9_259 Depth=4
	cmpq	$3, %rax
	ja	.LBB9_630
# BB#623:                               # %cond.true.14.i.342
                                        #   in Loop: Header=BB9_259 Depth=4
	addl	$-37, %ebx
	jne	.LBB9_633
# BB#624:                               # %cond.true.14.i.342
                                        #   in Loop: Header=BB9_259 Depth=4
	testq	%rax, %rax
	je	.LBB9_633
# BB#625:                               # %if.then.25.i.349
                                        #   in Loop: Header=BB9_259 Depth=4
	movzbl	1(%r12), %ebx
	addl	$-37, %ebx
	cmpq	$2, %rax
	jb	.LBB9_633
# BB#626:                               # %if.then.25.i.349
                                        #   in Loop: Header=BB9_259 Depth=4
	testl	%ebx, %ebx
	jne	.LBB9_633
# BB#627:                               # %if.then.35.i.356
                                        #   in Loop: Header=BB9_259 Depth=4
	movzbl	2(%r12), %ebx
	addl	$-66, %ebx
	cmpq	$3, %rax
	jb	.LBB9_633
# BB#628:                               # %if.then.35.i.356
                                        #   in Loop: Header=BB9_259 Depth=4
	testl	%ebx, %ebx
	jne	.LBB9_633
# BB#629:                               # %if.then.45.i.360
                                        #   in Loop: Header=BB9_259 Depth=4
	movzbl	3(%r12), %ebx
	addl	$-101, %ebx
	jmp	.LBB9_633
.LBB9_838:                              # %sw.bb.461
                                        #   in Loop: Header=BB9_259 Depth=4
	movq	9576(%r13), %rbp
	movl	$0, 1296(%r13)
	cmpl	$10, %eax
	jne	.LBB9_852
# BB#839:                               # %if.then.i.571
                                        #   in Loop: Header=BB9_259 Depth=4
	movl	$.L.str.71, %edi
	callq	strlen
	movq	%rax, %rcx
	cmpq	$6, %rcx
	ja	.LBB9_849
# BB#840:                               # %land.lhs.true.i.572
                                        #   in Loop: Header=BB9_259 Depth=4
	cmpq	$3, %rcx
	ja	.LBB9_848
# BB#841:                               # %cond.true.5.i
                                        #   in Loop: Header=BB9_259 Depth=4
	movzbl	(%rbp), %eax
	addl	$-37, %eax
	testq	%rcx, %rcx
	je	.LBB9_850
# BB#842:                               # %cond.true.5.i
                                        #   in Loop: Header=BB9_259 Depth=4
	testl	%eax, %eax
	jne	.LBB9_850
# BB#843:                               # %if.then.14.i
                                        #   in Loop: Header=BB9_259 Depth=4
	movzbl	1(%rbp), %eax
	addl	$-37, %eax
	cmpq	$2, %rcx
	jb	.LBB9_850
# BB#844:                               # %if.then.14.i
                                        #   in Loop: Header=BB9_259 Depth=4
	testl	%eax, %eax
	jne	.LBB9_850
# BB#845:                               # %if.then.24.i
                                        #   in Loop: Header=BB9_259 Depth=4
	movzbl	2(%rbp), %eax
	addl	$-80, %eax
	cmpq	$3, %rcx
	jb	.LBB9_850
# BB#846:                               # %if.then.24.i
                                        #   in Loop: Header=BB9_259 Depth=4
	testl	%eax, %eax
	jne	.LBB9_850
# BB#847:                               # %if.then.34.i
                                        #   in Loop: Header=BB9_259 Depth=4
	movzbl	3(%rbp), %eax
	addl	$-97, %eax
	jmp	.LBB9_850
.LBB9_1323:                             # %sw.bb.463
                                        #   in Loop: Header=BB9_259 Depth=4
	movq	9576(%r13), %rbx
	cmpq	$0, 1152(%r13)
	je	.LBB9_1382
# BB#1324:                              # %land.lhs.true.i.761
                                        #   in Loop: Header=BB9_259 Depth=4
	movl	$.L.str.28, %edi
	callq	strlen
	movq	%rax, %rcx
	cmpq	$9, %rcx
	ja	.LBB9_1334
# BB#1325:                              # %land.lhs.true.2.i
                                        #   in Loop: Header=BB9_259 Depth=4
	cmpq	$3, %rcx
	ja	.LBB9_1333
# BB#1326:                              # %cond.true.5.i.768
                                        #   in Loop: Header=BB9_259 Depth=4
	movzbl	(%rbx), %eax
	addl	$-37, %eax
	testq	%rcx, %rcx
	je	.LBB9_1335
# BB#1327:                              # %cond.true.5.i.768
                                        #   in Loop: Header=BB9_259 Depth=4
	testl	%eax, %eax
	jne	.LBB9_1335
# BB#1328:                              # %if.then.i.771
                                        #   in Loop: Header=BB9_259 Depth=4
	movzbl	1(%rbx), %eax
	addl	$-33, %eax
	cmpq	$2, %rcx
	jb	.LBB9_1335
# BB#1329:                              # %if.then.i.771
                                        #   in Loop: Header=BB9_259 Depth=4
	testl	%eax, %eax
	jne	.LBB9_1335
# BB#1330:                              # %if.then.23.i
                                        #   in Loop: Header=BB9_259 Depth=4
	movzbl	2(%rbx), %eax
	addl	$-80, %eax
	cmpq	$3, %rcx
	jb	.LBB9_1335
# BB#1331:                              # %if.then.23.i
                                        #   in Loop: Header=BB9_259 Depth=4
	testl	%eax, %eax
	jne	.LBB9_1335
# BB#1332:                              # %if.then.33.i
                                        #   in Loop: Header=BB9_259 Depth=4
	movzbl	3(%rbx), %eax
	addl	$-83, %eax
	jmp	.LBB9_1335
.LBB9_279:                              # %if.end.77.i
                                        #   in Loop: Header=BB9_259 Depth=4
	movl	$.L.str.67, %edi
	callq	strlen
	movq	%rax, %rcx
	cmpq	$13, %rcx
	ja	.LBB9_289
# BB#280:                               # %land.lhs.true.87.i
                                        #   in Loop: Header=BB9_259 Depth=4
	cmpq	$3, %rcx
	ja	.LBB9_288
# BB#281:                               # %cond.true.91.i
                                        #   in Loop: Header=BB9_259 Depth=4
	movzbl	(%rbx), %eax
	addl	$-37, %eax
	testq	%rcx, %rcx
	je	.LBB9_290
# BB#282:                               # %cond.true.91.i
                                        #   in Loop: Header=BB9_259 Depth=4
	testl	%eax, %eax
	jne	.LBB9_290
# BB#283:                               # %if.then.105.i
                                        #   in Loop: Header=BB9_259 Depth=4
	movzbl	1(%rbx), %eax
	addl	$-37, %eax
	cmpq	$2, %rcx
	jb	.LBB9_290
# BB#284:                               # %if.then.105.i
                                        #   in Loop: Header=BB9_259 Depth=4
	testl	%eax, %eax
	jne	.LBB9_290
# BB#285:                               # %if.then.115.i
                                        #   in Loop: Header=BB9_259 Depth=4
	movzbl	2(%rbx), %eax
	addl	$-66, %eax
	cmpq	$3, %rcx
	jb	.LBB9_290
# BB#286:                               # %if.then.115.i
                                        #   in Loop: Header=BB9_259 Depth=4
	testl	%eax, %eax
	jne	.LBB9_290
# BB#287:                               # %if.then.125.i
                                        #   in Loop: Header=BB9_259 Depth=4
	movzbl	3(%rbx), %eax
	addl	$-101, %eax
	jmp	.LBB9_290
.LBB9_328:                              # %if.end.72.i
                                        #   in Loop: Header=BB9_259 Depth=4
	cmpl	$37, %ebx
	jne	.LBB9_434
# BB#329:                               # %lor.lhs.false.77.i
                                        #   in Loop: Header=BB9_259 Depth=4
	movzbl	1(%rbp), %eax
	cmpl	$37, %eax
	jne	.LBB9_434
# BB#330:                               # %if.else.83.i
                                        #   in Loop: Header=BB9_259 Depth=4
	movl	$.L.str.67, %edi
	callq	strlen
	movq	%rax, %rcx
	cmpq	$13, %rcx
	ja	.LBB9_337
# BB#331:                               # %land.lhs.true.93.i
                                        #   in Loop: Header=BB9_259 Depth=4
	cmpq	$3, %rcx
	ja	.LBB9_336
# BB#332:                               # %cond.true.97.i
                                        #   in Loop: Header=BB9_259 Depth=4
	cmpq	$2, %rcx
	jb	.LBB9_434
# BB#333:                               # %if.then.121.i
                                        #   in Loop: Header=BB9_259 Depth=4
	movzbl	2(%rbp), %eax
	addl	$-66, %eax
	cmpq	$3, %rcx
	jb	.LBB9_338
# BB#334:                               # %if.then.121.i
                                        #   in Loop: Header=BB9_259 Depth=4
	testl	%eax, %eax
	jne	.LBB9_338
# BB#335:                               # %if.then.131.i
                                        #   in Loop: Header=BB9_259 Depth=4
	movzbl	3(%rbp), %eax
	addl	$-101, %eax
	jmp	.LBB9_338
.LBB9_849:                              # %cond.false.43.i
                                        #   in Loop: Header=BB9_259 Depth=4
	movl	$.L.str.71, %esi
	movl	$7, %edx
	movq	%rbp, %rdi
	callq	strncmp
	jmp	.LBB9_850
.LBB9_447:                              # %cond.false.45.i
                                        #   in Loop: Header=BB9_259 Depth=4
	movl	$.L.str.69, %esi
	movl	$13, %edx
	movq	%r12, %rdi
	callq	strncmp
	jmp	.LBB9_448
.LBB9_1334:                             # %cond.false.42.i
                                        #   in Loop: Header=BB9_259 Depth=4
	movl	$.L.str.28, %esi
	movl	$10, %edx
	movq	%rbx, %rdi
	callq	strncmp
	jmp	.LBB9_1335
.LBB9_289:                              # %cond.false.138.i
                                        #   in Loop: Header=BB9_259 Depth=4
	movl	$.L.str.67, %esi
	movl	$14, %edx
	movq	%rbx, %rdi
	callq	strncmp
	jmp	.LBB9_290
.LBB9_848:                              # %cond.false.i.581
                                        #   in Loop: Header=BB9_259 Depth=4
	movl	$.L.str.71, %esi
	movq	%rbp, %rdi
	callq	strcmp
.LBB9_850:                              # %cond.end.45.i
                                        #   in Loop: Header=BB9_259 Depth=4
	testl	%eax, %eax
	je	.LBB9_851
# BB#860:                               # %if.else.i.584
                                        #   in Loop: Header=BB9_259 Depth=4
	movq	152(%rsp), %rax         # 8-byte Reload
	cmpq	$0, (%rax)
	movq	%rax, %rbx
	jne	.LBB9_866
# BB#861:                               # %if.else.56.i
                                        #   in Loop: Header=BB9_259 Depth=4
	movq	144(%rsp), %rax         # 8-byte Reload
	cmpq	$0, (%rax)
	movq	%rax, %rbx
	jne	.LBB9_866
# BB#862:                               # %if.else.61.i
                                        #   in Loop: Header=BB9_259 Depth=4
	movq	136(%rsp), %rax         # 8-byte Reload
	cmpq	$0, (%rax)
	movq	%rax, %rbx
	jne	.LBB9_866
# BB#863:                               # %if.else.66.i
                                        #   in Loop: Header=BB9_259 Depth=4
	movq	128(%rsp), %rax         # 8-byte Reload
	cmpq	$0, (%rax)
	movq	%rax, %rbx
	jne	.LBB9_866
# BB#864:                               # %if.else.71.i
                                        #   in Loop: Header=BB9_259 Depth=4
	movq	120(%rsp), %rax         # 8-byte Reload
	cmpq	$0, (%rax)
	movq	80(%rsp), %rbx          # 8-byte Reload
	je	.LBB9_866
# BB#865:                               # %select.mid
                                        #   in Loop: Header=BB9_259 Depth=4
	movq	120(%rsp), %rbx         # 8-byte Reload
.LBB9_866:                              # %if.end.81.i
                                        #   in Loop: Header=BB9_259 Depth=4
	movl	9556(%r13), %eax
	movl	9584(%r13), %ecx
	addq	9560(%r13), %rax
	subq	%rcx, %rax
	movq	%rax, (%rbx)
	movl	$.L.str.72, %edi
	callq	strlen
	movq	%rax, %rcx
	cmpq	$8, %rcx
	ja	.LBB9_876
# BB#867:                               # %land.lhs.true.94.i
                                        #   in Loop: Header=BB9_259 Depth=4
	cmpq	$3, %rcx
	ja	.LBB9_875
# BB#868:                               # %cond.true.98.i
                                        #   in Loop: Header=BB9_259 Depth=4
	movzbl	(%rbp), %eax
	addl	$-37, %eax
	testq	%rcx, %rcx
	je	.LBB9_877
# BB#869:                               # %cond.true.98.i
                                        #   in Loop: Header=BB9_259 Depth=4
	testl	%eax, %eax
	jne	.LBB9_877
# BB#870:                               # %if.then.112.i
                                        #   in Loop: Header=BB9_259 Depth=4
	movzbl	1(%rbp), %eax
	addl	$-37, %eax
	cmpq	$2, %rcx
	jb	.LBB9_877
# BB#871:                               # %if.then.112.i
                                        #   in Loop: Header=BB9_259 Depth=4
	testl	%eax, %eax
	jne	.LBB9_877
# BB#872:                               # %if.then.122.i
                                        #   in Loop: Header=BB9_259 Depth=4
	movzbl	2(%rbp), %eax
	addl	$-84, %eax
	cmpq	$3, %rcx
	jb	.LBB9_877
# BB#873:                               # %if.then.122.i
                                        #   in Loop: Header=BB9_259 Depth=4
	testl	%eax, %eax
	jne	.LBB9_877
# BB#874:                               # %if.then.132.i
                                        #   in Loop: Header=BB9_259 Depth=4
	movzbl	3(%rbp), %eax
	addl	$-114, %eax
	jmp	.LBB9_877
.LBB9_876:                              # %cond.false.145.i
                                        #   in Loop: Header=BB9_259 Depth=4
	movl	$.L.str.72, %esi
	movl	$9, %edx
	movq	%rbp, %rdi
	callq	strncmp
	jmp	.LBB9_877
.LBB9_631:                              # %cond.false.54.i.364
                                        #   in Loop: Header=BB9_259 Depth=4
	movl	$.L.str.70, %esi
	movl	$12, %edx
	movq	%r12, %rdi
	callq	strncmp
	jmp	.LBB9_632
.LBB9_446:                              # %cond.false.i.277
                                        #   in Loop: Header=BB9_259 Depth=4
	movl	$.L.str.69, %esi
	movq	%r12, %rdi
	callq	strcmp
.LBB9_448:                              # %cond.end.47.i
                                        #   in Loop: Header=BB9_259 Depth=4
	testl	%eax, %eax
	je	.LBB9_450
# BB#449:                               # %if.then.51.i
                                        #   in Loop: Header=BB9_259 Depth=4
	movl	$8, 1300(%r13)
	movl	$8, %eax
	jmp	.LBB9_259
.LBB9_337:                              # %cond.false.144.i
                                        #   in Loop: Header=BB9_259 Depth=4
	movl	$.L.str.67, %esi
	movl	$14, %edx
	movq	%rbp, %rdi
	callq	strncmp
	jmp	.LBB9_338
.LBB9_875:                              # %cond.false.141.i
                                        #   in Loop: Header=BB9_259 Depth=4
	movl	$.L.str.72, %esi
	movq	%rbp, %rdi
	callq	strcmp
.LBB9_877:                              # %cond.end.147.i
                                        #   in Loop: Header=BB9_259 Depth=4
	testl	%eax, %eax
	je	.LBB9_890
# BB#878:                               # %lor.lhs.false.i.604
                                        #   in Loop: Header=BB9_259 Depth=4
	movl	$.L.str.73, %edi
	callq	strlen
	movq	%rax, %rcx
	cmpq	$4, %rcx
	ja	.LBB9_888
# BB#879:                               # %land.lhs.true.160.i
                                        #   in Loop: Header=BB9_259 Depth=4
	cmpq	$3, %rcx
	ja	.LBB9_887
# BB#880:                               # %cond.true.164.i
                                        #   in Loop: Header=BB9_259 Depth=4
	movzbl	(%rbp), %eax
	addl	$-37, %eax
	testq	%rcx, %rcx
	je	.LBB9_889
# BB#881:                               # %cond.true.164.i
                                        #   in Loop: Header=BB9_259 Depth=4
	testl	%eax, %eax
	jne	.LBB9_889
# BB#882:                               # %if.then.178.i.612
                                        #   in Loop: Header=BB9_259 Depth=4
	movzbl	1(%rbp), %eax
	addl	$-37, %eax
	cmpq	$2, %rcx
	jb	.LBB9_889
# BB#883:                               # %if.then.178.i.612
                                        #   in Loop: Header=BB9_259 Depth=4
	testl	%eax, %eax
	jne	.LBB9_889
# BB#884:                               # %if.then.188.i.618
                                        #   in Loop: Header=BB9_259 Depth=4
	movzbl	2(%rbp), %eax
	addl	$-69, %eax
	cmpq	$3, %rcx
	jb	.LBB9_889
# BB#885:                               # %if.then.188.i.618
                                        #   in Loop: Header=BB9_259 Depth=4
	testl	%eax, %eax
	jne	.LBB9_889
# BB#886:                               # %if.then.198.i
                                        #   in Loop: Header=BB9_259 Depth=4
	movzbl	3(%rbp), %eax
	addl	$-79, %eax
	jmp	.LBB9_889
.LBB9_888:                              # %cond.false.211.i
                                        #   in Loop: Header=BB9_259 Depth=4
	movl	$.L.str.73, %esi
	movl	$5, %edx
	movq	%rbp, %rdi
	callq	strncmp
	jmp	.LBB9_889
.LBB9_1333:                             # %cond.false.i.774
                                        #   in Loop: Header=BB9_259 Depth=4
	movl	$.L.str.28, %esi
	movq	%rbx, %rdi
	callq	strcmp
.LBB9_1335:                             # %cond.end.44.i
                                        #   in Loop: Header=BB9_259 Depth=4
	testl	%eax, %eax
	jne	.LBB9_1382
# BB#1336:                              # %if.then.48.i
                                        #   in Loop: Header=BB9_259 Depth=4
	movq	9576(%r13), %r12
	movq	$0, 1152(%r13)
	movl	9584(%r13), %eax
	xorl	%ebp, %ebp
	testl	%eax, %eax
	movq	%r12, %rsi
	je	.LBB9_1337
.LBB9_1338:                             # %land.rhs.i.i.779
                                        #   Parent Loop BB9_6 Depth=1
                                        #     Parent Loop BB9_189 Depth=2
                                        #       Parent Loop BB9_258 Depth=3
                                        #         Parent Loop BB9_259 Depth=4
                                        # =>        This Inner Loop Header: Depth=5
	movzbl	(%rsi), %ecx
	cmpl	$32, %ecx
	je	.LBB9_1341
# BB#1339:                              # %land.rhs.i.i.779
                                        #   in Loop: Header=BB9_1338 Depth=5
	movzbl	%cl, %ecx
	cmpl	$9, %ecx
	jne	.LBB9_1340
.LBB9_1341:                             # %while.body.i.i.783
                                        #   in Loop: Header=BB9_1338 Depth=5
	incq	%rsi
	decl	%eax
	jne	.LBB9_1338
	jmp	.LBB9_1342
.LBB9_887:                              # %cond.false.207.i
                                        #   in Loop: Header=BB9_259 Depth=4
	movl	$.L.str.73, %esi
	movq	%rbp, %rdi
	callq	strcmp
.LBB9_889:                              # %cond.end.213.i
                                        #   in Loop: Header=BB9_259 Depth=4
	testl	%eax, %eax
	je	.LBB9_890
	jmp	.LBB9_891
.LBB9_288:                              # %cond.false.134.i
                                        #   in Loop: Header=BB9_259 Depth=4
	movl	$.L.str.67, %esi
	movq	%rbx, %rdi
	callq	strcmp
.LBB9_290:                              # %cond.end.140.i
                                        #   in Loop: Header=BB9_259 Depth=4
	testl	%eax, %eax
	je	.LBB9_310
# BB#291:                               # %if.else.145.i
                                        #   in Loop: Header=BB9_259 Depth=4
	movq	%rbx, %rdi
	callq	dsc_is_section
	testl	%eax, %eax
	je	.LBB9_294
# BB#292:                               # %if.then.147.i
                                        #   in Loop: Header=BB9_259 Depth=4
	movl	9556(%r13), %eax
	movl	9584(%r13), %ecx
	addq	9560(%r13), %rax
	subq	%rcx, %rax
	movq	%rax, 1088(%r13)
	jmp	.LBB9_293
.LBB9_274:                              # %cond.false.54.i
                                        #   in Loop: Header=BB9_259 Depth=4
	movl	$.L.str.67, %esi
	movl	$14, %edx
	movq	%rbx, %rdi
	callq	strncmp
	jmp	.LBB9_275
.LBB9_324:                              # %cond.false.54.i.220
                                        #   in Loop: Header=BB9_259 Depth=4
	movl	$.L.str.68, %esi
	movl	$15, %edx
	movq	%rbp, %rdi
	callq	strncmp
	jmp	.LBB9_325
.LBB9_630:                              # %cond.false.i.362
                                        #   in Loop: Header=BB9_259 Depth=4
	movl	$.L.str.70, %esi
	movq	%r12, %rdi
	callq	strcmp
.LBB9_632:                              # %cond.end.56.i.367
                                        #   in Loop: Header=BB9_259 Depth=4
	movl	%eax, %ebx
.LBB9_633:                              # %cond.end.56.i.367
                                        #   in Loop: Header=BB9_259 Depth=4
	testl	%ebx, %ebx
	je	.LBB9_634
# BB#635:                               # %if.else.70.i.376
                                        #   in Loop: Header=BB9_259 Depth=4
	movl	$10, 1300(%r13)
	movl	$10, %eax
	jmp	.LBB9_259
.LBB9_336:                              # %cond.false.140.i
                                        #   in Loop: Header=BB9_259 Depth=4
	movl	$.L.str.67, %esi
	movq	%rbp, %rdi
	callq	strcmp
.LBB9_338:                              # %cond.end.146.i
                                        #   in Loop: Header=BB9_259 Depth=4
	testl	%eax, %eax
	je	.LBB9_434
# BB#339:                               # %if.else.151.i
                                        #   in Loop: Header=BB9_259 Depth=4
	movl	$.L.str.68, %edi
	callq	strlen
	movq	%rax, %rcx
	cmpq	$14, %rcx
	ja	.LBB9_349
# BB#340:                               # %land.lhs.true.161.i
                                        #   in Loop: Header=BB9_259 Depth=4
	cmpq	$3, %rcx
	ja	.LBB9_348
# BB#341:                               # %cond.true.165.i
                                        #   in Loop: Header=BB9_259 Depth=4
	movzbl	(%rbp), %eax
	addl	$-37, %eax
	testq	%rcx, %rcx
	je	.LBB9_350
# BB#342:                               # %cond.true.165.i
                                        #   in Loop: Header=BB9_259 Depth=4
	testl	%eax, %eax
	jne	.LBB9_350
# BB#343:                               # %if.then.179.i
                                        #   in Loop: Header=BB9_259 Depth=4
	movzbl	1(%rbp), %eax
	addl	$-37, %eax
	cmpq	$2, %rcx
	jb	.LBB9_350
# BB#344:                               # %if.then.179.i
                                        #   in Loop: Header=BB9_259 Depth=4
	testl	%eax, %eax
	jne	.LBB9_350
# BB#345:                               # %if.then.189.i
                                        #   in Loop: Header=BB9_259 Depth=4
	movzbl	2(%rbp), %eax
	addl	$-66, %eax
	cmpq	$3, %rcx
	jb	.LBB9_350
# BB#346:                               # %if.then.189.i
                                        #   in Loop: Header=BB9_259 Depth=4
	testl	%eax, %eax
	jne	.LBB9_350
# BB#347:                               # %if.then.199.i
                                        #   in Loop: Header=BB9_259 Depth=4
	movzbl	3(%rbp), %eax
	addl	$-101, %eax
	jmp	.LBB9_350
.LBB9_349:                              # %cond.false.212.i
                                        #   in Loop: Header=BB9_259 Depth=4
	movl	$.L.str.68, %esi
	movl	$15, %edx
	movq	%rbp, %rdi
	callq	strncmp
	jmp	.LBB9_350
.LBB9_348:                              # %cond.false.208.i
                                        #   in Loop: Header=BB9_259 Depth=4
	movl	$.L.str.68, %esi
	movq	%rbp, %rdi
	callq	strcmp
.LBB9_350:                              # %cond.end.214.i
                                        #   in Loop: Header=BB9_259 Depth=4
	testl	%eax, %eax
	je	.LBB9_434
# BB#351:                               # %if.else.219.i
                                        #   in Loop: Header=BB9_259 Depth=4
	movq	%rbp, %rdi
	callq	dsc_is_section
	testl	%eax, %eax
	je	.LBB9_354
# BB#352:                               # %if.then.221.i
                                        #   in Loop: Header=BB9_259 Depth=4
	movl	9556(%r13), %eax
	movl	9584(%r13), %ecx
	addq	9560(%r13), %rax
	subq	%rcx, %rax
	movq	%rax, 1104(%r13)
	jmp	.LBB9_353
.LBB9_1337:                             #   in Loop: Header=BB9_259 Depth=4
	movq	%r12, %rsi
	jmp	.LBB9_1342
.LBB9_1340:                             #   in Loop: Header=BB9_259 Depth=4
	movl	%eax, %ebp
.LBB9_1342:                             # %while.end.i.i.788
                                        #   in Loop: Header=BB9_259 Depth=4
	movq	%r13, %rdi
	movl	%ebp, %edx
	callq	dsc_alloc_string
	testq	%rax, %rax
	movl	$0, %ecx
	je	.LBB9_1350
# BB#1343:                              # %for.cond.preheader.i.i.790
                                        #   in Loop: Header=BB9_259 Depth=4
	testl	%ebp, %ebp
	je	.LBB9_1349
# BB#1344:                              # %for.body.lr.ph.i.i.791
                                        #   in Loop: Header=BB9_259 Depth=4
	movl	%ebp, %ecx
	xorl	%edx, %edx
.LBB9_1345:                             # %for.body.i.i.794
                                        #   Parent Loop BB9_6 Depth=1
                                        #     Parent Loop BB9_189 Depth=2
                                        #       Parent Loop BB9_258 Depth=3
                                        #         Parent Loop BB9_259 Depth=4
                                        # =>        This Inner Loop Header: Depth=5
	movzbl	(%rax,%rdx), %esi
	cmpl	$10, %esi
	je	.LBB9_1347
# BB#1346:                              # %for.body.i.i.794
                                        #   in Loop: Header=BB9_1345 Depth=5
	movzbl	%sil, %esi
	cmpl	$13, %esi
	je	.LBB9_1347
# BB#1348:                              # %for.inc.i.i.799
                                        #   in Loop: Header=BB9_1345 Depth=5
	incq	%rdx
	cmpq	%rcx, %rdx
	jb	.LBB9_1345
	jmp	.LBB9_1349
.LBB9_1347:                             # %if.then.21.i.i.796
                                        #   in Loop: Header=BB9_259 Depth=4
	movb	$0, (%rax,%rdx)
.LBB9_1349:                             #   in Loop: Header=BB9_259 Depth=4
	movq	%rax, %rcx
.LBB9_1350:                             # %dsc_add_line.exit.i.802
                                        #   in Loop: Header=BB9_259 Depth=4
	movq	%rcx, 1048(%r13)
	movl	$.L.str.28, %edi
	callq	strlen
	movq	%rax, %rcx
	cmpq	$9, %rcx
	ja	.LBB9_1360
# BB#1351:                              # %land.lhs.true.63.i
                                        #   in Loop: Header=BB9_259 Depth=4
	cmpq	$3, %rcx
	ja	.LBB9_1359
# BB#1352:                              # %cond.true.67.i
                                        #   in Loop: Header=BB9_259 Depth=4
	movzbl	(%r12), %eax
	addl	$-37, %eax
	testq	%rcx, %rcx
	je	.LBB9_1361
# BB#1353:                              # %cond.true.67.i
                                        #   in Loop: Header=BB9_259 Depth=4
	testl	%eax, %eax
	jne	.LBB9_1361
# BB#1354:                              # %if.then.81.i
                                        #   in Loop: Header=BB9_259 Depth=4
	movzbl	1(%r12), %eax
	addl	$-33, %eax
	cmpq	$2, %rcx
	jb	.LBB9_1361
# BB#1355:                              # %if.then.81.i
                                        #   in Loop: Header=BB9_259 Depth=4
	testl	%eax, %eax
	jne	.LBB9_1361
# BB#1356:                              # %if.then.91.i
                                        #   in Loop: Header=BB9_259 Depth=4
	movzbl	2(%r12), %eax
	addl	$-80, %eax
	cmpq	$3, %rcx
	jb	.LBB9_1361
# BB#1357:                              # %if.then.91.i
                                        #   in Loop: Header=BB9_259 Depth=4
	testl	%eax, %eax
	jne	.LBB9_1361
# BB#1358:                              # %if.then.101.i
                                        #   in Loop: Header=BB9_259 Depth=4
	movzbl	3(%r12), %eax
	addl	$-83, %eax
	jmp	.LBB9_1361
.LBB9_1360:                             # %cond.false.114.i
                                        #   in Loop: Header=BB9_259 Depth=4
	movl	$.L.str.28, %esi
	movl	$10, %edx
	movq	%r12, %rdi
	callq	strncmp
	jmp	.LBB9_1361
.LBB9_273:                              # %cond.false.i
                                        #   in Loop: Header=BB9_259 Depth=4
	movl	$.L.str.67, %esi
	movq	%rbx, %rdi
	callq	strcmp
.LBB9_275:                              # %cond.end.56.i
                                        #   in Loop: Header=BB9_259 Depth=4
	movl	%eax, %ebp
.LBB9_276:                              # %cond.end.56.i
                                        #   in Loop: Header=BB9_259 Depth=4
	testl	%ebp, %ebp
	je	.LBB9_277
.LBB9_293:                              # %if.else.75.i
                                        #   in Loop: Header=BB9_259 Depth=4
	movl	$4, 1300(%r13)
	movl	$4, %eax
	jmp	.LBB9_259
.LBB9_323:                              # %cond.false.i.218
                                        #   in Loop: Header=BB9_259 Depth=4
	movl	$.L.str.68, %esi
	movq	%rbp, %rdi
	callq	strcmp
.LBB9_325:                              # %cond.end.56.i.223
                                        #   in Loop: Header=BB9_259 Depth=4
	movl	%eax, %ebx
.LBB9_326:                              # %cond.end.56.i.223
                                        #   in Loop: Header=BB9_259 Depth=4
	testl	%ebx, %ebx
	je	.LBB9_327
.LBB9_353:                              # %if.else.70.i
                                        #   in Loop: Header=BB9_259 Depth=4
	movl	$6, 1300(%r13)
	movl	$6, %eax
	jmp	.LBB9_259
.LBB9_1359:                             # %cond.false.110.i
                                        #   in Loop: Header=BB9_259 Depth=4
	movl	$.L.str.28, %esi
	movq	%r12, %rdi
	callq	strcmp
.LBB9_1361:                             # %cond.end.116.i
                                        #   in Loop: Header=BB9_259 Depth=4
	testl	%eax, %eax
	je	.LBB9_1362
.LBB9_1382:                             # %if.end.207.i
                                        #   in Loop: Header=BB9_259 Depth=4
	movl	$0, 1296(%r13)
	cmpl	$12, 1300(%r13)
	je	.LBB9_1383
# BB#1412:                              # %if.end.392.i
                                        #   in Loop: Header=BB9_259 Depth=4
	movl	$.L.str.34, %edi
	callq	strlen
	movq	%rax, %rcx
	cmpq	$2, %rcx
	ja	.LBB9_1418
# BB#1413:                              # %cond.true.406.i
                                        #   in Loop: Header=BB9_259 Depth=4
	movzbl	(%rbx), %eax
	addl	$-37, %eax
	testq	%rcx, %rcx
	movq	160(%rsp), %rdi         # 8-byte Reload
	je	.LBB9_1419
# BB#1414:                              # %cond.true.406.i
                                        #   in Loop: Header=BB9_259 Depth=4
	testl	%eax, %eax
	jne	.LBB9_1419
# BB#1415:                              # %if.then.420.i
                                        #   in Loop: Header=BB9_259 Depth=4
	movzbl	1(%rbx), %eax
	addl	$-37, %eax
	cmpq	$2, %rcx
	jb	.LBB9_1419
# BB#1416:                              # %if.then.420.i
                                        #   in Loop: Header=BB9_259 Depth=4
	testl	%eax, %eax
	jne	.LBB9_1419
# BB#1417:                              # %if.then.430.i.883
                                        #   in Loop: Header=BB9_259 Depth=4
	movzbl	2(%rbx), %eax
	addl	$-43, %eax
	jmp	.LBB9_1419
.LBB9_1418:                             # %cond.false.453.i
                                        #   in Loop: Header=BB9_259 Depth=4
	movl	$.L.str.34, %esi
	movl	$3, %edx
	movq	%rbx, %rdi
	callq	strncmp
	movq	160(%rsp), %rdi         # 8-byte Reload
.LBB9_1419:                             # %cond.end.455.i
                                        #   in Loop: Header=BB9_259 Depth=4
	movl	$1, %ebp
	testl	%eax, %eax
	movq	%rdi, %r12
	je	.LBB9_1421
# BB#1420:                              # %if.else.460.i
                                        #   in Loop: Header=BB9_259 Depth=4
	movslq	9584(%r13), %rdx
	cmpq	$256, %rdx              # imm = 0x100
	movl	$256, %eax              # imm = 0x100
	cmovaq	%rax, %rdx
	movq	9576(%r13), %rsi
	movq	%rdi, %rbp
	callq	memcpy
	movq	%rbp, %rdi
	xorl	%ebp, %ebp
	movq	%rbx, %r12
.LBB9_1421:                             # %if.end.461.i.887
                                        #   in Loop: Header=BB9_259 Depth=4
	movq	%rdi, 160(%rsp)         # 8-byte Spill
	movzbl	(%r12), %eax
	cmpl	$37, %eax
	jne	.LBB9_1614
# BB#1422:                              # %lor.lhs.false.i.888
                                        #   in Loop: Header=BB9_259 Depth=4
	movzbl	1(%r12), %eax
	cmpl	$37, %eax
	jne	.LBB9_1614
# BB#1423:                              # %if.else.471.i
                                        #   in Loop: Header=BB9_259 Depth=4
	movl	$.L.str.73, %edi
	callq	strlen
	movq	%rax, %rcx
	cmpq	$4, %rcx
	ja	.LBB9_1433
# BB#1424:                              # %land.lhs.true.481.i
                                        #   in Loop: Header=BB9_259 Depth=4
	movq	9576(%r13), %rdi
	cmpq	$3, %rcx
	ja	.LBB9_1432
# BB#1425:                              # %cond.true.485.i
                                        #   in Loop: Header=BB9_259 Depth=4
	movzbl	(%rdi), %eax
	addl	$-37, %eax
	testq	%rcx, %rcx
	je	.LBB9_1434
# BB#1426:                              # %cond.true.485.i
                                        #   in Loop: Header=BB9_259 Depth=4
	testl	%eax, %eax
	jne	.LBB9_1434
# BB#1427:                              # %if.then.500.i
                                        #   in Loop: Header=BB9_259 Depth=4
	movzbl	1(%rdi), %eax
	addl	$-37, %eax
	cmpq	$2, %rcx
	jb	.LBB9_1434
# BB#1428:                              # %if.then.500.i
                                        #   in Loop: Header=BB9_259 Depth=4
	testl	%eax, %eax
	jne	.LBB9_1434
# BB#1429:                              # %if.then.510.i
                                        #   in Loop: Header=BB9_259 Depth=4
	movzbl	2(%rdi), %eax
	addl	$-69, %eax
	cmpq	$3, %rcx
	jb	.LBB9_1434
# BB#1430:                              # %if.then.510.i
                                        #   in Loop: Header=BB9_259 Depth=4
	testl	%eax, %eax
	jne	.LBB9_1434
# BB#1431:                              # %if.then.520.i
                                        #   in Loop: Header=BB9_259 Depth=4
	movzbl	3(%rdi), %eax
	addl	$-79, %eax
	jmp	.LBB9_1434
.LBB9_1433:                             # %cond.false.534.i
                                        #   in Loop: Header=BB9_259 Depth=4
	movq	9576(%r13), %rdi
	movl	$.L.str.73, %esi
	movl	$5, %edx
	callq	strncmp
	jmp	.LBB9_1434
.LBB9_1432:                             # %cond.false.529.i
                                        #   in Loop: Header=BB9_259 Depth=4
	movl	$.L.str.73, %esi
	callq	strcmp
.LBB9_1434:                             # %cond.end.537.i
                                        #   in Loop: Header=BB9_259 Depth=4
	testl	%eax, %eax
	je	.LBB9_1435
# BB#1436:                              # %if.else.543.i
                                        #   in Loop: Header=BB9_259 Depth=4
	movl	$.L.str.72, %edi
	callq	strlen
	movq	%rax, %rcx
	cmpq	$8, %rcx
	ja	.LBB9_1446
# BB#1437:                              # %land.lhs.true.553.i
                                        #   in Loop: Header=BB9_259 Depth=4
	movq	9576(%r13), %rdi
	cmpq	$3, %rcx
	ja	.LBB9_1445
# BB#1438:                              # %cond.true.557.i
                                        #   in Loop: Header=BB9_259 Depth=4
	movzbl	(%rdi), %eax
	addl	$-37, %eax
	testq	%rcx, %rcx
	je	.LBB9_1447
# BB#1439:                              # %cond.true.557.i
                                        #   in Loop: Header=BB9_259 Depth=4
	testl	%eax, %eax
	jne	.LBB9_1447
# BB#1440:                              # %if.then.572.i
                                        #   in Loop: Header=BB9_259 Depth=4
	movzbl	1(%rdi), %eax
	addl	$-37, %eax
	cmpq	$2, %rcx
	jb	.LBB9_1447
# BB#1441:                              # %if.then.572.i
                                        #   in Loop: Header=BB9_259 Depth=4
	testl	%eax, %eax
	jne	.LBB9_1447
# BB#1442:                              # %if.then.582.i
                                        #   in Loop: Header=BB9_259 Depth=4
	movzbl	2(%rdi), %eax
	addl	$-84, %eax
	cmpq	$3, %rcx
	jb	.LBB9_1447
# BB#1443:                              # %if.then.582.i
                                        #   in Loop: Header=BB9_259 Depth=4
	testl	%eax, %eax
	jne	.LBB9_1447
# BB#1444:                              # %if.then.592.i.908
                                        #   in Loop: Header=BB9_259 Depth=4
	movzbl	3(%rdi), %eax
	addl	$-114, %eax
	jmp	.LBB9_1447
.LBB9_1446:                             # %cond.false.606.i
                                        #   in Loop: Header=BB9_259 Depth=4
	movq	9576(%r13), %rdi
	movl	$.L.str.72, %esi
	movl	$9, %edx
	callq	strncmp
	jmp	.LBB9_1447
.LBB9_1445:                             # %cond.false.601.i
                                        #   in Loop: Header=BB9_259 Depth=4
	movl	$.L.str.72, %esi
	callq	strcmp
.LBB9_1447:                             # %cond.end.609.i
                                        #   in Loop: Header=BB9_259 Depth=4
	testl	%eax, %eax
	je	.LBB9_1448
# BB#1449:                              # %if.else.623.i
                                        #   in Loop: Header=BB9_259 Depth=4
	movl	$.L.str.35, %edi
	callq	strlen
	movq	%rax, %rcx
	cmpq	$7, %rcx
	ja	.LBB9_1459
# BB#1450:                              # %land.lhs.true.633.i
                                        #   in Loop: Header=BB9_259 Depth=4
	cmpq	$3, %rcx
	ja	.LBB9_1458
# BB#1451:                              # %cond.true.637.i
                                        #   in Loop: Header=BB9_259 Depth=4
	movzbl	(%r12), %eax
	addl	$-37, %eax
	testq	%rcx, %rcx
	je	.LBB9_1460
# BB#1452:                              # %cond.true.637.i
                                        #   in Loop: Header=BB9_259 Depth=4
	testl	%eax, %eax
	jne	.LBB9_1460
# BB#1453:                              # %if.then.651.i
                                        #   in Loop: Header=BB9_259 Depth=4
	movzbl	1(%r12), %eax
	addl	$-37, %eax
	cmpq	$2, %rcx
	jb	.LBB9_1460
# BB#1454:                              # %if.then.651.i
                                        #   in Loop: Header=BB9_259 Depth=4
	testl	%eax, %eax
	jne	.LBB9_1460
# BB#1455:                              # %if.then.661.i
                                        #   in Loop: Header=BB9_259 Depth=4
	movzbl	2(%r12), %eax
	addl	$-80, %eax
	cmpq	$3, %rcx
	jb	.LBB9_1460
# BB#1456:                              # %if.then.661.i
                                        #   in Loop: Header=BB9_259 Depth=4
	testl	%eax, %eax
	jne	.LBB9_1460
# BB#1457:                              # %if.then.671.i
                                        #   in Loop: Header=BB9_259 Depth=4
	movzbl	3(%r12), %eax
	addl	$-97, %eax
	jmp	.LBB9_1460
.LBB9_1459:                             # %cond.false.684.i
                                        #   in Loop: Header=BB9_259 Depth=4
	movl	$.L.str.35, %esi
	movl	$8, %edx
	movq	%r12, %rdi
	callq	strncmp
	jmp	.LBB9_1460
.LBB9_1458:                             # %cond.false.680.i
                                        #   in Loop: Header=BB9_259 Depth=4
	movl	$.L.str.35, %esi
	movq	%r12, %rdi
	callq	strcmp
.LBB9_1460:                             # %cond.end.686.i
                                        #   in Loop: Header=BB9_259 Depth=4
	testl	%eax, %eax
	je	.LBB9_1461
# BB#1462:                              # %if.else.697.i
                                        #   in Loop: Header=BB9_259 Depth=4
	movl	$.L.str.41, %edi
	callq	strlen
	movq	%rax, %rcx
	cmpq	$13, %rcx
	ja	.LBB9_1472
# BB#1463:                              # %land.lhs.true.707.i
                                        #   in Loop: Header=BB9_259 Depth=4
	cmpq	$3, %rcx
	ja	.LBB9_1471
# BB#1464:                              # %cond.true.711.i
                                        #   in Loop: Header=BB9_259 Depth=4
	movzbl	(%r12), %eax
	addl	$-37, %eax
	testq	%rcx, %rcx
	je	.LBB9_1473
# BB#1465:                              # %cond.true.711.i
                                        #   in Loop: Header=BB9_259 Depth=4
	testl	%eax, %eax
	jne	.LBB9_1473
# BB#1466:                              # %if.then.725.i.920
                                        #   in Loop: Header=BB9_259 Depth=4
	movzbl	1(%r12), %eax
	addl	$-37, %eax
	cmpq	$2, %rcx
	jb	.LBB9_1473
# BB#1467:                              # %if.then.725.i.920
                                        #   in Loop: Header=BB9_259 Depth=4
	testl	%eax, %eax
	jne	.LBB9_1473
# BB#1468:                              # %if.then.735.i
                                        #   in Loop: Header=BB9_259 Depth=4
	movzbl	2(%r12), %eax
	addl	$-66, %eax
	cmpq	$3, %rcx
	jb	.LBB9_1473
# BB#1469:                              # %if.then.735.i
                                        #   in Loop: Header=BB9_259 Depth=4
	testl	%eax, %eax
	jne	.LBB9_1473
# BB#1470:                              # %if.then.745.i
                                        #   in Loop: Header=BB9_259 Depth=4
	movzbl	3(%r12), %eax
	addl	$-111, %eax
	jmp	.LBB9_1473
.LBB9_1472:                             # %cond.false.758.i
                                        #   in Loop: Header=BB9_259 Depth=4
	movl	$.L.str.41, %esi
	movl	$14, %edx
	movq	%r12, %rdi
	callq	strncmp
	jmp	.LBB9_1473
.LBB9_1471:                             # %cond.false.754.i
                                        #   in Loop: Header=BB9_259 Depth=4
	movl	$.L.str.41, %esi
	movq	%r12, %rdi
	callq	strcmp
.LBB9_1473:                             # %cond.end.760.i
                                        #   in Loop: Header=BB9_259 Depth=4
	testl	%eax, %eax
	je	.LBB9_1474
# BB#1475:                              # %if.else.772.i
                                        #   in Loop: Header=BB9_259 Depth=4
	movl	$.L.str.42, %edi
	callq	strlen
	movq	%rax, %rcx
	cmpq	$18, %rcx
	ja	.LBB9_1485
# BB#1476:                              # %land.lhs.true.782.i
                                        #   in Loop: Header=BB9_259 Depth=4
	cmpq	$3, %rcx
	ja	.LBB9_1484
# BB#1477:                              # %cond.true.786.i
                                        #   in Loop: Header=BB9_259 Depth=4
	movzbl	(%r12), %eax
	addl	$-37, %eax
	testq	%rcx, %rcx
	je	.LBB9_1486
# BB#1478:                              # %cond.true.786.i
                                        #   in Loop: Header=BB9_259 Depth=4
	testl	%eax, %eax
	jne	.LBB9_1486
# BB#1479:                              # %if.then.800.i
                                        #   in Loop: Header=BB9_259 Depth=4
	movzbl	1(%r12), %eax
	addl	$-37, %eax
	cmpq	$2, %rcx
	jb	.LBB9_1486
# BB#1480:                              # %if.then.800.i
                                        #   in Loop: Header=BB9_259 Depth=4
	testl	%eax, %eax
	jne	.LBB9_1486
# BB#1481:                              # %if.then.810.i
                                        #   in Loop: Header=BB9_259 Depth=4
	movzbl	2(%r12), %eax
	addl	$-72, %eax
	cmpq	$3, %rcx
	jb	.LBB9_1486
# BB#1482:                              # %if.then.810.i
                                        #   in Loop: Header=BB9_259 Depth=4
	testl	%eax, %eax
	jne	.LBB9_1486
# BB#1483:                              # %if.then.820.i
                                        #   in Loop: Header=BB9_259 Depth=4
	movzbl	3(%r12), %eax
	addl	$-105, %eax
	jmp	.LBB9_1486
.LBB9_1485:                             # %cond.false.833.i
                                        #   in Loop: Header=BB9_259 Depth=4
	movl	$.L.str.42, %esi
	movl	$19, %edx
	movq	%r12, %rdi
	callq	strncmp
	jmp	.LBB9_1486
.LBB9_1484:                             # %cond.false.829.i
                                        #   in Loop: Header=BB9_259 Depth=4
	movl	$.L.str.42, %esi
	movq	%r12, %rdi
	callq	strcmp
.LBB9_1486:                             # %cond.end.835.i
                                        #   in Loop: Header=BB9_259 Depth=4
	testl	%eax, %eax
	je	.LBB9_1487
# BB#1490:                              # %if.else.847.i
                                        #   in Loop: Header=BB9_259 Depth=4
	movl	$.L.str.43, %edi
	callq	strlen
	movq	%rax, %rcx
	cmpq	$9, %rcx
	ja	.LBB9_1500
# BB#1491:                              # %land.lhs.true.857.i
                                        #   in Loop: Header=BB9_259 Depth=4
	cmpq	$3, %rcx
	ja	.LBB9_1499
# BB#1492:                              # %cond.true.861.i
                                        #   in Loop: Header=BB9_259 Depth=4
	movzbl	(%r12), %eax
	addl	$-37, %eax
	testq	%rcx, %rcx
	je	.LBB9_1501
# BB#1493:                              # %cond.true.861.i
                                        #   in Loop: Header=BB9_259 Depth=4
	testl	%eax, %eax
	jne	.LBB9_1501
# BB#1494:                              # %if.then.875.i
                                        #   in Loop: Header=BB9_259 Depth=4
	movzbl	1(%r12), %eax
	addl	$-37, %eax
	cmpq	$2, %rcx
	jb	.LBB9_1501
# BB#1495:                              # %if.then.875.i
                                        #   in Loop: Header=BB9_259 Depth=4
	testl	%eax, %eax
	jne	.LBB9_1501
# BB#1496:                              # %if.then.885.i
                                        #   in Loop: Header=BB9_259 Depth=4
	movzbl	2(%r12), %eax
	addl	$-67, %eax
	cmpq	$3, %rcx
	jb	.LBB9_1501
# BB#1497:                              # %if.then.885.i
                                        #   in Loop: Header=BB9_259 Depth=4
	testl	%eax, %eax
	jne	.LBB9_1501
# BB#1498:                              # %if.then.895.i
                                        #   in Loop: Header=BB9_259 Depth=4
	movzbl	3(%r12), %eax
	addl	$-114, %eax
	jmp	.LBB9_1501
.LBB9_1500:                             # %cond.false.908.i
                                        #   in Loop: Header=BB9_259 Depth=4
	movl	$.L.str.43, %esi
	movl	$10, %edx
	movq	%r12, %rdi
	callq	strncmp
	jmp	.LBB9_1501
.LBB9_1499:                             # %cond.false.904.i
                                        #   in Loop: Header=BB9_259 Depth=4
	movl	$.L.str.43, %esi
	movq	%r12, %rdi
	callq	strcmp
.LBB9_1501:                             # %cond.end.910.i
                                        #   in Loop: Header=BB9_259 Depth=4
	testl	%eax, %eax
	je	.LBB9_1502
# BB#1503:                              # %if.else.922.i
                                        #   in Loop: Header=BB9_259 Depth=4
	movl	$.L.str.44, %edi
	callq	strlen
	movq	%rax, %rcx
	cmpq	$13, %rcx
	ja	.LBB9_1513
# BB#1504:                              # %land.lhs.true.932.i
                                        #   in Loop: Header=BB9_259 Depth=4
	cmpq	$3, %rcx
	ja	.LBB9_1512
# BB#1505:                              # %cond.true.936.i
                                        #   in Loop: Header=BB9_259 Depth=4
	movzbl	(%r12), %eax
	addl	$-37, %eax
	testq	%rcx, %rcx
	je	.LBB9_1514
# BB#1506:                              # %cond.true.936.i
                                        #   in Loop: Header=BB9_259 Depth=4
	testl	%eax, %eax
	jne	.LBB9_1514
# BB#1507:                              # %if.then.950.i
                                        #   in Loop: Header=BB9_259 Depth=4
	movzbl	1(%r12), %eax
	addl	$-37, %eax
	cmpq	$2, %rcx
	jb	.LBB9_1514
# BB#1508:                              # %if.then.950.i
                                        #   in Loop: Header=BB9_259 Depth=4
	testl	%eax, %eax
	jne	.LBB9_1514
# BB#1509:                              # %if.then.960.i
                                        #   in Loop: Header=BB9_259 Depth=4
	movzbl	2(%r12), %eax
	addl	$-79, %eax
	cmpq	$3, %rcx
	jb	.LBB9_1514
# BB#1510:                              # %if.then.960.i
                                        #   in Loop: Header=BB9_259 Depth=4
	testl	%eax, %eax
	jne	.LBB9_1514
# BB#1511:                              # %if.then.970.i
                                        #   in Loop: Header=BB9_259 Depth=4
	movzbl	3(%r12), %eax
	addl	$-114, %eax
	jmp	.LBB9_1514
.LBB9_1513:                             # %cond.false.983.i
                                        #   in Loop: Header=BB9_259 Depth=4
	movl	$.L.str.44, %esi
	movl	$14, %edx
	movq	%r12, %rdi
	callq	strncmp
	jmp	.LBB9_1514
.LBB9_1512:                             # %cond.false.979.i
                                        #   in Loop: Header=BB9_259 Depth=4
	movl	$.L.str.44, %esi
	movq	%r12, %rdi
	callq	strcmp
.LBB9_1514:                             # %cond.end.985.i
                                        #   in Loop: Header=BB9_259 Depth=4
	testl	%eax, %eax
	je	.LBB9_1515
# BB#1516:                              # %if.else.997.i
                                        #   in Loop: Header=BB9_259 Depth=4
	movl	$.L.str.45, %edi
	callq	strlen
	movq	%rax, %rcx
	cmpq	$11, %rcx
	ja	.LBB9_1526
# BB#1517:                              # %land.lhs.true.1007.i
                                        #   in Loop: Header=BB9_259 Depth=4
	cmpq	$3, %rcx
	ja	.LBB9_1525
# BB#1518:                              # %cond.true.1011.i
                                        #   in Loop: Header=BB9_259 Depth=4
	movzbl	(%r12), %eax
	addl	$-37, %eax
	testq	%rcx, %rcx
	je	.LBB9_1527
# BB#1519:                              # %cond.true.1011.i
                                        #   in Loop: Header=BB9_259 Depth=4
	testl	%eax, %eax
	jne	.LBB9_1527
# BB#1520:                              # %if.then.1025.i
                                        #   in Loop: Header=BB9_259 Depth=4
	movzbl	1(%r12), %eax
	addl	$-37, %eax
	cmpq	$2, %rcx
	jb	.LBB9_1527
# BB#1521:                              # %if.then.1025.i
                                        #   in Loop: Header=BB9_259 Depth=4
	testl	%eax, %eax
	jne	.LBB9_1527
# BB#1522:                              # %if.then.1035.i
                                        #   in Loop: Header=BB9_259 Depth=4
	movzbl	2(%r12), %eax
	addl	$-80, %eax
	cmpq	$3, %rcx
	jb	.LBB9_1527
# BB#1523:                              # %if.then.1035.i
                                        #   in Loop: Header=BB9_259 Depth=4
	testl	%eax, %eax
	jne	.LBB9_1527
# BB#1524:                              # %if.then.1045.i
                                        #   in Loop: Header=BB9_259 Depth=4
	movzbl	3(%r12), %eax
	addl	$-97, %eax
	jmp	.LBB9_1527
.LBB9_1526:                             # %cond.false.1058.i
                                        #   in Loop: Header=BB9_259 Depth=4
	movl	$.L.str.45, %esi
	movl	$12, %edx
	movq	%r12, %rdi
	callq	strncmp
	jmp	.LBB9_1527
.LBB9_1525:                             # %cond.false.1054.i
                                        #   in Loop: Header=BB9_259 Depth=4
	movl	$.L.str.45, %esi
	movq	%r12, %rdi
	callq	strcmp
.LBB9_1527:                             # %cond.end.1060.i
                                        #   in Loop: Header=BB9_259 Depth=4
	testl	%eax, %eax
	je	.LBB9_1528
# BB#1529:                              # %if.else.1070.i
                                        #   in Loop: Header=BB9_259 Depth=4
	movl	$.L.str.46, %edi
	callq	strlen
	movq	%rax, %rcx
	cmpq	$15, %rcx
	ja	.LBB9_1539
# BB#1530:                              # %land.lhs.true.1080.i
                                        #   in Loop: Header=BB9_259 Depth=4
	cmpq	$3, %rcx
	ja	.LBB9_1538
# BB#1531:                              # %cond.true.1084.i
                                        #   in Loop: Header=BB9_259 Depth=4
	movzbl	(%r12), %eax
	addl	$-37, %eax
	testq	%rcx, %rcx
	je	.LBB9_1540
# BB#1532:                              # %cond.true.1084.i
                                        #   in Loop: Header=BB9_259 Depth=4
	testl	%eax, %eax
	jne	.LBB9_1540
# BB#1533:                              # %if.then.1098.i
                                        #   in Loop: Header=BB9_259 Depth=4
	movzbl	1(%r12), %eax
	addl	$-37, %eax
	cmpq	$2, %rcx
	jb	.LBB9_1540
# BB#1534:                              # %if.then.1098.i
                                        #   in Loop: Header=BB9_259 Depth=4
	testl	%eax, %eax
	jne	.LBB9_1540
# BB#1535:                              # %if.then.1108.i
                                        #   in Loop: Header=BB9_259 Depth=4
	movzbl	2(%r12), %eax
	addl	$-68, %eax
	cmpq	$3, %rcx
	jb	.LBB9_1540
# BB#1536:                              # %if.then.1108.i
                                        #   in Loop: Header=BB9_259 Depth=4
	testl	%eax, %eax
	jne	.LBB9_1540
# BB#1537:                              # %if.then.1118.i
                                        #   in Loop: Header=BB9_259 Depth=4
	movzbl	3(%r12), %eax
	addl	$-111, %eax
	jmp	.LBB9_1540
.LBB9_1539:                             # %cond.false.1131.i
                                        #   in Loop: Header=BB9_259 Depth=4
	movl	$.L.str.46, %esi
	movl	$16, %edx
	movq	%r12, %rdi
	callq	strncmp
	jmp	.LBB9_1540
.LBB9_1538:                             # %cond.false.1127.i
                                        #   in Loop: Header=BB9_259 Depth=4
	movl	$.L.str.46, %esi
	movq	%r12, %rdi
	callq	strcmp
.LBB9_1540:                             # %cond.end.1133.i
                                        #   in Loop: Header=BB9_259 Depth=4
	testl	%eax, %eax
	je	.LBB9_1541
# BB#1542:                              # %if.else.1143.i
                                        #   in Loop: Header=BB9_259 Depth=4
	movl	$.L.str.71, %edi
	callq	strlen
	movq	%rax, %rcx
	cmpq	$6, %rcx
	ja	.LBB9_1552
# BB#1543:                              # %land.lhs.true.1153.i
                                        #   in Loop: Header=BB9_259 Depth=4
	movq	9576(%r13), %rdi
	cmpq	$3, %rcx
	ja	.LBB9_1551
# BB#1544:                              # %cond.true.1157.i
                                        #   in Loop: Header=BB9_259 Depth=4
	movzbl	(%rdi), %eax
	addl	$-37, %eax
	testq	%rcx, %rcx
	je	.LBB9_1553
# BB#1545:                              # %cond.true.1157.i
                                        #   in Loop: Header=BB9_259 Depth=4
	testl	%eax, %eax
	jne	.LBB9_1553
# BB#1546:                              # %if.then.1172.i
                                        #   in Loop: Header=BB9_259 Depth=4
	movzbl	1(%rdi), %eax
	addl	$-37, %eax
	cmpq	$2, %rcx
	jb	.LBB9_1553
# BB#1547:                              # %if.then.1172.i
                                        #   in Loop: Header=BB9_259 Depth=4
	testl	%eax, %eax
	jne	.LBB9_1553
# BB#1548:                              # %if.then.1182.i
                                        #   in Loop: Header=BB9_259 Depth=4
	movzbl	2(%rdi), %eax
	addl	$-80, %eax
	cmpq	$3, %rcx
	jb	.LBB9_1553
# BB#1549:                              # %if.then.1182.i
                                        #   in Loop: Header=BB9_259 Depth=4
	testl	%eax, %eax
	jne	.LBB9_1553
# BB#1550:                              # %if.then.1192.i
                                        #   in Loop: Header=BB9_259 Depth=4
	movzbl	3(%rdi), %eax
	addl	$-97, %eax
	jmp	.LBB9_1553
.LBB9_1552:                             # %cond.false.1206.i
                                        #   in Loop: Header=BB9_259 Depth=4
	movq	9576(%r13), %rdi
	movl	$.L.str.71, %esi
	movl	$7, %edx
	callq	strncmp
	jmp	.LBB9_1553
.LBB9_1551:                             # %cond.false.1201.i
                                        #   in Loop: Header=BB9_259 Depth=4
	movl	$.L.str.71, %esi
	callq	strcmp
.LBB9_1553:                             # %cond.end.1209.i
                                        #   in Loop: Header=BB9_259 Depth=4
	testl	%eax, %eax
	jne	.LBB9_1559
# BB#1554:                              # %if.then.1213.i
                                        #   in Loop: Header=BB9_259 Depth=4
	movq	9912(%r13), %rax
	testq	%rax, %rax
	je	.LBB9_1614
# BB#1555:                              # %dsc_error.exit.i.958
                                        #   in Loop: Header=BB9_259 Depth=4
	movl	9584(%r13), %r8d
	movq	9576(%r13), %rcx
	movq	1288(%r13), %rdi
	movl	$3, %edx
	movq	%r13, %rsi
	callq	*%rax
	testl	%eax, %eax
	jne	.LBB9_1556
# BB#1557:                              # %sw.bb.i.960
                                        #   in Loop: Header=BB9_259 Depth=4
	movl	$10, 1300(%r13)
	movl	1168(%r13), %ecx
	movl	$10, %eax
	testl	%ecx, %ecx
	je	.LBB9_259
	jmp	.LBB9_1558
.LBB9_1615:                             # %sw.bb
                                        #   in Loop: Header=BB9_258 Depth=3
	movq	%r13, %rdi
	callq	dsc_scan_comments
	jmp	.LBB9_1616
.LBB9_450:                              # %if.end.53.i
                                        #   in Loop: Header=BB9_258 Depth=3
	movl	$501, 1296(%r13)        # imm = 0x1F5
	movl	9556(%r13), %eax
	movl	9584(%r13), %ecx
	addq	9560(%r13), %rax
	movq	%rax, %rdx
	subq	%rcx, %rdx
	movq	%rdx, 1112(%r13)
	movq	%rax, 1120(%r13)
	movl	$7, 1300(%r13)
	movl	$.L.str.69, %edi
	callq	strlen
	movq	%rax, %rcx
	cmpq	$12, %rcx
	ja	.LBB9_460
# BB#451:                               # %land.lhs.true.72.i
                                        #   in Loop: Header=BB9_258 Depth=3
	cmpq	$3, %rcx
	ja	.LBB9_459
# BB#452:                               # %cond.true.76.i
                                        #   in Loop: Header=BB9_258 Depth=3
	movzbl	(%r12), %eax
	addl	$-37, %eax
	testq	%rcx, %rcx
	je	.LBB9_461
# BB#453:                               # %cond.true.76.i
                                        #   in Loop: Header=BB9_258 Depth=3
	testl	%eax, %eax
	jne	.LBB9_461
# BB#454:                               # %if.then.90.i
                                        #   in Loop: Header=BB9_258 Depth=3
	movzbl	1(%r12), %eax
	addl	$-37, %eax
	cmpq	$2, %rcx
	jb	.LBB9_461
# BB#455:                               # %if.then.90.i
                                        #   in Loop: Header=BB9_258 Depth=3
	testl	%eax, %eax
	jne	.LBB9_461
# BB#456:                               # %if.then.100.i
                                        #   in Loop: Header=BB9_258 Depth=3
	movzbl	2(%r12), %eax
	addl	$-66, %eax
	cmpq	$3, %rcx
	jb	.LBB9_461
# BB#457:                               # %if.then.100.i
                                        #   in Loop: Header=BB9_258 Depth=3
	testl	%eax, %eax
	jne	.LBB9_461
# BB#458:                               # %if.then.110.i
                                        #   in Loop: Header=BB9_258 Depth=3
	movzbl	3(%r12), %eax
	addl	$-101, %eax
	jmp	.LBB9_461
.LBB9_636:                              # %if.end.72.i.378
                                        #   in Loop: Header=BB9_258 Depth=3
	cmpl	$37, %ebx
	jne	.LBB9_837
# BB#637:                               # %lor.lhs.false.77.i.381
                                        #   in Loop: Header=BB9_258 Depth=3
	movzbl	1(%r12), %eax
	cmpl	$37, %eax
	jne	.LBB9_837
# BB#638:                               # %if.else.83.i.384
                                        #   in Loop: Header=BB9_258 Depth=3
	movl	$.L.str.67, %edi
	callq	strlen
	movq	%rax, %rcx
	cmpq	$13, %rcx
	ja	.LBB9_645
# BB#639:                               # %land.lhs.true.93.i.386
                                        #   in Loop: Header=BB9_258 Depth=3
	cmpq	$3, %rcx
	ja	.LBB9_644
# BB#640:                               # %cond.true.97.i.388
                                        #   in Loop: Header=BB9_258 Depth=3
	cmpq	$2, %rcx
	jb	.LBB9_837
# BB#641:                               # %if.then.121.i.395
                                        #   in Loop: Header=BB9_258 Depth=3
	movzbl	2(%r12), %eax
	addl	$-66, %eax
	cmpq	$3, %rcx
	jb	.LBB9_646
# BB#642:                               # %if.then.121.i.395
                                        #   in Loop: Header=BB9_258 Depth=3
	testl	%eax, %eax
	jne	.LBB9_646
# BB#643:                               # %if.then.131.i.399
                                        #   in Loop: Header=BB9_258 Depth=3
	movzbl	3(%r12), %eax
	addl	$-101, %eax
	jmp	.LBB9_646
.LBB9_851:                              # %if.then.49.i
                                        #   in Loop: Header=BB9_258 Depth=3
	movl	$11, 1300(%r13)
.LBB9_852:                              # %if.end.225.i
                                        #   in Loop: Header=BB9_258 Depth=3
	movzbl	(%rbp), %eax
	cmpl	$37, %eax
	jne	.LBB9_1321
# BB#853:                               # %lor.lhs.false.230.i
                                        #   in Loop: Header=BB9_258 Depth=3
	movzbl	1(%rbp), %eax
	cmpl	$37, %eax
	jne	.LBB9_1321
# BB#854:                               # %if.else.236.i
                                        #   in Loop: Header=BB9_258 Depth=3
	movl	$.L.str.71, %edi
	callq	strlen
	movq	%rax, %rcx
	cmpq	$6, %rcx
	ja	.LBB9_893
# BB#855:                               # %land.lhs.true.246.i
                                        #   in Loop: Header=BB9_258 Depth=3
	cmpq	$3, %rcx
	ja	.LBB9_892
# BB#856:                               # %cond.true.250.i
                                        #   in Loop: Header=BB9_258 Depth=3
	cmpq	$2, %rcx
	jb	.LBB9_895
# BB#857:                               # %if.then.274.i
                                        #   in Loop: Header=BB9_258 Depth=3
	movzbl	2(%rbp), %eax
	addl	$-80, %eax
	cmpq	$3, %rcx
	jb	.LBB9_894
# BB#858:                               # %if.then.274.i
                                        #   in Loop: Header=BB9_258 Depth=3
	testl	%eax, %eax
	jne	.LBB9_894
# BB#859:                               # %if.then.284.i
                                        #   in Loop: Header=BB9_258 Depth=3
	movzbl	3(%rbp), %eax
	addl	$-97, %eax
	jmp	.LBB9_894
.LBB9_460:                              # %cond.false.123.i
                                        #   in Loop: Header=BB9_258 Depth=3
	movl	$.L.str.69, %esi
	movl	$13, %edx
	movq	%r12, %rdi
	callq	strncmp
	jmp	.LBB9_461
.LBB9_893:                              # %cond.false.297.i
                                        #   in Loop: Header=BB9_258 Depth=3
	movl	$.L.str.71, %esi
	movl	$7, %edx
	movq	%rbp, %rdi
	callq	strncmp
	jmp	.LBB9_894
.LBB9_459:                              # %cond.false.119.i
                                        #   in Loop: Header=BB9_258 Depth=3
	movl	$.L.str.69, %esi
	movq	%r12, %rdi
	callq	strcmp
.LBB9_461:                              # %cond.end.125.i
                                        #   in Loop: Header=BB9_258 Depth=3
	testl	%eax, %eax
	je	.LBB9_189
.LBB9_462:                              # %if.end.131.i
                                        #   in Loop: Header=BB9_258 Depth=3
	movzbl	(%r12), %eax
	cmpl	$37, %eax
	jne	.LBB9_617
# BB#463:                               # %lor.lhs.false.i
                                        #   in Loop: Header=BB9_258 Depth=3
	movzbl	1(%r12), %eax
	cmpl	$37, %eax
	jne	.LBB9_617
# BB#464:                               # %if.else.i.289
                                        #   in Loop: Header=BB9_258 Depth=3
	movl	$.L.str.67, %edi
	callq	strlen
	movq	%rax, %rcx
	cmpq	$13, %rcx
	ja	.LBB9_471
# BB#465:                               # %land.lhs.true.150.i
                                        #   in Loop: Header=BB9_258 Depth=3
	cmpq	$3, %rcx
	ja	.LBB9_470
# BB#466:                               # %cond.true.154.i
                                        #   in Loop: Header=BB9_258 Depth=3
	cmpq	$2, %rcx
	jb	.LBB9_617
# BB#467:                               # %if.then.178.i
                                        #   in Loop: Header=BB9_258 Depth=3
	movzbl	2(%r12), %eax
	addl	$-66, %eax
	cmpq	$3, %rcx
	jb	.LBB9_472
# BB#468:                               # %if.then.178.i
                                        #   in Loop: Header=BB9_258 Depth=3
	testl	%eax, %eax
	jne	.LBB9_472
# BB#469:                               # %if.then.188.i
                                        #   in Loop: Header=BB9_258 Depth=3
	movzbl	3(%r12), %eax
	addl	$-101, %eax
	jmp	.LBB9_472
.LBB9_471:                              # %cond.false.201.i
                                        #   in Loop: Header=BB9_258 Depth=3
	movl	$.L.str.67, %esi
	movl	$14, %edx
	movq	%r12, %rdi
	callq	strncmp
	jmp	.LBB9_472
.LBB9_470:                              # %cond.false.197.i
                                        #   in Loop: Header=BB9_258 Depth=3
	movl	$.L.str.67, %esi
	movq	%r12, %rdi
	callq	strcmp
.LBB9_472:                              # %cond.end.203.i
                                        #   in Loop: Header=BB9_258 Depth=3
	testl	%eax, %eax
	je	.LBB9_617
# BB#473:                               # %if.else.208.i
                                        #   in Loop: Header=BB9_258 Depth=3
	movl	$.L.str.68, %edi
	callq	strlen
	movq	%rax, %rcx
	cmpq	$14, %rcx
	ja	.LBB9_483
# BB#474:                               # %land.lhs.true.218.i
                                        #   in Loop: Header=BB9_258 Depth=3
	cmpq	$3, %rcx
	ja	.LBB9_482
# BB#475:                               # %cond.true.222.i
                                        #   in Loop: Header=BB9_258 Depth=3
	movzbl	(%r12), %eax
	addl	$-37, %eax
	testq	%rcx, %rcx
	je	.LBB9_484
# BB#476:                               # %cond.true.222.i
                                        #   in Loop: Header=BB9_258 Depth=3
	testl	%eax, %eax
	jne	.LBB9_484
# BB#477:                               # %if.then.236.i
                                        #   in Loop: Header=BB9_258 Depth=3
	movzbl	1(%r12), %eax
	addl	$-37, %eax
	cmpq	$2, %rcx
	jb	.LBB9_484
# BB#478:                               # %if.then.236.i
                                        #   in Loop: Header=BB9_258 Depth=3
	testl	%eax, %eax
	jne	.LBB9_484
# BB#479:                               # %if.then.246.i
                                        #   in Loop: Header=BB9_258 Depth=3
	movzbl	2(%r12), %eax
	addl	$-66, %eax
	cmpq	$3, %rcx
	jb	.LBB9_484
# BB#480:                               # %if.then.246.i
                                        #   in Loop: Header=BB9_258 Depth=3
	testl	%eax, %eax
	jne	.LBB9_484
# BB#481:                               # %if.then.256.i
                                        #   in Loop: Header=BB9_258 Depth=3
	movzbl	3(%r12), %eax
	addl	$-101, %eax
	jmp	.LBB9_484
.LBB9_483:                              # %cond.false.269.i
                                        #   in Loop: Header=BB9_258 Depth=3
	movl	$.L.str.68, %esi
	movl	$15, %edx
	movq	%r12, %rdi
	callq	strncmp
	jmp	.LBB9_484
.LBB9_482:                              # %cond.false.265.i
                                        #   in Loop: Header=BB9_258 Depth=3
	movl	$.L.str.68, %esi
	movq	%r12, %rdi
	callq	strcmp
.LBB9_484:                              # %cond.end.271.i
                                        #   in Loop: Header=BB9_258 Depth=3
	testl	%eax, %eax
	je	.LBB9_617
# BB#485:                               # %if.else.276.i
                                        #   in Loop: Header=BB9_258 Depth=3
	movl	$.L.str.69, %edi
	callq	strlen
	movq	%rax, %rcx
	cmpq	$12, %rcx
	ja	.LBB9_495
# BB#486:                               # %land.lhs.true.286.i
                                        #   in Loop: Header=BB9_258 Depth=3
	cmpq	$3, %rcx
	ja	.LBB9_494
# BB#487:                               # %cond.true.290.i
                                        #   in Loop: Header=BB9_258 Depth=3
	movzbl	(%r12), %eax
	addl	$-37, %eax
	testq	%rcx, %rcx
	je	.LBB9_496
# BB#488:                               # %cond.true.290.i
                                        #   in Loop: Header=BB9_258 Depth=3
	testl	%eax, %eax
	jne	.LBB9_496
# BB#489:                               # %if.then.304.i
                                        #   in Loop: Header=BB9_258 Depth=3
	movzbl	1(%r12), %eax
	addl	$-37, %eax
	cmpq	$2, %rcx
	jb	.LBB9_496
# BB#490:                               # %if.then.304.i
                                        #   in Loop: Header=BB9_258 Depth=3
	testl	%eax, %eax
	jne	.LBB9_496
# BB#491:                               # %if.then.314.i
                                        #   in Loop: Header=BB9_258 Depth=3
	movzbl	2(%r12), %eax
	addl	$-66, %eax
	cmpq	$3, %rcx
	jb	.LBB9_496
# BB#492:                               # %if.then.314.i
                                        #   in Loop: Header=BB9_258 Depth=3
	testl	%eax, %eax
	jne	.LBB9_496
# BB#493:                               # %if.then.324.i
                                        #   in Loop: Header=BB9_258 Depth=3
	movzbl	3(%r12), %eax
	addl	$-101, %eax
	jmp	.LBB9_496
.LBB9_495:                              # %cond.false.337.i
                                        #   in Loop: Header=BB9_258 Depth=3
	movl	$.L.str.69, %esi
	movl	$13, %edx
	movq	%r12, %rdi
	callq	strncmp
	jmp	.LBB9_496
.LBB9_494:                              # %cond.false.333.i
                                        #   in Loop: Header=BB9_258 Depth=3
	movl	$.L.str.69, %esi
	movq	%r12, %rdi
	callq	strcmp
.LBB9_496:                              # %cond.end.339.i
                                        #   in Loop: Header=BB9_258 Depth=3
	testl	%eax, %eax
	je	.LBB9_617
# BB#497:                               # %if.else.344.i
                                        #   in Loop: Header=BB9_258 Depth=3
	movq	%r12, %rdi
	callq	dsc_is_section
	testl	%eax, %eax
	je	.LBB9_499
# BB#498:                               # %if.then.347.i
                                        #   in Loop: Header=BB9_258 Depth=3
	movl	9556(%r13), %eax
	movl	9584(%r13), %ecx
	addq	9560(%r13), %rax
	subq	%rcx, %rax
	movq	%rax, 1120(%r13)
	movl	$8, 1300(%r13)
	jmp	.LBB9_989
.LBB9_499:                              # %if.else.361.i
                                        #   in Loop: Header=BB9_258 Depth=3
	movl	$.L.str.112, %edi
	callq	strlen
	movq	%rax, %rcx
	cmpq	$10, %rcx
	ja	.LBB9_509
# BB#500:                               # %land.lhs.true.371.i
                                        #   in Loop: Header=BB9_258 Depth=3
	cmpq	$3, %rcx
	ja	.LBB9_508
# BB#501:                               # %cond.true.375.i
                                        #   in Loop: Header=BB9_258 Depth=3
	movzbl	(%r12), %eax
	addl	$-37, %eax
	testq	%rcx, %rcx
	je	.LBB9_510
# BB#502:                               # %cond.true.375.i
                                        #   in Loop: Header=BB9_258 Depth=3
	testl	%eax, %eax
	jne	.LBB9_510
# BB#503:                               # %if.then.389.i
                                        #   in Loop: Header=BB9_258 Depth=3
	movzbl	1(%r12), %eax
	addl	$-37, %eax
	cmpq	$2, %rcx
	jb	.LBB9_510
# BB#504:                               # %if.then.389.i
                                        #   in Loop: Header=BB9_258 Depth=3
	testl	%eax, %eax
	jne	.LBB9_510
# BB#505:                               # %if.then.399.i
                                        #   in Loop: Header=BB9_258 Depth=3
	movzbl	2(%r12), %eax
	addl	$-69, %eax
	cmpq	$3, %rcx
	jb	.LBB9_510
# BB#506:                               # %if.then.399.i
                                        #   in Loop: Header=BB9_258 Depth=3
	testl	%eax, %eax
	jne	.LBB9_510
# BB#507:                               # %if.then.409.i
                                        #   in Loop: Header=BB9_258 Depth=3
	movzbl	3(%r12), %eax
	addl	$-110, %eax
	jmp	.LBB9_510
.LBB9_645:                              # %cond.false.144.i.403
                                        #   in Loop: Header=BB9_258 Depth=3
	movl	$.L.str.67, %esi
	movl	$14, %edx
	movq	%r12, %rdi
	callq	strncmp
	jmp	.LBB9_646
.LBB9_892:                              # %cond.false.293.i
                                        #   in Loop: Header=BB9_258 Depth=3
	movl	$.L.str.71, %esi
	movq	%rbp, %rdi
	callq	strcmp
.LBB9_894:                              # %cond.end.299.i
                                        #   in Loop: Header=BB9_258 Depth=3
	testl	%eax, %eax
	je	.LBB9_895
# BB#922:                               # %if.else.334.i
                                        #   in Loop: Header=BB9_258 Depth=3
	movl	$.L.str.67, %edi
	callq	strlen
	movq	%rax, %rcx
	cmpq	$13, %rcx
	ja	.LBB9_932
# BB#923:                               # %land.lhs.true.344.i
                                        #   in Loop: Header=BB9_258 Depth=3
	cmpq	$3, %rcx
	ja	.LBB9_931
# BB#924:                               # %cond.true.348.i
                                        #   in Loop: Header=BB9_258 Depth=3
	movzbl	(%rbp), %eax
	addl	$-37, %eax
	testq	%rcx, %rcx
	je	.LBB9_933
# BB#925:                               # %cond.true.348.i
                                        #   in Loop: Header=BB9_258 Depth=3
	testl	%eax, %eax
	jne	.LBB9_933
# BB#926:                               # %if.then.362.i
                                        #   in Loop: Header=BB9_258 Depth=3
	movzbl	1(%rbp), %eax
	addl	$-37, %eax
	cmpq	$2, %rcx
	jb	.LBB9_933
# BB#927:                               # %if.then.362.i
                                        #   in Loop: Header=BB9_258 Depth=3
	testl	%eax, %eax
	jne	.LBB9_933
# BB#928:                               # %if.then.372.i
                                        #   in Loop: Header=BB9_258 Depth=3
	movzbl	2(%rbp), %eax
	addl	$-66, %eax
	cmpq	$3, %rcx
	jb	.LBB9_933
# BB#929:                               # %if.then.372.i
                                        #   in Loop: Header=BB9_258 Depth=3
	testl	%eax, %eax
	jne	.LBB9_933
# BB#930:                               # %if.then.382.i
                                        #   in Loop: Header=BB9_258 Depth=3
	movzbl	3(%rbp), %eax
	addl	$-101, %eax
	jmp	.LBB9_933
.LBB9_895:                              # %if.then.303.i
                                        #   in Loop: Header=BB9_258 Depth=3
	movl	$700, 1296(%r13)        # imm = 0x2BC
	movl	1168(%r13), %eax
	testl	%eax, %eax
	je	.LBB9_897
# BB#896:                               # %if.then.306.i
                                        #   in Loop: Header=BB9_258 Depth=3
	movl	9556(%r13), %ecx
	addq	9560(%r13), %rcx
	movl	9584(%r13), %edx
	subq	%rdx, %rcx
	decl	%eax
	movq	1160(%r13), %rdx
	leaq	(%rax,%rax,8), %rax
	movq	%rcx, 24(%rdx,%rax,8)
	movq	%r13, %rdi
	callq	dsc_check_match
	testl	%eax, %eax
	jne	.LBB9_1619
.LBB9_897:                              # %if.end.321.i
                                        #   in Loop: Header=BB9_258 Depth=3
	movq	9576(%r13), %r12
	leaq	7(%r12), %rbp
	movl	9584(%r13), %ecx
	addl	$-7, %ecx
	movl	$256, %esi              # imm = 0x100
	leaq	176(%rsp), %rdi
	movq	%rbp, %rdx
	leaq	436(%rsp), %r8
	callq	dsc_copy_string
	movq	%rax, %rcx
	movl	$-1, %eax
	testq	%rcx, %rcx
	je	.LBB9_1616
# BB#898:                               # %if.end.i.i.629
                                        #   in Loop: Header=BB9_258 Depth=3
	movl	436(%rsp), %eax
	addq	%rax, %rbp
	movl	9584(%r13), %ecx
	addl	$-7, %ecx
	movl	%ecx, 40(%rsp)          # 4-byte Spill
	cmpl	%eax, %ecx
	jne	.LBB9_899
# BB#900:                               # %while.condthread-pre-split.i.i
                                        #   in Loop: Header=BB9_258 Depth=3
	movl	$0, 48(%rsp)            # 4-byte Folded Spill
	testl	%eax, %eax
	je	.LBB9_912
# BB#901:                               # %while.body.i.i.631.preheader
                                        #   in Loop: Header=BB9_258 Depth=3
	leaq	-1(%rax), %rdx
	addq	%rax, %r12
	xorl	%esi, %esi
.LBB9_902:                              # %while.body.i.i.631
                                        #   Parent Loop BB9_6 Depth=1
                                        #     Parent Loop BB9_189 Depth=2
                                        #       Parent Loop BB9_258 Depth=3
                                        # =>      This Inner Loop Header: Depth=4
	movq	%rsi, %rcx
	movzbl	6(%r12,%rcx), %esi
	cmpq	$32, %rsi
	ja	.LBB9_906
# BB#903:                               # %while.body.i.i.631
                                        #   in Loop: Header=BB9_902 Depth=4
	movabsq	$4294977024, %rdi       # imm = 0x100002600
	btq	%rsi, %rdi
	jae	.LBB9_906
# BB#904:                               # %if.end.25.i.i
                                        #   in Loop: Header=BB9_902 Depth=4
	leal	(%rdx,%rcx), %esi
	movl	%esi, 436(%rsp)
	leaq	-1(%rcx), %rsi
	movl	%esi, %edi
	addl	%eax, %edi
	jne	.LBB9_902
# BB#905:                               #   in Loop: Header=BB9_258 Depth=3
	leaq	6(%r12,%rcx), %rbp
	jmp	.LBB9_912
.LBB9_932:                              # %cond.false.395.i
                                        #   in Loop: Header=BB9_258 Depth=3
	movl	$.L.str.67, %esi
	movl	$14, %edx
	movq	%rbp, %rdi
	callq	strncmp
	jmp	.LBB9_933
.LBB9_509:                              # %cond.false.422.i
                                        #   in Loop: Header=BB9_258 Depth=3
	movl	$.L.str.112, %esi
	movl	$11, %edx
	movq	%r12, %rdi
	callq	strncmp
	jmp	.LBB9_510
.LBB9_899:                              #   in Loop: Header=BB9_258 Depth=3
	movl	%eax, 48(%rsp)          # 4-byte Spill
	jmp	.LBB9_912
.LBB9_931:                              # %cond.false.391.i
                                        #   in Loop: Header=BB9_258 Depth=3
	movl	$.L.str.67, %esi
	movq	%rbp, %rdi
	callq	strcmp
.LBB9_933:                              # %cond.end.397.i
                                        #   in Loop: Header=BB9_258 Depth=3
	testl	%eax, %eax
	je	.LBB9_1321
# BB#934:                               # %if.else.402.i
                                        #   in Loop: Header=BB9_258 Depth=3
	movl	$.L.str.68, %edi
	callq	strlen
	movq	%rax, %rcx
	cmpq	$14, %rcx
	ja	.LBB9_944
# BB#935:                               # %land.lhs.true.412.i
                                        #   in Loop: Header=BB9_258 Depth=3
	cmpq	$3, %rcx
	ja	.LBB9_943
# BB#936:                               # %cond.true.416.i
                                        #   in Loop: Header=BB9_258 Depth=3
	movzbl	(%rbp), %eax
	addl	$-37, %eax
	testq	%rcx, %rcx
	je	.LBB9_945
# BB#937:                               # %cond.true.416.i
                                        #   in Loop: Header=BB9_258 Depth=3
	testl	%eax, %eax
	jne	.LBB9_945
# BB#938:                               # %if.then.430.i
                                        #   in Loop: Header=BB9_258 Depth=3
	movzbl	1(%rbp), %eax
	addl	$-37, %eax
	cmpq	$2, %rcx
	jb	.LBB9_945
# BB#939:                               # %if.then.430.i
                                        #   in Loop: Header=BB9_258 Depth=3
	testl	%eax, %eax
	jne	.LBB9_945
# BB#940:                               # %if.then.440.i
                                        #   in Loop: Header=BB9_258 Depth=3
	movzbl	2(%rbp), %eax
	addl	$-66, %eax
	cmpq	$3, %rcx
	jb	.LBB9_945
# BB#941:                               # %if.then.440.i
                                        #   in Loop: Header=BB9_258 Depth=3
	testl	%eax, %eax
	jne	.LBB9_945
# BB#942:                               # %if.then.450.i
                                        #   in Loop: Header=BB9_258 Depth=3
	movzbl	3(%rbp), %eax
	addl	$-101, %eax
	jmp	.LBB9_945
.LBB9_944:                              # %cond.false.463.i
                                        #   in Loop: Header=BB9_258 Depth=3
	movl	$.L.str.68, %esi
	movl	$15, %edx
	movq	%rbp, %rdi
	callq	strncmp
	jmp	.LBB9_945
.LBB9_943:                              # %cond.false.459.i
                                        #   in Loop: Header=BB9_258 Depth=3
	movl	$.L.str.68, %esi
	movq	%rbp, %rdi
	callq	strcmp
.LBB9_945:                              # %cond.end.465.i
                                        #   in Loop: Header=BB9_258 Depth=3
	testl	%eax, %eax
	je	.LBB9_1321
# BB#946:                               # %if.else.470.i
                                        #   in Loop: Header=BB9_258 Depth=3
	movl	$.L.str.69, %edi
	callq	strlen
	movq	%rax, %rcx
	cmpq	$12, %rcx
	ja	.LBB9_956
# BB#947:                               # %land.lhs.true.480.i
                                        #   in Loop: Header=BB9_258 Depth=3
	cmpq	$3, %rcx
	ja	.LBB9_955
# BB#948:                               # %cond.true.484.i
                                        #   in Loop: Header=BB9_258 Depth=3
	movzbl	(%rbp), %eax
	addl	$-37, %eax
	testq	%rcx, %rcx
	je	.LBB9_957
# BB#949:                               # %cond.true.484.i
                                        #   in Loop: Header=BB9_258 Depth=3
	testl	%eax, %eax
	jne	.LBB9_957
# BB#950:                               # %if.then.498.i.667
                                        #   in Loop: Header=BB9_258 Depth=3
	movzbl	1(%rbp), %eax
	addl	$-37, %eax
	cmpq	$2, %rcx
	jb	.LBB9_957
# BB#951:                               # %if.then.498.i.667
                                        #   in Loop: Header=BB9_258 Depth=3
	testl	%eax, %eax
	jne	.LBB9_957
# BB#952:                               # %if.then.508.i
                                        #   in Loop: Header=BB9_258 Depth=3
	movzbl	2(%rbp), %eax
	addl	$-66, %eax
	cmpq	$3, %rcx
	jb	.LBB9_957
# BB#953:                               # %if.then.508.i
                                        #   in Loop: Header=BB9_258 Depth=3
	testl	%eax, %eax
	jne	.LBB9_957
# BB#954:                               # %if.then.518.i
                                        #   in Loop: Header=BB9_258 Depth=3
	movzbl	3(%rbp), %eax
	addl	$-101, %eax
	jmp	.LBB9_957
.LBB9_956:                              # %cond.false.531.i.670
                                        #   in Loop: Header=BB9_258 Depth=3
	movl	$.L.str.69, %esi
	movl	$13, %edx
	movq	%rbp, %rdi
	callq	strncmp
	jmp	.LBB9_957
.LBB9_955:                              # %cond.false.527.i
                                        #   in Loop: Header=BB9_258 Depth=3
	movl	$.L.str.69, %esi
	movq	%rbp, %rdi
	callq	strcmp
.LBB9_957:                              # %cond.end.533.i
                                        #   in Loop: Header=BB9_258 Depth=3
	testl	%eax, %eax
	je	.LBB9_1321
# BB#958:                               # %if.else.538.i
                                        #   in Loop: Header=BB9_258 Depth=3
	movl	$.L.str.70, %edi
	callq	strlen
	movq	%rax, %rcx
	cmpq	$11, %rcx
	ja	.LBB9_968
# BB#959:                               # %land.lhs.true.548.i
                                        #   in Loop: Header=BB9_258 Depth=3
	cmpq	$3, %rcx
	ja	.LBB9_967
# BB#960:                               # %cond.true.552.i
                                        #   in Loop: Header=BB9_258 Depth=3
	movzbl	(%rbp), %eax
	addl	$-37, %eax
	testq	%rcx, %rcx
	je	.LBB9_969
# BB#961:                               # %cond.true.552.i
                                        #   in Loop: Header=BB9_258 Depth=3
	testl	%eax, %eax
	jne	.LBB9_969
# BB#962:                               # %if.then.566.i
                                        #   in Loop: Header=BB9_258 Depth=3
	movzbl	1(%rbp), %eax
	addl	$-37, %eax
	cmpq	$2, %rcx
	jb	.LBB9_969
# BB#963:                               # %if.then.566.i
                                        #   in Loop: Header=BB9_258 Depth=3
	testl	%eax, %eax
	jne	.LBB9_969
# BB#964:                               # %if.then.576.i.678
                                        #   in Loop: Header=BB9_258 Depth=3
	movzbl	2(%rbp), %eax
	addl	$-66, %eax
	cmpq	$3, %rcx
	jb	.LBB9_969
# BB#965:                               # %if.then.576.i.678
                                        #   in Loop: Header=BB9_258 Depth=3
	testl	%eax, %eax
	jne	.LBB9_969
# BB#966:                               # %if.then.586.i.679
                                        #   in Loop: Header=BB9_258 Depth=3
	movzbl	3(%rbp), %eax
	addl	$-101, %eax
	jmp	.LBB9_969
.LBB9_968:                              # %cond.false.599.i
                                        #   in Loop: Header=BB9_258 Depth=3
	movl	$.L.str.70, %esi
	movl	$12, %edx
	movq	%rbp, %rdi
	callq	strncmp
	jmp	.LBB9_969
.LBB9_644:                              # %cond.false.140.i.401
                                        #   in Loop: Header=BB9_258 Depth=3
	movl	$.L.str.67, %esi
	movq	%r12, %rdi
	callq	strcmp
.LBB9_646:                              # %cond.end.146.i.406
                                        #   in Loop: Header=BB9_258 Depth=3
	testl	%eax, %eax
	je	.LBB9_837
# BB#647:                               # %if.else.151.i.409
                                        #   in Loop: Header=BB9_258 Depth=3
	movl	$.L.str.68, %edi
	callq	strlen
	movq	%rax, %rcx
	cmpq	$14, %rcx
	ja	.LBB9_657
# BB#648:                               # %land.lhs.true.161.i.411
                                        #   in Loop: Header=BB9_258 Depth=3
	cmpq	$3, %rcx
	ja	.LBB9_656
# BB#649:                               # %cond.true.165.i.417
                                        #   in Loop: Header=BB9_258 Depth=3
	movzbl	(%r12), %eax
	addl	$-37, %eax
	testq	%rcx, %rcx
	je	.LBB9_658
# BB#650:                               # %cond.true.165.i.417
                                        #   in Loop: Header=BB9_258 Depth=3
	testl	%eax, %eax
	jne	.LBB9_658
# BB#651:                               # %if.then.179.i.423
                                        #   in Loop: Header=BB9_258 Depth=3
	movzbl	1(%r12), %eax
	addl	$-37, %eax
	cmpq	$2, %rcx
	jb	.LBB9_658
# BB#652:                               # %if.then.179.i.423
                                        #   in Loop: Header=BB9_258 Depth=3
	testl	%eax, %eax
	jne	.LBB9_658
# BB#653:                               # %if.then.189.i.430
                                        #   in Loop: Header=BB9_258 Depth=3
	movzbl	2(%r12), %eax
	addl	$-66, %eax
	cmpq	$3, %rcx
	jb	.LBB9_658
# BB#654:                               # %if.then.189.i.430
                                        #   in Loop: Header=BB9_258 Depth=3
	testl	%eax, %eax
	jne	.LBB9_658
# BB#655:                               # %if.then.199.i.434
                                        #   in Loop: Header=BB9_258 Depth=3
	movzbl	3(%r12), %eax
	addl	$-101, %eax
	jmp	.LBB9_658
.LBB9_657:                              # %cond.false.212.i.438
                                        #   in Loop: Header=BB9_258 Depth=3
	movl	$.L.str.68, %esi
	movl	$15, %edx
	movq	%r12, %rdi
	callq	strncmp
	jmp	.LBB9_658
.LBB9_967:                              # %cond.false.595.i
                                        #   in Loop: Header=BB9_258 Depth=3
	movl	$.L.str.70, %esi
	movq	%rbp, %rdi
	callq	strcmp
.LBB9_969:                              # %cond.end.601.i
                                        #   in Loop: Header=BB9_258 Depth=3
	testl	%eax, %eax
	je	.LBB9_1321
# BB#970:                               # %if.else.606.i
                                        #   in Loop: Header=BB9_258 Depth=3
	movq	%rbp, %rdi
	callq	dsc_is_section
	testl	%eax, %eax
	je	.LBB9_1017
# BB#971:                               # %if.then.609.i
                                        #   in Loop: Header=BB9_258 Depth=3
	movl	$.L.str.72, %edi
	callq	strlen
	movq	%rax, %rcx
	cmpq	$8, %rcx
	ja	.LBB9_981
# BB#972:                               # %land.lhs.true.619.i
                                        #   in Loop: Header=BB9_258 Depth=3
	cmpq	$3, %rcx
	ja	.LBB9_980
# BB#973:                               # %cond.true.623.i
                                        #   in Loop: Header=BB9_258 Depth=3
	movzbl	(%rbp), %eax
	addl	$-37, %eax
	testq	%rcx, %rcx
	je	.LBB9_982
# BB#974:                               # %cond.true.623.i
                                        #   in Loop: Header=BB9_258 Depth=3
	testl	%eax, %eax
	jne	.LBB9_982
# BB#975:                               # %if.then.637.i.690
                                        #   in Loop: Header=BB9_258 Depth=3
	movzbl	1(%rbp), %eax
	addl	$-37, %eax
	cmpq	$2, %rcx
	jb	.LBB9_982
# BB#976:                               # %if.then.637.i.690
                                        #   in Loop: Header=BB9_258 Depth=3
	testl	%eax, %eax
	jne	.LBB9_982
# BB#977:                               # %if.then.647.i
                                        #   in Loop: Header=BB9_258 Depth=3
	movzbl	2(%rbp), %eax
	addl	$-84, %eax
	cmpq	$3, %rcx
	jb	.LBB9_982
# BB#978:                               # %if.then.647.i
                                        #   in Loop: Header=BB9_258 Depth=3
	testl	%eax, %eax
	jne	.LBB9_982
# BB#979:                               # %if.then.657.i
                                        #   in Loop: Header=BB9_258 Depth=3
	movzbl	3(%rbp), %eax
	addl	$-114, %eax
	jmp	.LBB9_982
.LBB9_981:                              # %cond.false.670.i
                                        #   in Loop: Header=BB9_258 Depth=3
	movl	$.L.str.72, %esi
	movl	$9, %edx
	movq	%rbp, %rdi
	callq	strncmp
	jmp	.LBB9_982
.LBB9_508:                              # %cond.false.418.i
                                        #   in Loop: Header=BB9_258 Depth=3
	movl	$.L.str.112, %esi
	movq	%r12, %rdi
	callq	strcmp
.LBB9_510:                              # %cond.end.424.i
                                        #   in Loop: Header=BB9_258 Depth=3
	testl	%eax, %eax
	jne	.LBB9_512
# BB#511:                               # %if.then.428.i
                                        #   in Loop: Header=BB9_258 Depth=3
	movl	$502, 1296(%r13)        # imm = 0x1F6
	movl	9556(%r13), %eax
	addq	9560(%r13), %rax
	movq	%rax, 1120(%r13)
	movl	$8, 1300(%r13)
	jmp	.LBB9_698
.LBB9_656:                              # %cond.false.208.i.436
                                        #   in Loop: Header=BB9_258 Depth=3
	movl	$.L.str.68, %esi
	movq	%r12, %rdi
	callq	strcmp
.LBB9_658:                              # %cond.end.214.i.441
                                        #   in Loop: Header=BB9_258 Depth=3
	testl	%eax, %eax
	je	.LBB9_837
# BB#659:                               # %if.else.219.i.443
                                        #   in Loop: Header=BB9_258 Depth=3
	movl	$.L.str.69, %edi
	callq	strlen
	movq	%rax, %rcx
	cmpq	$12, %rcx
	ja	.LBB9_669
# BB#660:                               # %land.lhs.true.229.i
                                        #   in Loop: Header=BB9_258 Depth=3
	cmpq	$3, %rcx
	ja	.LBB9_668
# BB#661:                               # %cond.true.233.i
                                        #   in Loop: Header=BB9_258 Depth=3
	movzbl	(%r12), %eax
	addl	$-37, %eax
	testq	%rcx, %rcx
	je	.LBB9_670
# BB#662:                               # %cond.true.233.i
                                        #   in Loop: Header=BB9_258 Depth=3
	testl	%eax, %eax
	jne	.LBB9_670
# BB#663:                               # %if.then.247.i
                                        #   in Loop: Header=BB9_258 Depth=3
	movzbl	1(%r12), %eax
	addl	$-37, %eax
	cmpq	$2, %rcx
	jb	.LBB9_670
# BB#664:                               # %if.then.247.i
                                        #   in Loop: Header=BB9_258 Depth=3
	testl	%eax, %eax
	jne	.LBB9_670
# BB#665:                               # %if.then.257.i
                                        #   in Loop: Header=BB9_258 Depth=3
	movzbl	2(%r12), %eax
	addl	$-66, %eax
	cmpq	$3, %rcx
	jb	.LBB9_670
# BB#666:                               # %if.then.257.i
                                        #   in Loop: Header=BB9_258 Depth=3
	testl	%eax, %eax
	jne	.LBB9_670
# BB#667:                               # %if.then.267.i
                                        #   in Loop: Header=BB9_258 Depth=3
	movzbl	3(%r12), %eax
	addl	$-101, %eax
	jmp	.LBB9_670
.LBB9_669:                              # %cond.false.280.i
                                        #   in Loop: Header=BB9_258 Depth=3
	movl	$.L.str.69, %esi
	movl	$13, %edx
	movq	%r12, %rdi
	callq	strncmp
	jmp	.LBB9_670
.LBB9_668:                              # %cond.false.276.i
                                        #   in Loop: Header=BB9_258 Depth=3
	movl	$.L.str.69, %esi
	movq	%r12, %rdi
	callq	strcmp
.LBB9_670:                              # %cond.end.282.i
                                        #   in Loop: Header=BB9_258 Depth=3
	testl	%eax, %eax
	je	.LBB9_837
# BB#671:                               # %if.else.287.i
                                        #   in Loop: Header=BB9_258 Depth=3
	movl	$.L.str.70, %edi
	callq	strlen
	movq	%rax, %rcx
	cmpq	$11, %rcx
	ja	.LBB9_681
# BB#672:                               # %land.lhs.true.297.i
                                        #   in Loop: Header=BB9_258 Depth=3
	cmpq	$3, %rcx
	ja	.LBB9_680
# BB#673:                               # %cond.true.301.i
                                        #   in Loop: Header=BB9_258 Depth=3
	movzbl	(%r12), %eax
	addl	$-37, %eax
	testq	%rcx, %rcx
	je	.LBB9_682
# BB#674:                               # %cond.true.301.i
                                        #   in Loop: Header=BB9_258 Depth=3
	testl	%eax, %eax
	jne	.LBB9_682
# BB#675:                               # %if.then.315.i
                                        #   in Loop: Header=BB9_258 Depth=3
	movzbl	1(%r12), %eax
	addl	$-37, %eax
	cmpq	$2, %rcx
	jb	.LBB9_682
# BB#676:                               # %if.then.315.i
                                        #   in Loop: Header=BB9_258 Depth=3
	testl	%eax, %eax
	jne	.LBB9_682
# BB#677:                               # %if.then.325.i
                                        #   in Loop: Header=BB9_258 Depth=3
	movzbl	2(%r12), %eax
	addl	$-66, %eax
	cmpq	$3, %rcx
	jb	.LBB9_682
# BB#678:                               # %if.then.325.i
                                        #   in Loop: Header=BB9_258 Depth=3
	testl	%eax, %eax
	jne	.LBB9_682
# BB#679:                               # %if.then.335.i
                                        #   in Loop: Header=BB9_258 Depth=3
	movzbl	3(%r12), %eax
	addl	$-101, %eax
	jmp	.LBB9_682
.LBB9_681:                              # %cond.false.348.i
                                        #   in Loop: Header=BB9_258 Depth=3
	movl	$.L.str.70, %esi
	movl	$12, %edx
	movq	%r12, %rdi
	callq	strncmp
	jmp	.LBB9_682
.LBB9_980:                              # %cond.false.666.i
                                        #   in Loop: Header=BB9_258 Depth=3
	movl	$.L.str.72, %esi
	movq	%rbp, %rdi
	callq	strcmp
.LBB9_982:                              # %cond.end.672.i
                                        #   in Loop: Header=BB9_258 Depth=3
	testl	%eax, %eax
	je	.LBB9_983
# BB#994:                               # %if.else.746.i
                                        #   in Loop: Header=BB9_258 Depth=3
	movl	$.L.str.73, %edi
	callq	strlen
	movq	%rax, %rcx
	cmpq	$4, %rcx
	ja	.LBB9_1004
# BB#995:                               # %land.lhs.true.756.i
                                        #   in Loop: Header=BB9_258 Depth=3
	cmpq	$3, %rcx
	ja	.LBB9_1003
# BB#996:                               # %cond.true.760.i
                                        #   in Loop: Header=BB9_258 Depth=3
	movzbl	(%rbp), %eax
	addl	$-37, %eax
	testq	%rcx, %rcx
	je	.LBB9_1005
# BB#997:                               # %cond.true.760.i
                                        #   in Loop: Header=BB9_258 Depth=3
	testl	%eax, %eax
	jne	.LBB9_1005
# BB#998:                               # %if.then.774.i
                                        #   in Loop: Header=BB9_258 Depth=3
	movzbl	1(%rbp), %eax
	addl	$-37, %eax
	cmpq	$2, %rcx
	jb	.LBB9_1005
# BB#999:                               # %if.then.774.i
                                        #   in Loop: Header=BB9_258 Depth=3
	testl	%eax, %eax
	jne	.LBB9_1005
# BB#1000:                              # %if.then.784.i
                                        #   in Loop: Header=BB9_258 Depth=3
	movzbl	2(%rbp), %eax
	addl	$-69, %eax
	cmpq	$3, %rcx
	jb	.LBB9_1005
# BB#1001:                              # %if.then.784.i
                                        #   in Loop: Header=BB9_258 Depth=3
	testl	%eax, %eax
	jne	.LBB9_1005
# BB#1002:                              # %if.then.794.i
                                        #   in Loop: Header=BB9_258 Depth=3
	movzbl	3(%rbp), %eax
	addl	$-79, %eax
	jmp	.LBB9_1005
.LBB9_983:                              # %if.then.676.i
                                        #   in Loop: Header=BB9_258 Depth=3
	movl	1168(%r13), %eax
	testl	%eax, %eax
	je	.LBB9_985
# BB#984:                               # %if.then.679.i
                                        #   in Loop: Header=BB9_258 Depth=3
	movl	9556(%r13), %ecx
	addq	9560(%r13), %rcx
	movl	9584(%r13), %edx
	subq	%rdx, %rcx
	decl	%eax
	movq	1160(%r13), %rdx
	leaq	(%rax,%rax,8), %rax
	movq	%rcx, 24(%rdx,%rax,8)
.LBB9_985:                              # %if.end.693.i
                                        #   in Loop: Header=BB9_258 Depth=3
	movq	1320(%r13), %rax
	testq	%rax, %rax
	je	.LBB9_988
# BB#986:                               # %if.then.695.i
                                        #   in Loop: Header=BB9_258 Depth=3
	movq	1304(%r13), %rcx
	movq	9560(%r13), %rdx
	movl	9556(%r13), %esi
	leaq	32768(%rdx,%rsi), %rdx
	testq	%rcx, %rcx
	je	.LBB9_987
# BB#990:                               # %land.lhs.true.709.i
                                        #   in Loop: Header=BB9_258 Depth=3
	cmpq	%rcx, %rdx
	jae	.LBB9_988
	jmp	.LBB9_991
.LBB9_1004:                             # %cond.false.807.i
                                        #   in Loop: Header=BB9_258 Depth=3
	movl	$.L.str.73, %esi
	movl	$5, %edx
	movq	%rbp, %rdi
	callq	strncmp
	jmp	.LBB9_1005
.LBB9_680:                              # %cond.false.344.i
                                        #   in Loop: Header=BB9_258 Depth=3
	movl	$.L.str.70, %esi
	movq	%r12, %rdi
	callq	strcmp
.LBB9_682:                              # %cond.end.350.i
                                        #   in Loop: Header=BB9_258 Depth=3
	testl	%eax, %eax
	je	.LBB9_837
# BB#683:                               # %if.else.355.i
                                        #   in Loop: Header=BB9_258 Depth=3
	movq	%r12, %rdi
	callq	dsc_is_section
	testl	%eax, %eax
	je	.LBB9_685
# BB#684:                               # %if.then.357.i
                                        #   in Loop: Header=BB9_258 Depth=3
	movl	9556(%r13), %eax
	movl	9584(%r13), %ecx
	addq	9560(%r13), %rax
	subq	%rcx, %rax
	movq	%rax, 1136(%r13)
	movl	$10, 1300(%r13)
	jmp	.LBB9_989
.LBB9_685:                              # %if.else.371.i.458
                                        #   in Loop: Header=BB9_258 Depth=3
	movl	$.L.str.126, %edi
	callq	strlen
	movq	%rax, %rcx
	cmpq	$9, %rcx
	ja	.LBB9_695
# BB#686:                               # %land.lhs.true.381.i
                                        #   in Loop: Header=BB9_258 Depth=3
	cmpq	$3, %rcx
	ja	.LBB9_694
# BB#687:                               # %cond.true.385.i
                                        #   in Loop: Header=BB9_258 Depth=3
	movzbl	(%r12), %eax
	addl	$-37, %eax
	testq	%rcx, %rcx
	je	.LBB9_696
# BB#688:                               # %cond.true.385.i
                                        #   in Loop: Header=BB9_258 Depth=3
	testl	%eax, %eax
	jne	.LBB9_696
# BB#689:                               # %if.then.399.i.470
                                        #   in Loop: Header=BB9_258 Depth=3
	movzbl	1(%r12), %eax
	addl	$-37, %eax
	cmpq	$2, %rcx
	jb	.LBB9_696
# BB#690:                               # %if.then.399.i.470
                                        #   in Loop: Header=BB9_258 Depth=3
	testl	%eax, %eax
	jne	.LBB9_696
# BB#691:                               # %if.then.409.i.475
                                        #   in Loop: Header=BB9_258 Depth=3
	movzbl	2(%r12), %eax
	addl	$-69, %eax
	cmpq	$3, %rcx
	jb	.LBB9_696
# BB#692:                               # %if.then.409.i.475
                                        #   in Loop: Header=BB9_258 Depth=3
	testl	%eax, %eax
	jne	.LBB9_696
# BB#693:                               # %if.then.419.i
                                        #   in Loop: Header=BB9_258 Depth=3
	movzbl	3(%r12), %eax
	addl	$-110, %eax
	jmp	.LBB9_696
.LBB9_695:                              # %cond.false.432.i
                                        #   in Loop: Header=BB9_258 Depth=3
	movl	$.L.str.126, %esi
	movl	$10, %edx
	movq	%r12, %rdi
	callq	strncmp
	jmp	.LBB9_696
.LBB9_906:                              # %while.body.29.lr.ph.i.i
                                        #   in Loop: Header=BB9_258 Depth=3
	leal	(%rax,%rcx), %ebx
	movsbq	%sil, %rax
	movq	%rax, 32(%rsp)          # 8-byte Spill
	leaq	7(%r12,%rcx), %rbp
	callq	__ctype_b_loc
	movq	(%rax), %rax
	movq	32(%rsp), %rcx          # 8-byte Reload
	testb	$8, 1(%rax,%rcx,2)
	je	.LBB9_911
# BB#907:                               # %if.end.36.i.i.preheader
                                        #   in Loop: Header=BB9_258 Depth=3
	decq	%rbp
	decl	%ebx
	movq	%rbp, %rcx
.LBB9_908:                              # %if.end.36.i.i
                                        #   Parent Loop BB9_6 Depth=1
                                        #     Parent Loop BB9_189 Depth=2
                                        #       Parent Loop BB9_258 Depth=3
                                        # =>      This Inner Loop Header: Depth=4
	movq	%rcx, %rbp
	movl	%ebx, 436(%rsp)
	testl	%ebx, %ebx
	je	.LBB9_912
# BB#909:                               # %if.end.36.i.while.body.29.i_crit_edge.i
                                        #   in Loop: Header=BB9_908 Depth=4
	leaq	-1(%rbp), %rcx
	movsbq	-1(%rbp), %rdx
	decl	%ebx
	testb	$8, 1(%rax,%rdx,2)
	jne	.LBB9_908
# BB#910:                               # %if.end.40.i.i.loopexitsplit
                                        #   in Loop: Header=BB9_258 Depth=3
	incl	%ebx
.LBB9_911:                              # %if.end.40.i.i
                                        #   in Loop: Header=BB9_258 Depth=3
	movl	%ebx, 48(%rsp)          # 4-byte Spill
.LBB9_912:                              # %if.end.40.i.i
                                        #   in Loop: Header=BB9_258 Depth=3
	movl	40(%rsp), %esi          # 4-byte Reload
	subl	48(%rsp), %esi          # 4-byte Folded Reload
	xorl	%edx, %edx
	movq	%rbp, %rdi
	callq	dsc_get_int
	movl	%eax, %ebx
	testl	%ebx, %ebx
	je	.LBB9_916
# BB#913:                               # %lor.lhs.false.47.i.i
                                        #   in Loop: Header=BB9_258 Depth=3
	leaq	176(%rsp), %rdi
	callq	strlen
	testq	%rax, %rax
	je	.LBB9_916
# BB#914:                               # %lor.lhs.false.52.i.i
                                        #   in Loop: Header=BB9_258 Depth=3
	movl	1168(%r13), %eax
	testl	%eax, %eax
	je	.LBB9_919
# BB#915:                               # %land.lhs.true.i.i.641
                                        #   in Loop: Header=BB9_258 Depth=3
	decl	%eax
	movq	1160(%r13), %rcx
	leaq	(%rax,%rax,8), %rax
	movl	(%rcx,%rax,8), %eax
	incl	%eax
	cmpl	%eax, %ebx
	je	.LBB9_919
.LBB9_916:                              # %if.then.60.i.i
                                        #   in Loop: Header=BB9_258 Depth=3
	movq	9912(%r13), %rax
	testq	%rax, %rax
	je	.LBB9_919
# BB#917:                               # %dsc_error.exit.i.i
                                        #   in Loop: Header=BB9_258 Depth=3
	movl	9584(%r13), %r8d
	movq	9576(%r13), %rcx
	movq	1288(%r13), %rdi
	movl	$4, %edx
	movq	%r13, %rsi
	callq	*%rax
	movl	%eax, %ecx
	movl	$1, %eax
	cmpl	$2, %ecx
	je	.LBB9_1616
# BB#918:                               # %dsc_error.exit.i.i
                                        #   in Loop: Header=BB9_258 Depth=3
	testl	%ecx, %ecx
	je	.LBB9_920
.LBB9_919:                              # %dsc_parse_page.exit.i
                                        #   in Loop: Header=BB9_258 Depth=3
	movslq	1168(%r13), %rbp
	movq	%r13, %rdi
	movl	%ebx, %esi
	leaq	176(%rsp), %rdx
	callq	dsc_add_page
	movl	9556(%r13), %eax
	addq	9560(%r13), %rax
	movl	9584(%r13), %ecx
	subq	%rcx, %rax
	movq	1160(%r13), %rcx
	leaq	(%rbp,%rbp,8), %rdx
	movq	%rax, 16(%rcx,%rdx,8)
	movq	%rax, 24(%rcx,%rdx,8)
	movq	8(%rcx,%rdx,8), %rcx
	cmpq	$1, %rcx
	sbbl	%eax, %eax
	testq	%rcx, %rcx
	je	.LBB9_1616
	jmp	.LBB9_920
.LBB9_1003:                             # %cond.false.803.i
                                        #   in Loop: Header=BB9_258 Depth=3
	movl	$.L.str.73, %esi
	movq	%rbp, %rdi
	callq	strcmp
.LBB9_1005:                             # %cond.end.809.i
                                        #   in Loop: Header=BB9_258 Depth=3
	testl	%eax, %eax
	jne	.LBB9_1015
# BB#1006:                              # %if.then.813.i
                                        #   in Loop: Header=BB9_258 Depth=3
	movl	1168(%r13), %eax
	testl	%eax, %eax
	je	.LBB9_1008
# BB#1007:                              # %if.then.816.i
                                        #   in Loop: Header=BB9_258 Depth=3
	movl	9556(%r13), %ecx
	addq	9560(%r13), %rcx
	movl	9584(%r13), %edx
	subq	%rdx, %rcx
	decl	%eax
	movq	1160(%r13), %rdx
	leaq	(%rax,%rax,8), %rax
	movq	%rcx, 24(%rdx,%rax,8)
.LBB9_1008:                             # %if.end.830.i
                                        #   in Loop: Header=BB9_258 Depth=3
	movq	1320(%r13), %rax
	testq	%rax, %rax
	je	.LBB9_698
# BB#1009:                              # %if.then.833.i
                                        #   in Loop: Header=BB9_258 Depth=3
	movq	1304(%r13), %rcx
	movq	9560(%r13), %rdx
	movl	9556(%r13), %esi
	leaq	100(%rdx,%rsi), %rdx
	testq	%rcx, %rcx
	je	.LBB9_1010
# BB#1011:                              # %land.lhs.true.848.i
                                        #   in Loop: Header=BB9_258 Depth=3
	cmpq	%rcx, %rdx
	jb	.LBB9_1012
	jmp	.LBB9_1321
.LBB9_1010:                             # %land.lhs.true.836.i
                                        #   in Loop: Header=BB9_258 Depth=3
	cmpq	%rax, %rdx
	jae	.LBB9_1321
.LBB9_1012:                             # %if.then.857.i.706
                                        #   in Loop: Header=BB9_258 Depth=3
	movq	9912(%r13), %rax
	testq	%rax, %rax
	je	.LBB9_1014
# BB#1013:                              # %dsc_error.exit773.i
                                        #   in Loop: Header=BB9_258 Depth=3
	movl	9584(%r13), %r8d
	movq	9576(%r13), %rcx
	movq	1288(%r13), %rdi
	movl	$2, %edx
	movq	%r13, %rsi
	callq	*%rax
	cmpl	$1, %eax
	jne	.LBB9_993
.LBB9_1014:                             # %sw.bb.863.i
                                        #   in Loop: Header=BB9_258 Depth=3
	movl	$14, 1300(%r13)
	movl	$1, 9568(%r13)
	jmp	.LBB9_989
.LBB9_694:                              # %cond.false.428.i
                                        #   in Loop: Header=BB9_258 Depth=3
	movl	$.L.str.126, %esi
	movq	%r12, %rdi
	callq	strcmp
.LBB9_696:                              # %cond.end.434.i
                                        #   in Loop: Header=BB9_258 Depth=3
	testl	%eax, %eax
	jne	.LBB9_699
# BB#697:                               # %if.then.438.i
                                        #   in Loop: Header=BB9_258 Depth=3
	movl	$602, 1296(%r13)        # imm = 0x25A
	movl	9556(%r13), %eax
	addq	9560(%r13), %rax
	movq	%rax, 1136(%r13)
	movl	$10, 1300(%r13)
.LBB9_698:                              # %if.else.875.i
                                        #   in Loop: Header=BB9_258 Depth=3
	movq	%r13, %rdi
	callq	dsc_check_match
	testl	%eax, %eax
	setne	%al
	movzbl	%al, %eax
	jmp	.LBB9_1616
.LBB9_987:                              # %land.lhs.true.697.i
                                        #   in Loop: Header=BB9_258 Depth=3
	cmpq	%rax, %rdx
	jae	.LBB9_988
.LBB9_991:                              # %if.then.718.i
                                        #   in Loop: Header=BB9_258 Depth=3
	movq	9912(%r13), %rax
	testq	%rax, %rax
	je	.LBB9_988
# BB#992:                               # %dsc_error.exit.i
                                        #   in Loop: Header=BB9_258 Depth=3
	movl	9584(%r13), %r8d
	movq	9576(%r13), %rcx
	movq	1288(%r13), %rdi
	movl	$1, %edx
	movq	%r13, %rsi
	callq	*%rax
	cmpl	$1, %eax
	jne	.LBB9_993
.LBB9_988:                              # %sw.bb.i
                                        #   in Loop: Header=BB9_258 Depth=3
	movl	$12, 1300(%r13)
.LBB9_989:                              # %do.cond
                                        #   in Loop: Header=BB9_258 Depth=3
	movq	%r13, %rdi
	callq	dsc_check_match
	testl	%eax, %eax
	sete	%al
	movzbl	%al, %eax
	leal	1(%rax,%rax,8), %eax
.LBB9_1616:                             # %do.cond
                                        #   in Loop: Header=BB9_258 Depth=3
	cmpl	$10, %eax
	je	.LBB9_258
# BB#1617:                              # %do.cond
                                        #   in Loop: Header=BB9_189 Depth=2
	xorl	%ebx, %ebx
	cmpl	$11, %eax
	je	.LBB9_1620
# BB#1618:                              # %do.cond
                                        #   in Loop: Header=BB9_189 Depth=2
	cmpl	$1, %eax
	jne	.LBB9_189
	jmp	.LBB9_1619
.LBB9_1383:                             # %if.then.211.i
                                        #   in Loop: Header=BB9_189 Depth=2
	movl	$.L.str.72, %edi
	callq	strlen
	movq	%rax, %rcx
	cmpq	$8, %rcx
	ja	.LBB9_1393
# BB#1384:                              # %land.lhs.true.221.i
                                        #   in Loop: Header=BB9_189 Depth=2
	cmpq	$3, %rcx
	ja	.LBB9_1392
# BB#1385:                              # %cond.true.225.i
                                        #   in Loop: Header=BB9_189 Depth=2
	movzbl	(%rbx), %eax
	addl	$-37, %eax
	testq	%rcx, %rcx
	je	.LBB9_1394
# BB#1386:                              # %cond.true.225.i
                                        #   in Loop: Header=BB9_189 Depth=2
	testl	%eax, %eax
	jne	.LBB9_1394
# BB#1387:                              # %if.then.239.i
                                        #   in Loop: Header=BB9_189 Depth=2
	movzbl	1(%rbx), %eax
	addl	$-37, %eax
	cmpq	$2, %rcx
	jb	.LBB9_1394
# BB#1388:                              # %if.then.239.i
                                        #   in Loop: Header=BB9_189 Depth=2
	testl	%eax, %eax
	jne	.LBB9_1394
# BB#1389:                              # %if.then.249.i
                                        #   in Loop: Header=BB9_189 Depth=2
	movzbl	2(%rbx), %eax
	addl	$-84, %eax
	cmpq	$3, %rcx
	jb	.LBB9_1394
# BB#1390:                              # %if.then.249.i
                                        #   in Loop: Header=BB9_189 Depth=2
	testl	%eax, %eax
	jne	.LBB9_1394
# BB#1391:                              # %if.then.259.i.855
                                        #   in Loop: Header=BB9_189 Depth=2
	movzbl	3(%rbx), %eax
	addl	$-114, %eax
	jmp	.LBB9_1394
.LBB9_1435:                             # %if.then.541.i
                                        #   in Loop: Header=BB9_189 Depth=2
	movl	$900, 1296(%r13)        # imm = 0x384
	jmp	.LBB9_1614
.LBB9_1448:                             # %if.then.613.i
                                        #   in Loop: Header=BB9_189 Depth=2
	movl	$800, 1296(%r13)        # imm = 0x320
	movl	9556(%r13), %eax
	movl	9584(%r13), %ecx
	addq	9560(%r13), %rax
	subq	%rcx, %rax
	movq	%rax, 1144(%r13)
	jmp	.LBB9_1614
.LBB9_1461:                             # %if.then.690.i
                                        #   in Loop: Header=BB9_189 Depth=2
	movl	$203, 1296(%r13)
	movq	%r13, %rdi
	callq	dsc_parse_pages
	jmp	.LBB9_1489
.LBB9_1474:                             # %if.then.764.i
                                        #   in Loop: Header=BB9_189 Depth=2
	movl	$209, 1296(%r13)
	testl	%ebp, %ebp
	movl	$14, %edx
	movl	$3, %eax
	cmovnel	%eax, %edx
	movq	%r13, %rdi
	movq	112(%rsp), %rsi         # 8-byte Reload
	callq	dsc_parse_bounding_box
	jmp	.LBB9_1489
.LBB9_1487:                             # %if.then.839.i
                                        #   in Loop: Header=BB9_189 Depth=2
	movl	$221, 1296(%r13)
	testl	%ebp, %ebp
	movl	$19, %edx
	movl	$3, %eax
	cmovnel	%eax, %edx
	movq	%r13, %rdi
	movq	96(%rsp), %rsi          # 8-byte Reload
	jmp	.LBB9_1488
.LBB9_1502:                             # %if.then.914.i
                                        #   in Loop: Header=BB9_189 Depth=2
	movl	$222, 1296(%r13)
	testl	%ebp, %ebp
	movl	$10, %edx
	movl	$3, %eax
	cmovnel	%eax, %edx
	movq	%r13, %rdi
	movq	88(%rsp), %rsi          # 8-byte Reload
.LBB9_1488:                             # %if.then.839.i
                                        #   in Loop: Header=BB9_189 Depth=2
	callq	dsc_parse_float_bounding_box
	jmp	.LBB9_1489
.LBB9_1515:                             # %if.then.989.i
                                        #   in Loop: Header=BB9_189 Depth=2
	movl	$210, 1296(%r13)
	testl	%ebp, %ebp
	movl	$14, %edx
	movl	$3, %eax
	cmovnel	%eax, %edx
	movq	%r13, %rdi
	movq	104(%rsp), %rsi         # 8-byte Reload
	callq	dsc_parse_orientation
	jmp	.LBB9_1489
.LBB9_1528:                             # %if.then.1064.i
                                        #   in Loop: Header=BB9_189 Depth=2
	movl	$211, 1296(%r13)
	movq	%r13, %rdi
	callq	dsc_parse_order
	jmp	.LBB9_1489
.LBB9_1541:                             # %if.then.1137.i
                                        #   in Loop: Header=BB9_189 Depth=2
	movl	$212, 1296(%r13)
	movq	%r13, %rdi
	callq	dsc_parse_document_media
.LBB9_1489:                             # %if.then.839.i
                                        #   in Loop: Header=BB9_189 Depth=2
	testl	%eax, %eax
	jne	.LBB9_189
	jmp	.LBB9_1614
.LBB9_1559:                             # %if.else.1236.i
                                        #   in Loop: Header=BB9_189 Depth=2
	movl	$.L.str.56, %edi
	callq	strlen
	movq	%rax, %rcx
	cmpq	$21, %rcx
	ja	.LBB9_1569
# BB#1560:                              # %land.lhs.true.1246.i
                                        #   in Loop: Header=BB9_189 Depth=2
	cmpq	$3, %rcx
	ja	.LBB9_1568
# BB#1561:                              # %cond.true.1250.i
                                        #   in Loop: Header=BB9_189 Depth=2
	movzbl	(%r12), %eax
	addl	$-37, %eax
	testq	%rcx, %rcx
	je	.LBB9_1570
# BB#1562:                              # %cond.true.1250.i
                                        #   in Loop: Header=BB9_189 Depth=2
	testl	%eax, %eax
	jne	.LBB9_1570
# BB#1563:                              # %if.then.1264.i
                                        #   in Loop: Header=BB9_189 Depth=2
	movzbl	1(%r12), %eax
	addl	$-37, %eax
	cmpq	$2, %rcx
	jb	.LBB9_1570
# BB#1564:                              # %if.then.1264.i
                                        #   in Loop: Header=BB9_189 Depth=2
	testl	%eax, %eax
	jne	.LBB9_1570
# BB#1565:                              # %if.then.1274.i
                                        #   in Loop: Header=BB9_189 Depth=2
	movzbl	2(%r12), %eax
	addl	$-68, %eax
	cmpq	$3, %rcx
	jb	.LBB9_1570
# BB#1566:                              # %if.then.1274.i
                                        #   in Loop: Header=BB9_189 Depth=2
	testl	%eax, %eax
	jne	.LBB9_1570
# BB#1567:                              # %if.then.1284.i
                                        #   in Loop: Header=BB9_189 Depth=2
	movzbl	3(%r12), %eax
	addl	$-111, %eax
	jmp	.LBB9_1570
.LBB9_891:                              # %if.end.219.i
                                        #   in Loop: Header=BB9_189 Depth=2
	movl	9556(%r13), %eax
	addq	9560(%r13), %rax
	movq	%rax, (%rbx)
	jmp	.LBB9_189
.LBB9_1393:                             # %cond.false.272.i
                                        #   in Loop: Header=BB9_189 Depth=2
	movl	$.L.str.72, %esi
	movl	$9, %edx
	movq	%rbx, %rdi
	callq	strncmp
	jmp	.LBB9_1394
.LBB9_294:                              # %if.else.157.i
                                        #   in Loop: Header=BB9_189 Depth=2
	movl	$.L.str.105, %edi
	callq	strlen
	movq	%rax, %rcx
	cmpq	$11, %rcx
	ja	.LBB9_304
# BB#295:                               # %land.lhs.true.167.i
                                        #   in Loop: Header=BB9_189 Depth=2
	cmpq	$3, %rcx
	ja	.LBB9_303
# BB#296:                               # %cond.true.171.i
                                        #   in Loop: Header=BB9_189 Depth=2
	movzbl	(%rbx), %eax
	addl	$-37, %eax
	testq	%rcx, %rcx
	je	.LBB9_305
# BB#297:                               # %cond.true.171.i
                                        #   in Loop: Header=BB9_189 Depth=2
	testl	%eax, %eax
	jne	.LBB9_305
# BB#298:                               # %if.then.185.i
                                        #   in Loop: Header=BB9_189 Depth=2
	movzbl	1(%rbx), %eax
	addl	$-37, %eax
	cmpq	$2, %rcx
	jb	.LBB9_305
# BB#299:                               # %if.then.185.i
                                        #   in Loop: Header=BB9_189 Depth=2
	testl	%eax, %eax
	jne	.LBB9_305
# BB#300:                               # %if.then.195.i
                                        #   in Loop: Header=BB9_189 Depth=2
	movzbl	2(%rbx), %eax
	addl	$-69, %eax
	cmpq	$3, %rcx
	jb	.LBB9_305
# BB#301:                               # %if.then.195.i
                                        #   in Loop: Header=BB9_189 Depth=2
	testl	%eax, %eax
	jne	.LBB9_305
# BB#302:                               # %if.then.205.i
                                        #   in Loop: Header=BB9_189 Depth=2
	movzbl	3(%rbx), %eax
	addl	$-110, %eax
	jmp	.LBB9_305
.LBB9_634:                              # %if.then.60.i.375
                                        #   in Loop: Header=BB9_189 Depth=2
	movl	$601, 1296(%r13)        # imm = 0x259
	movl	9556(%r13), %eax
	movl	9584(%r13), %ecx
	addq	9560(%r13), %rax
	movq	%rax, %rdx
	subq	%rcx, %rdx
	movq	%rdx, 1128(%r13)
	movq	%rax, 1136(%r13)
	movl	$9, 1300(%r13)
	jmp	.LBB9_189
.LBB9_354:                              # %if.else.231.i
                                        #   in Loop: Header=BB9_189 Depth=2
	movl	$.L.str.106, %edi
	callq	strlen
	movq	%rax, %rcx
	cmpq	$12, %rcx
	ja	.LBB9_364
# BB#355:                               # %land.lhs.true.241.i
                                        #   in Loop: Header=BB9_189 Depth=2
	cmpq	$3, %rcx
	ja	.LBB9_363
# BB#356:                               # %cond.true.245.i
                                        #   in Loop: Header=BB9_189 Depth=2
	movzbl	(%rbp), %eax
	addl	$-37, %eax
	testq	%rcx, %rcx
	je	.LBB9_365
# BB#357:                               # %cond.true.245.i
                                        #   in Loop: Header=BB9_189 Depth=2
	testl	%eax, %eax
	jne	.LBB9_365
# BB#358:                               # %if.then.259.i
                                        #   in Loop: Header=BB9_189 Depth=2
	movzbl	1(%rbp), %eax
	addl	$-37, %eax
	cmpq	$2, %rcx
	jb	.LBB9_365
# BB#359:                               # %if.then.259.i
                                        #   in Loop: Header=BB9_189 Depth=2
	testl	%eax, %eax
	jne	.LBB9_365
# BB#360:                               # %if.then.269.i
                                        #   in Loop: Header=BB9_189 Depth=2
	movzbl	2(%rbp), %eax
	addl	$-69, %eax
	cmpq	$3, %rcx
	jb	.LBB9_365
# BB#361:                               # %if.then.269.i
                                        #   in Loop: Header=BB9_189 Depth=2
	testl	%eax, %eax
	jne	.LBB9_365
# BB#362:                               # %if.then.279.i
                                        #   in Loop: Header=BB9_189 Depth=2
	movzbl	3(%rbp), %eax
	addl	$-110, %eax
	jmp	.LBB9_365
.LBB9_1569:                             # %cond.false.1297.i
                                        #   in Loop: Header=BB9_189 Depth=2
	movl	$.L.str.56, %esi
	movl	$22, %edx
	movq	%r12, %rdi
	callq	strncmp
	jmp	.LBB9_1570
.LBB9_1556:                             # %dsc_error.exit.i.958
                                        #   in Loop: Header=BB9_189 Depth=2
	cmpl	$2, %eax
	jne	.LBB9_1614
	jmp	.LBB9_1619
.LBB9_1392:                             # %cond.false.268.i
                                        #   in Loop: Header=BB9_189 Depth=2
	movl	$.L.str.72, %esi
	movq	%rbx, %rdi
	callq	strcmp
.LBB9_1394:                             # %cond.end.274.i
                                        #   in Loop: Header=BB9_189 Depth=2
	testl	%eax, %eax
	je	.LBB9_1395
# BB#1397:                              # %if.else.i.858
                                        #   in Loop: Header=BB9_189 Depth=2
	movl	$.L.str.73, %edi
	callq	strlen
	movq	%rax, %rcx
	cmpq	$4, %rcx
	ja	.LBB9_1407
# BB#1398:                              # %land.lhs.true.302.i
                                        #   in Loop: Header=BB9_189 Depth=2
	cmpq	$3, %rcx
	ja	.LBB9_1406
# BB#1399:                              # %cond.true.306.i
                                        #   in Loop: Header=BB9_189 Depth=2
	movzbl	(%rbx), %eax
	addl	$-37, %eax
	testq	%rcx, %rcx
	je	.LBB9_1408
# BB#1400:                              # %cond.true.306.i
                                        #   in Loop: Header=BB9_189 Depth=2
	testl	%eax, %eax
	jne	.LBB9_1408
# BB#1401:                              # %if.then.320.i
                                        #   in Loop: Header=BB9_189 Depth=2
	movzbl	1(%rbx), %eax
	addl	$-37, %eax
	cmpq	$2, %rcx
	jb	.LBB9_1408
# BB#1402:                              # %if.then.320.i
                                        #   in Loop: Header=BB9_189 Depth=2
	testl	%eax, %eax
	jne	.LBB9_1408
# BB#1403:                              # %if.then.330.i.865
                                        #   in Loop: Header=BB9_189 Depth=2
	movzbl	2(%rbx), %eax
	addl	$-69, %eax
	cmpq	$3, %rcx
	jb	.LBB9_1408
# BB#1404:                              # %if.then.330.i.865
                                        #   in Loop: Header=BB9_189 Depth=2
	testl	%eax, %eax
	jne	.LBB9_1408
# BB#1405:                              # %if.then.340.i
                                        #   in Loop: Header=BB9_189 Depth=2
	movzbl	3(%rbx), %eax
	addl	$-79, %eax
	jmp	.LBB9_1408
.LBB9_1395:                             # %if.then.278.i
                                        #   in Loop: Header=BB9_189 Depth=2
	movl	$800, 1296(%r13)        # imm = 0x320
	jmp	.LBB9_1396
.LBB9_1407:                             # %cond.false.353.i
                                        #   in Loop: Header=BB9_189 Depth=2
	movl	$.L.str.73, %esi
	movl	$5, %edx
	movq	%rbx, %rdi
	callq	strncmp
	jmp	.LBB9_1408
.LBB9_277:                              # %if.then.60.i
                                        #   in Loop: Header=BB9_189 Depth=2
	movl	$301, 1296(%r13)        # imm = 0x12D
	movl	9556(%r13), %eax
	movl	9584(%r13), %ecx
	addq	9560(%r13), %rax
	movq	%rax, %rdx
	subq	%rcx, %rdx
	movq	%rdx, 1080(%r13)
	movq	%rax, 1088(%r13)
	movl	$3, 1300(%r13)
	cmpl	$0, 1044(%r13)
	jne	.LBB9_189
# BB#278:                               # %if.then.72.i
                                        #   in Loop: Header=BB9_189 Depth=2
	movl	$1, 1044(%r13)
	jmp	.LBB9_189
.LBB9_327:                              # %if.then.60.i.231
                                        #   in Loop: Header=BB9_189 Depth=2
	movl	$401, 1296(%r13)        # imm = 0x191
	movl	9556(%r13), %eax
	movl	9584(%r13), %ecx
	addq	9560(%r13), %rax
	movq	%rax, %rdx
	subq	%rcx, %rdx
	movq	%rdx, 1096(%r13)
	movq	%rax, 1104(%r13)
	movl	$5, 1300(%r13)
	jmp	.LBB9_189
.LBB9_304:                              # %cond.false.218.i
                                        #   in Loop: Header=BB9_189 Depth=2
	movl	$.L.str.105, %esi
	movl	$12, %edx
	movq	%rbx, %rdi
	callq	strncmp
	jmp	.LBB9_305
.LBB9_1362:                             # %if.then.120.i
                                        #   in Loop: Header=BB9_189 Depth=2
	movl	$1, 1024(%r13)
	movl	9556(%r13), %eax
	movl	9584(%r13), %ecx
	addq	9560(%r13), %rax
	subq	%rcx, %rax
	movq	%rax, 1064(%r13)
	cmpq	$0, 1048(%r13)
	je	.LBB9_189
# BB#1363:                              # %if.end.130.i
                                        #   in Loop: Header=BB9_189 Depth=2
	movq	9576(%r13), %rbx
	addq	$14, %rbx
	jmp	.LBB9_1364
.LBB9_1366:                             # %while.body.i.821
                                        #   in Loop: Header=BB9_1364 Depth=3
	incq	%rbx
.LBB9_1364:                             # %while.cond.i
                                        #   Parent Loop BB9_6 Depth=1
                                        #     Parent Loop BB9_189 Depth=2
                                        # =>    This Inner Loop Header: Depth=3
	movzbl	(%rbx), %ebp
	cmpl	$32, %ebp
	je	.LBB9_1366
# BB#1365:                              # %while.cond.i
                                        #   in Loop: Header=BB9_1364 Depth=3
	movzbl	%bpl, %eax
	cmpl	$9, %eax
	je	.LBB9_1366
# BB#1367:                              # %while.end.i.822
                                        #   in Loop: Header=BB9_189 Depth=2
	movl	$.L.str.29, %edi
	callq	strlen
	cmpq	$4, %rax
	ja	.LBB9_1377
# BB#1368:                              # %land.lhs.true.147.i
                                        #   in Loop: Header=BB9_189 Depth=2
	cmpq	$3, %rax
	ja	.LBB9_1376
# BB#1369:                              # %cond.true.151.i
                                        #   in Loop: Header=BB9_189 Depth=2
	addl	$-69, %ebp
	jne	.LBB9_1379
# BB#1370:                              # %cond.true.151.i
                                        #   in Loop: Header=BB9_189 Depth=2
	testq	%rax, %rax
	je	.LBB9_1379
# BB#1371:                              # %if.then.165.i
                                        #   in Loop: Header=BB9_189 Depth=2
	movzbl	1(%rbx), %ebp
	addl	$-80, %ebp
	cmpq	$2, %rax
	jb	.LBB9_1379
# BB#1372:                              # %if.then.165.i
                                        #   in Loop: Header=BB9_189 Depth=2
	testl	%ebp, %ebp
	jne	.LBB9_1379
# BB#1373:                              # %if.then.175.i
                                        #   in Loop: Header=BB9_189 Depth=2
	movzbl	2(%rbx), %ebp
	addl	$-83, %ebp
	cmpq	$3, %rax
	jb	.LBB9_1379
# BB#1374:                              # %if.then.175.i
                                        #   in Loop: Header=BB9_189 Depth=2
	testl	%ebp, %ebp
	jne	.LBB9_1379
# BB#1375:                              # %if.then.185.i.837
                                        #   in Loop: Header=BB9_189 Depth=2
	movzbl	3(%rbx), %ebp
	addl	$-70, %ebp
	jmp	.LBB9_1379
.LBB9_364:                              # %cond.false.292.i
                                        #   in Loop: Header=BB9_189 Depth=2
	movl	$.L.str.106, %esi
	movl	$13, %edx
	movq	%rbp, %rdi
	callq	strncmp
	jmp	.LBB9_365
.LBB9_1568:                             # %cond.false.1293.i
                                        #   in Loop: Header=BB9_189 Depth=2
	movl	$.L.str.56, %esi
	movq	%r12, %rdi
	callq	strcmp
.LBB9_1570:                             # %cond.end.1299.i
                                        #   in Loop: Header=BB9_189 Depth=2
	testl	%eax, %eax
	je	.LBB9_1571
# BB#1572:                              # %if.else.1305.i
                                        #   in Loop: Header=BB9_189 Depth=2
	movl	$.L.str.57, %edi
	callq	strlen
	movq	%rax, %rcx
	cmpq	$23, %rcx
	ja	.LBB9_1582
# BB#1573:                              # %land.lhs.true.1315.i
                                        #   in Loop: Header=BB9_189 Depth=2
	cmpq	$3, %rcx
	ja	.LBB9_1581
# BB#1574:                              # %cond.true.1319.i
                                        #   in Loop: Header=BB9_189 Depth=2
	movzbl	(%r12), %eax
	addl	$-37, %eax
	testq	%rcx, %rcx
	je	.LBB9_1583
# BB#1575:                              # %cond.true.1319.i
                                        #   in Loop: Header=BB9_189 Depth=2
	testl	%eax, %eax
	jne	.LBB9_1583
# BB#1576:                              # %if.then.1333.i
                                        #   in Loop: Header=BB9_189 Depth=2
	movzbl	1(%r12), %eax
	addl	$-37, %eax
	cmpq	$2, %rcx
	jb	.LBB9_1583
# BB#1577:                              # %if.then.1333.i
                                        #   in Loop: Header=BB9_189 Depth=2
	testl	%eax, %eax
	jne	.LBB9_1583
# BB#1578:                              # %if.then.1343.i
                                        #   in Loop: Header=BB9_189 Depth=2
	movzbl	2(%r12), %eax
	addl	$-68, %eax
	cmpq	$3, %rcx
	jb	.LBB9_1583
# BB#1579:                              # %if.then.1343.i
                                        #   in Loop: Header=BB9_189 Depth=2
	testl	%eax, %eax
	jne	.LBB9_1583
# BB#1580:                              # %if.then.1353.i
                                        #   in Loop: Header=BB9_189 Depth=2
	movzbl	3(%r12), %eax
	addl	$-111, %eax
	jmp	.LBB9_1583
.LBB9_1571:                             # %if.then.1303.i
                                        #   in Loop: Header=BB9_189 Depth=2
	movl	$219, 1296(%r13)
	jmp	.LBB9_1614
.LBB9_1582:                             # %cond.false.1366.i
                                        #   in Loop: Header=BB9_189 Depth=2
	movl	$.L.str.57, %esi
	movl	$24, %edx
	movq	%r12, %rdi
	callq	strncmp
	jmp	.LBB9_1583
.LBB9_1406:                             # %cond.false.349.i
                                        #   in Loop: Header=BB9_189 Depth=2
	movl	$.L.str.73, %esi
	movq	%rbx, %rdi
	callq	strcmp
.LBB9_1408:                             # %cond.end.355.i
                                        #   in Loop: Header=BB9_189 Depth=2
	testl	%eax, %eax
	je	.LBB9_1409
# BB#1410:                              # %if.else.375.i
                                        #   in Loop: Header=BB9_189 Depth=2
	cmpq	$0, 1128(%r13)
	jne	.LBB9_837
# BB#1411:                              # %if.else.382.i
                                        #   in Loop: Header=BB9_189 Depth=2
	cmpq	$0, 1112(%r13)
	jne	.LBB9_617
	jmp	.LBB9_189
.LBB9_1409:                             # %if.then.359.i
                                        #   in Loop: Header=BB9_189 Depth=2
	movl	$900, 1296(%r13)        # imm = 0x384
.LBB9_1396:                             # %while.cond.backedge
                                        #   in Loop: Header=BB9_189 Depth=2
	movl	9556(%r13), %eax
	movl	9584(%r13), %ecx
	addq	9560(%r13), %rax
	movq	%rax, %rdx
	subq	%rcx, %rdx
	movq	%rdx, 1144(%r13)
	movq	%rax, 1152(%r13)
	movl	$13, 1300(%r13)
	jmp	.LBB9_189
.LBB9_303:                              # %cond.false.214.i
                                        #   in Loop: Header=BB9_189 Depth=2
	movl	$.L.str.105, %esi
	movq	%rbx, %rdi
	callq	strcmp
.LBB9_305:                              # %cond.end.220.i
                                        #   in Loop: Header=BB9_189 Depth=2
	testl	%eax, %eax
	je	.LBB9_306
# BB#307:                               # %if.else.232.i
                                        #   in Loop: Header=BB9_189 Depth=2
	movzbl	(%rbx), %eax
	cmpl	$37, %eax
	jne	.LBB9_309
# BB#308:                               # %land.lhs.true.237.i
                                        #   in Loop: Header=BB9_189 Depth=2
	movzbl	1(%rbx), %eax
	cmpl	$37, %eax
	jne	.LBB9_310
.LBB9_309:                              # %if.else.243.i
                                        #   in Loop: Header=BB9_189 Depth=2
	movl	$100, 1296(%r13)
	movq	%r13, %rdi
	callq	dsc_unknown
.LBB9_310:                              # %if.end.248.i
                                        #   in Loop: Header=BB9_189 Depth=2
	movl	9556(%r13), %eax
	addq	9560(%r13), %rax
	movq	%rax, 1088(%r13)
	jmp	.LBB9_189
.LBB9_306:                              # %if.then.224.i
                                        #   in Loop: Header=BB9_189 Depth=2
	movl	$302, 1296(%r13)        # imm = 0x12E
	movl	9556(%r13), %eax
	addq	9560(%r13), %rax
	movq	%rax, 1088(%r13)
	movl	$4, 1300(%r13)
	jmp	.LBB9_189
.LBB9_363:                              # %cond.false.288.i
                                        #   in Loop: Header=BB9_189 Depth=2
	movl	$.L.str.106, %esi
	movq	%rbp, %rdi
	callq	strcmp
.LBB9_365:                              # %cond.end.294.i
                                        #   in Loop: Header=BB9_189 Depth=2
	testl	%eax, %eax
	je	.LBB9_366
# BB#367:                               # %if.else.306.i
                                        #   in Loop: Header=BB9_189 Depth=2
	movl	$.L.str.107, %edi
	callq	strlen
	movq	%rax, %rcx
	cmpq	$11, %rcx
	ja	.LBB9_377
# BB#368:                               # %land.lhs.true.316.i
                                        #   in Loop: Header=BB9_189 Depth=2
	cmpq	$3, %rcx
	ja	.LBB9_376
# BB#369:                               # %cond.true.320.i
                                        #   in Loop: Header=BB9_189 Depth=2
	movzbl	(%rbp), %eax
	addl	$-37, %eax
	testq	%rcx, %rcx
	je	.LBB9_378
# BB#370:                               # %cond.true.320.i
                                        #   in Loop: Header=BB9_189 Depth=2
	testl	%eax, %eax
	jne	.LBB9_378
# BB#371:                               # %if.then.334.i
                                        #   in Loop: Header=BB9_189 Depth=2
	movzbl	1(%rbp), %eax
	addl	$-37, %eax
	cmpq	$2, %rcx
	jb	.LBB9_378
# BB#372:                               # %if.then.334.i
                                        #   in Loop: Header=BB9_189 Depth=2
	testl	%eax, %eax
	jne	.LBB9_378
# BB#373:                               # %if.then.344.i
                                        #   in Loop: Header=BB9_189 Depth=2
	movzbl	2(%rbp), %eax
	addl	$-80, %eax
	cmpq	$3, %rcx
	jb	.LBB9_378
# BB#374:                               # %if.then.344.i
                                        #   in Loop: Header=BB9_189 Depth=2
	testl	%eax, %eax
	jne	.LBB9_378
# BB#375:                               # %if.then.354.i
                                        #   in Loop: Header=BB9_189 Depth=2
	movzbl	3(%rbp), %eax
	addl	$-97, %eax
	jmp	.LBB9_378
.LBB9_366:                              # %if.then.298.i
                                        #   in Loop: Header=BB9_189 Depth=2
	movl	$402, 1296(%r13)        # imm = 0x192
	movl	9556(%r13), %eax
	addq	9560(%r13), %rax
	movq	%rax, 1104(%r13)
	movl	$6, 1300(%r13)
	jmp	.LBB9_189
.LBB9_377:                              # %cond.false.367.i
                                        #   in Loop: Header=BB9_189 Depth=2
	movl	$.L.str.107, %esi
	movl	$12, %edx
	movq	%rbp, %rdi
	callq	strncmp
	jmp	.LBB9_378
.LBB9_1581:                             # %cond.false.1362.i
                                        #   in Loop: Header=BB9_189 Depth=2
	movl	$.L.str.57, %esi
	movq	%r12, %rdi
	callq	strcmp
.LBB9_1583:                             # %cond.end.1368.i
                                        #   in Loop: Header=BB9_189 Depth=2
	testl	%eax, %eax
	je	.LBB9_1584
# BB#1585:                              # %if.else.1374.i
                                        #   in Loop: Header=BB9_189 Depth=2
	movl	$.L.str.63, %edi
	callq	strlen
	movq	%rax, %rcx
	cmpq	$23, %rcx
	ja	.LBB9_1595
# BB#1586:                              # %land.lhs.true.1384.i
                                        #   in Loop: Header=BB9_189 Depth=2
	cmpq	$3, %rcx
	ja	.LBB9_1594
# BB#1587:                              # %cond.true.1388.i
                                        #   in Loop: Header=BB9_189 Depth=2
	movzbl	(%r12), %eax
	addl	$-37, %eax
	testq	%rcx, %rcx
	je	.LBB9_1596
# BB#1588:                              # %cond.true.1388.i
                                        #   in Loop: Header=BB9_189 Depth=2
	testl	%eax, %eax
	jne	.LBB9_1596
# BB#1589:                              # %if.then.1402.i
                                        #   in Loop: Header=BB9_189 Depth=2
	movzbl	1(%r12), %eax
	addl	$-37, %eax
	cmpq	$2, %rcx
	jb	.LBB9_1596
# BB#1590:                              # %if.then.1402.i
                                        #   in Loop: Header=BB9_189 Depth=2
	testl	%eax, %eax
	jne	.LBB9_1596
# BB#1591:                              # %if.then.1412.i
                                        #   in Loop: Header=BB9_189 Depth=2
	movzbl	2(%r12), %eax
	addl	$-68, %eax
	cmpq	$3, %rcx
	jb	.LBB9_1596
# BB#1592:                              # %if.then.1412.i
                                        #   in Loop: Header=BB9_189 Depth=2
	testl	%eax, %eax
	jne	.LBB9_1596
# BB#1593:                              # %if.then.1422.i
                                        #   in Loop: Header=BB9_189 Depth=2
	movzbl	3(%r12), %eax
	addl	$-111, %eax
	jmp	.LBB9_1596
.LBB9_1584:                             # %if.then.1372.i
                                        #   in Loop: Header=BB9_189 Depth=2
	movl	$220, 1296(%r13)
	jmp	.LBB9_1614
.LBB9_1595:                             # %cond.false.1435.i
                                        #   in Loop: Header=BB9_189 Depth=2
	movl	$.L.str.63, %esi
	movl	$24, %edx
	movq	%r12, %rdi
	callq	strncmp
	jmp	.LBB9_1596
.LBB9_1377:                             # %cond.false.198.i
                                        #   in Loop: Header=BB9_189 Depth=2
	movl	$.L.str.29, %esi
	movl	$5, %edx
	movq	%rbx, %rdi
	callq	strncmp
	jmp	.LBB9_1378
.LBB9_376:                              # %cond.false.363.i
                                        #   in Loop: Header=BB9_189 Depth=2
	movl	$.L.str.107, %esi
	movq	%rbp, %rdi
	callq	strcmp
.LBB9_378:                              # %cond.end.369.i
                                        #   in Loop: Header=BB9_189 Depth=2
	testl	%eax, %eax
	je	.LBB9_379
# BB#380:                               # %if.else.376.i
                                        #   in Loop: Header=BB9_189 Depth=2
	movl	$.L.str.108, %edi
	callq	strlen
	movq	%rax, %rcx
	cmpq	$17, %rcx
	ja	.LBB9_390
# BB#381:                               # %land.lhs.true.386.i
                                        #   in Loop: Header=BB9_189 Depth=2
	cmpq	$3, %rcx
	ja	.LBB9_389
# BB#382:                               # %cond.true.390.i
                                        #   in Loop: Header=BB9_189 Depth=2
	movzbl	(%rbp), %eax
	addl	$-37, %eax
	testq	%rcx, %rcx
	je	.LBB9_391
# BB#383:                               # %cond.true.390.i
                                        #   in Loop: Header=BB9_189 Depth=2
	testl	%eax, %eax
	jne	.LBB9_391
# BB#384:                               # %if.then.404.i
                                        #   in Loop: Header=BB9_189 Depth=2
	movzbl	1(%rbp), %eax
	addl	$-37, %eax
	cmpq	$2, %rcx
	jb	.LBB9_391
# BB#385:                               # %if.then.404.i
                                        #   in Loop: Header=BB9_189 Depth=2
	testl	%eax, %eax
	jne	.LBB9_391
# BB#386:                               # %if.then.414.i
                                        #   in Loop: Header=BB9_189 Depth=2
	movzbl	2(%rbp), %eax
	addl	$-80, %eax
	cmpq	$3, %rcx
	jb	.LBB9_391
# BB#387:                               # %if.then.414.i
                                        #   in Loop: Header=BB9_189 Depth=2
	testl	%eax, %eax
	jne	.LBB9_391
# BB#388:                               # %if.then.424.i
                                        #   in Loop: Header=BB9_189 Depth=2
	movzbl	3(%rbp), %eax
	addl	$-97, %eax
	jmp	.LBB9_391
.LBB9_379:                              # %if.then.373.i
                                        #   in Loop: Header=BB9_189 Depth=2
	movl	$704, 1296(%r13)        # imm = 0x2C0
	movq	%r13, %rdi
	movq	72(%rsp), %rsi          # 8-byte Reload
	callq	dsc_parse_media
	jmp	.LBB9_434
.LBB9_390:                              # %cond.false.437.i
                                        #   in Loop: Header=BB9_189 Depth=2
	movl	$.L.str.108, %esi
	movl	$18, %edx
	movq	%rbp, %rdi
	callq	strncmp
	jmp	.LBB9_391
.LBB9_1594:                             # %cond.false.1431.i
                                        #   in Loop: Header=BB9_189 Depth=2
	movl	$.L.str.63, %esi
	movq	%r12, %rdi
	callq	strcmp
.LBB9_1596:                             # %cond.end.1437.i
                                        #   in Loop: Header=BB9_189 Depth=2
	testl	%eax, %eax
	je	.LBB9_1597
# BB#1599:                              # %if.else.1449.i
                                        #   in Loop: Header=BB9_189 Depth=2
	movl	$.L.str.64, %edi
	callq	strlen
	movq	%rax, %rcx
	cmpq	$22, %rcx
	ja	.LBB9_1609
# BB#1600:                              # %land.lhs.true.1459.i
                                        #   in Loop: Header=BB9_189 Depth=2
	cmpq	$3, %rcx
	ja	.LBB9_1608
# BB#1601:                              # %cond.true.1463.i
                                        #   in Loop: Header=BB9_189 Depth=2
	movzbl	(%r12), %eax
	addl	$-37, %eax
	testq	%rcx, %rcx
	je	.LBB9_1610
# BB#1602:                              # %cond.true.1463.i
                                        #   in Loop: Header=BB9_189 Depth=2
	testl	%eax, %eax
	jne	.LBB9_1610
# BB#1603:                              # %if.then.1477.i
                                        #   in Loop: Header=BB9_189 Depth=2
	movzbl	1(%r12), %eax
	addl	$-37, %eax
	cmpq	$2, %rcx
	jb	.LBB9_1610
# BB#1604:                              # %if.then.1477.i
                                        #   in Loop: Header=BB9_189 Depth=2
	testl	%eax, %eax
	jne	.LBB9_1610
# BB#1605:                              # %if.then.1487.i
                                        #   in Loop: Header=BB9_189 Depth=2
	movzbl	2(%r12), %eax
	addl	$-68, %eax
	cmpq	$3, %rcx
	jb	.LBB9_1610
# BB#1606:                              # %if.then.1487.i
                                        #   in Loop: Header=BB9_189 Depth=2
	testl	%eax, %eax
	jne	.LBB9_1610
# BB#1607:                              # %if.then.1497.i
                                        #   in Loop: Header=BB9_189 Depth=2
	movzbl	3(%r12), %eax
	addl	$-111, %eax
	jmp	.LBB9_1610
.LBB9_1597:                             # %if.then.1441.i
                                        #   in Loop: Header=BB9_189 Depth=2
	movl	$224, 1296(%r13)
	movq	%r13, %rdi
	callq	dsc_parse_process_colours
	testl	%eax, %eax
	je	.LBB9_1614
# BB#1598:                              # %if.then.1446.i
                                        #   in Loop: Header=BB9_189 Depth=2
	movl	$100, 1296(%r13)
	jmp	.LBB9_1614
.LBB9_1609:                             # %cond.false.1510.i
                                        #   in Loop: Header=BB9_189 Depth=2
	movl	$.L.str.64, %esi
	movl	$23, %edx
	movq	%r12, %rdi
	callq	strncmp
	jmp	.LBB9_1610
.LBB9_389:                              # %cond.false.433.i
                                        #   in Loop: Header=BB9_189 Depth=2
	movl	$.L.str.108, %esi
	movq	%rbp, %rdi
	callq	strcmp
.LBB9_391:                              # %cond.end.439.i
                                        #   in Loop: Header=BB9_189 Depth=2
	testl	%eax, %eax
	je	.LBB9_392
# BB#393:                               # %if.else.449.i
                                        #   in Loop: Header=BB9_189 Depth=2
	movl	$.L.str.109, %edi
	callq	strlen
	movq	%rax, %rcx
	cmpq	$17, %rcx
	ja	.LBB9_403
# BB#394:                               # %land.lhs.true.459.i
                                        #   in Loop: Header=BB9_189 Depth=2
	cmpq	$3, %rcx
	ja	.LBB9_402
# BB#395:                               # %cond.true.463.i
                                        #   in Loop: Header=BB9_189 Depth=2
	movzbl	(%rbp), %eax
	addl	$-37, %eax
	testq	%rcx, %rcx
	je	.LBB9_404
# BB#396:                               # %cond.true.463.i
                                        #   in Loop: Header=BB9_189 Depth=2
	testl	%eax, %eax
	jne	.LBB9_404
# BB#397:                               # %if.then.477.i
                                        #   in Loop: Header=BB9_189 Depth=2
	movzbl	1(%rbp), %eax
	addl	$-37, %eax
	cmpq	$2, %rcx
	jb	.LBB9_404
# BB#398:                               # %if.then.477.i
                                        #   in Loop: Header=BB9_189 Depth=2
	testl	%eax, %eax
	jne	.LBB9_404
# BB#399:                               # %if.then.487.i
                                        #   in Loop: Header=BB9_189 Depth=2
	movzbl	2(%rbp), %eax
	addl	$-80, %eax
	cmpq	$3, %rcx
	jb	.LBB9_404
# BB#400:                               # %if.then.487.i
                                        #   in Loop: Header=BB9_189 Depth=2
	testl	%eax, %eax
	jne	.LBB9_404
# BB#401:                               # %if.then.497.i.259
                                        #   in Loop: Header=BB9_189 Depth=2
	movzbl	3(%rbp), %eax
	addl	$-97, %eax
	jmp	.LBB9_404
.LBB9_392:                              # %if.then.443.i
                                        #   in Loop: Header=BB9_189 Depth=2
	movl	$705, 1296(%r13)        # imm = 0x2C1
	movl	$18, %edx
	movq	%r13, %rdi
	movq	104(%rsp), %rsi         # 8-byte Reload
	callq	dsc_parse_orientation
	jmp	.LBB9_419
.LBB9_403:                              # %cond.false.510.i
                                        #   in Loop: Header=BB9_189 Depth=2
	movl	$.L.str.109, %esi
	movl	$18, %edx
	movq	%rbp, %rdi
	callq	strncmp
	jmp	.LBB9_404
.LBB9_1608:                             # %cond.false.1506.i
                                        #   in Loop: Header=BB9_189 Depth=2
	movl	$.L.str.64, %esi
	movq	%r12, %rdi
	callq	strcmp
.LBB9_1610:                             # %cond.end.1512.i
                                        #   in Loop: Header=BB9_189 Depth=2
	testl	%eax, %eax
	je	.LBB9_1611
# BB#1613:                              # %if.else.1524.i
                                        #   in Loop: Header=BB9_189 Depth=2
	movl	$100, 1296(%r13)
	movq	%r13, %rdi
	callq	dsc_unknown
	jmp	.LBB9_1614
.LBB9_1611:                             # %if.then.1516.i
                                        #   in Loop: Header=BB9_189 Depth=2
	movl	$225, 1296(%r13)
	movq	%r13, %rdi
	callq	dsc_parse_custom_colours
	testl	%eax, %eax
	je	.LBB9_1614
# BB#1612:                              # %if.then.1521.i
                                        #   in Loop: Header=BB9_189 Depth=2
	movl	$100, 1296(%r13)
	jmp	.LBB9_1614
.LBB9_1376:                             # %cond.false.194.i
                                        #   in Loop: Header=BB9_189 Depth=2
	movl	$.L.str.29, %esi
	movq	%rbx, %rdi
	callq	strcmp
.LBB9_1378:                             # %cond.end.200.i
                                        #   in Loop: Header=BB9_189 Depth=2
	movl	%eax, %ebp
.LBB9_1379:                             # %cond.end.200.i
                                        #   in Loop: Header=BB9_189 Depth=2
	testl	%ebp, %ebp
	jne	.LBB9_1381
# BB#1380:                              # %if.then.204.i
                                        #   in Loop: Header=BB9_189 Depth=2
	movl	$1, 1036(%r13)
.LBB9_1381:                             # %if.end.205.i
                                        #   in Loop: Header=BB9_189 Depth=2
	movl	$1, 1300(%r13)
	jmp	.LBB9_189
.LBB9_512:                              # %if.else.440.i
                                        #   in Loop: Header=BB9_189 Depth=2
	movl	$.L.str.113, %edi
	callq	strlen
	movq	%rax, %rcx
	cmpq	$11, %rcx
	ja	.LBB9_522
# BB#513:                               # %land.lhs.true.450.i
                                        #   in Loop: Header=BB9_189 Depth=2
	cmpq	$3, %rcx
	ja	.LBB9_521
# BB#514:                               # %cond.true.454.i
                                        #   in Loop: Header=BB9_189 Depth=2
	movzbl	(%r12), %eax
	addl	$-37, %eax
	testq	%rcx, %rcx
	je	.LBB9_523
# BB#515:                               # %cond.true.454.i
                                        #   in Loop: Header=BB9_189 Depth=2
	testl	%eax, %eax
	jne	.LBB9_523
# BB#516:                               # %if.then.468.i
                                        #   in Loop: Header=BB9_189 Depth=2
	movzbl	1(%r12), %eax
	addl	$-37, %eax
	cmpq	$2, %rcx
	jb	.LBB9_523
# BB#517:                               # %if.then.468.i
                                        #   in Loop: Header=BB9_189 Depth=2
	testl	%eax, %eax
	jne	.LBB9_523
# BB#518:                               # %if.then.478.i
                                        #   in Loop: Header=BB9_189 Depth=2
	movzbl	2(%r12), %eax
	addl	$-66, %eax
	cmpq	$3, %rcx
	jb	.LBB9_523
# BB#519:                               # %if.then.478.i
                                        #   in Loop: Header=BB9_189 Depth=2
	testl	%eax, %eax
	jne	.LBB9_523
# BB#520:                               # %if.then.488.i
                                        #   in Loop: Header=BB9_189 Depth=2
	movzbl	3(%r12), %eax
	addl	$-101, %eax
	jmp	.LBB9_523
.LBB9_1017:                             # %if.else.896.i
                                        #   in Loop: Header=BB9_189 Depth=2
	movl	$.L.str.132, %edi
	callq	strlen
	movq	%rax, %rcx
	cmpq	$12, %rcx
	ja	.LBB9_1027
# BB#1018:                              # %land.lhs.true.906.i
                                        #   in Loop: Header=BB9_189 Depth=2
	cmpq	$3, %rcx
	ja	.LBB9_1026
# BB#1019:                              # %cond.true.910.i
                                        #   in Loop: Header=BB9_189 Depth=2
	movzbl	(%rbp), %eax
	addl	$-37, %eax
	testq	%rcx, %rcx
	je	.LBB9_1028
# BB#1020:                              # %cond.true.910.i
                                        #   in Loop: Header=BB9_189 Depth=2
	testl	%eax, %eax
	jne	.LBB9_1028
# BB#1021:                              # %if.then.924.i
                                        #   in Loop: Header=BB9_189 Depth=2
	movzbl	1(%rbp), %eax
	addl	$-37, %eax
	cmpq	$2, %rcx
	jb	.LBB9_1028
# BB#1022:                              # %if.then.924.i
                                        #   in Loop: Header=BB9_189 Depth=2
	testl	%eax, %eax
	jne	.LBB9_1028
# BB#1023:                              # %if.then.934.i
                                        #   in Loop: Header=BB9_189 Depth=2
	movzbl	2(%rbp), %eax
	addl	$-80, %eax
	cmpq	$3, %rcx
	jb	.LBB9_1028
# BB#1024:                              # %if.then.934.i
                                        #   in Loop: Header=BB9_189 Depth=2
	testl	%eax, %eax
	jne	.LBB9_1028
# BB#1025:                              # %if.then.944.i
                                        #   in Loop: Header=BB9_189 Depth=2
	movzbl	3(%rbp), %eax
	addl	$-97, %eax
	jmp	.LBB9_1028
.LBB9_402:                              # %cond.false.506.i
                                        #   in Loop: Header=BB9_189 Depth=2
	movl	$.L.str.109, %esi
	movq	%rbp, %rdi
	callq	strcmp
.LBB9_404:                              # %cond.end.512.i
                                        #   in Loop: Header=BB9_189 Depth=2
	testl	%eax, %eax
	je	.LBB9_405
# BB#406:                               # %if.else.522.i
                                        #   in Loop: Header=BB9_189 Depth=2
	movl	$.L.str.110, %edi
	callq	strlen
	movq	%rax, %rcx
	cmpq	$20, %rcx
	ja	.LBB9_416
# BB#407:                               # %land.lhs.true.532.i
                                        #   in Loop: Header=BB9_189 Depth=2
	cmpq	$3, %rcx
	ja	.LBB9_415
# BB#408:                               # %cond.true.536.i
                                        #   in Loop: Header=BB9_189 Depth=2
	movzbl	(%rbp), %eax
	addl	$-37, %eax
	testq	%rcx, %rcx
	je	.LBB9_417
# BB#409:                               # %cond.true.536.i
                                        #   in Loop: Header=BB9_189 Depth=2
	testl	%eax, %eax
	jne	.LBB9_417
# BB#410:                               # %if.then.550.i
                                        #   in Loop: Header=BB9_189 Depth=2
	movzbl	1(%rbp), %eax
	addl	$-37, %eax
	cmpq	$2, %rcx
	jb	.LBB9_417
# BB#411:                               # %if.then.550.i
                                        #   in Loop: Header=BB9_189 Depth=2
	testl	%eax, %eax
	jne	.LBB9_417
# BB#412:                               # %if.then.560.i
                                        #   in Loop: Header=BB9_189 Depth=2
	movzbl	2(%rbp), %eax
	addl	$-86, %eax
	cmpq	$3, %rcx
	jb	.LBB9_417
# BB#413:                               # %if.then.560.i
                                        #   in Loop: Header=BB9_189 Depth=2
	testl	%eax, %eax
	jne	.LBB9_417
# BB#414:                               # %if.then.570.i
                                        #   in Loop: Header=BB9_189 Depth=2
	movzbl	3(%rbp), %eax
	addl	$-105, %eax
	jmp	.LBB9_417
.LBB9_405:                              # %if.then.516.i
                                        #   in Loop: Header=BB9_189 Depth=2
	movl	$706, 1296(%r13)        # imm = 0x2C2
	movl	$18, %edx
	movq	%r13, %rdi
	movq	64(%rsp), %rsi          # 8-byte Reload
	callq	dsc_parse_bounding_box
	jmp	.LBB9_419
.LBB9_416:                              # %cond.false.583.i
                                        #   in Loop: Header=BB9_189 Depth=2
	movl	$.L.str.110, %esi
	movl	$21, %edx
	movq	%rbp, %rdi
	callq	strncmp
	jmp	.LBB9_417
.LBB9_1015:                             # %if.else.881.i
                                        #   in Loop: Header=BB9_189 Depth=2
	movq	9912(%r13), %rax
	testq	%rax, %rax
	je	.LBB9_1321
# BB#1016:                              # %dsc_error.exit780.i
                                        #   in Loop: Header=BB9_189 Depth=2
	movl	9584(%r13), %r8d
	movq	9576(%r13), %rcx
	movq	1288(%r13), %rdi
	movl	$13, %edx
	movq	%r13, %rsi
	callq	*%rax
.LBB9_993:                              # %dsc_error.exit.i
                                        #   in Loop: Header=BB9_189 Depth=2
	cmpl	$2, %eax
	jne	.LBB9_1321
	jmp	.LBB9_1619
.LBB9_415:                              # %cond.false.579.i
                                        #   in Loop: Header=BB9_189 Depth=2
	movl	$.L.str.110, %esi
	movq	%rbp, %rdi
	callq	strcmp
.LBB9_417:                              # %cond.end.585.i
                                        #   in Loop: Header=BB9_189 Depth=2
	testl	%eax, %eax
	je	.LBB9_418
# BB#420:                               # %if.else.595.i
                                        #   in Loop: Header=BB9_189 Depth=2
	movl	$.L.str.111, %edi
	callq	strlen
	movq	%rax, %rcx
	cmpq	$13, %rcx
	ja	.LBB9_430
# BB#421:                               # %land.lhs.true.605.i
                                        #   in Loop: Header=BB9_189 Depth=2
	cmpq	$3, %rcx
	ja	.LBB9_429
# BB#422:                               # %cond.true.609.i
                                        #   in Loop: Header=BB9_189 Depth=2
	movzbl	(%rbp), %eax
	addl	$-37, %eax
	testq	%rcx, %rcx
	je	.LBB9_431
# BB#423:                               # %cond.true.609.i
                                        #   in Loop: Header=BB9_189 Depth=2
	testl	%eax, %eax
	jne	.LBB9_431
# BB#424:                               # %if.then.623.i
                                        #   in Loop: Header=BB9_189 Depth=2
	movzbl	1(%rbp), %eax
	addl	$-37, %eax
	cmpq	$2, %rcx
	jb	.LBB9_431
# BB#425:                               # %if.then.623.i
                                        #   in Loop: Header=BB9_189 Depth=2
	testl	%eax, %eax
	jne	.LBB9_431
# BB#426:                               # %if.then.633.i
                                        #   in Loop: Header=BB9_189 Depth=2
	movzbl	2(%rbp), %eax
	addl	$-80, %eax
	cmpq	$3, %rcx
	jb	.LBB9_431
# BB#427:                               # %if.then.633.i
                                        #   in Loop: Header=BB9_189 Depth=2
	testl	%eax, %eax
	jne	.LBB9_431
# BB#428:                               # %if.then.643.i
                                        #   in Loop: Header=BB9_189 Depth=2
	movzbl	3(%rbp), %eax
	addl	$-97, %eax
	jmp	.LBB9_431
.LBB9_418:                              # %if.then.589.i
                                        #   in Loop: Header=BB9_189 Depth=2
	movl	$708, 1296(%r13)        # imm = 0x2C4
	movq	%r13, %rdi
	movq	56(%rsp), %rsi          # 8-byte Reload
	callq	dsc_parse_viewing_orientation
	jmp	.LBB9_419
.LBB9_430:                              # %cond.false.656.i
                                        #   in Loop: Header=BB9_189 Depth=2
	movl	$.L.str.111, %esi
	movl	$14, %edx
	movq	%rbp, %rdi
	callq	strncmp
	jmp	.LBB9_431
.LBB9_522:                              # %cond.false.501.i
                                        #   in Loop: Header=BB9_189 Depth=2
	movl	$.L.str.113, %esi
	movl	$12, %edx
	movq	%r12, %rdi
	callq	strncmp
	jmp	.LBB9_523
.LBB9_1027:                             # %cond.false.957.i
                                        #   in Loop: Header=BB9_189 Depth=2
	movl	$.L.str.132, %esi
	movl	$13, %edx
	movq	%rbp, %rdi
	callq	strncmp
	jmp	.LBB9_1028
.LBB9_429:                              # %cond.false.652.i
                                        #   in Loop: Header=BB9_189 Depth=2
	movl	$.L.str.111, %esi
	movq	%rbp, %rdi
	callq	strcmp
.LBB9_431:                              # %cond.end.658.i
                                        #   in Loop: Header=BB9_189 Depth=2
	testl	%eax, %eax
	je	.LBB9_432
# BB#433:                               # %if.else.668.i
                                        #   in Loop: Header=BB9_189 Depth=2
	movl	$100, 1296(%r13)
	movq	%r13, %rdi
	callq	dsc_unknown
	jmp	.LBB9_434
.LBB9_432:                              # %if.then.662.i
                                        #   in Loop: Header=BB9_189 Depth=2
	movl	$709, 1296(%r13)        # imm = 0x2C5
	movl	$14, %edx
	movq	%r13, %rdi
	movq	88(%rsp), %rsi          # 8-byte Reload
	callq	dsc_parse_float_bounding_box
.LBB9_419:                              # %if.then.589.i
                                        #   in Loop: Header=BB9_189 Depth=2
	testl	%eax, %eax
	jne	.LBB9_189
.LBB9_434:                              # %if.end.679.i
                                        #   in Loop: Header=BB9_189 Depth=2
	movl	9556(%r13), %eax
	addq	9560(%r13), %rax
	movq	%rax, 1104(%r13)
	jmp	.LBB9_189
.LBB9_920:                              # %if.end.326.i
                                        #   in Loop: Header=BB9_189 Depth=2
	movl	1168(%r13), %eax
	testl	%eax, %eax
	jne	.LBB9_1322
# BB#921:                               # %if.then.330.i
                                        #   in Loop: Header=BB9_189 Depth=2
	movl	$10, 1300(%r13)
	jmp	.LBB9_1321
.LBB9_699:                              # %if.else.450.i
                                        #   in Loop: Header=BB9_189 Depth=2
	movl	$.L.str.115, %edi
	callq	strlen
	movq	%rax, %rcx
	cmpq	$14, %rcx
	ja	.LBB9_709
# BB#700:                               # %land.lhs.true.460.i
                                        #   in Loop: Header=BB9_189 Depth=2
	cmpq	$3, %rcx
	ja	.LBB9_708
# BB#701:                               # %cond.true.464.i
                                        #   in Loop: Header=BB9_189 Depth=2
	movzbl	(%r12), %eax
	addl	$-37, %eax
	testq	%rcx, %rcx
	je	.LBB9_710
# BB#702:                               # %cond.true.464.i
                                        #   in Loop: Header=BB9_189 Depth=2
	testl	%eax, %eax
	jne	.LBB9_710
# BB#703:                               # %if.then.478.i.488
                                        #   in Loop: Header=BB9_189 Depth=2
	movzbl	1(%r12), %eax
	addl	$-37, %eax
	cmpq	$2, %rcx
	jb	.LBB9_710
# BB#704:                               # %if.then.478.i.488
                                        #   in Loop: Header=BB9_189 Depth=2
	testl	%eax, %eax
	jne	.LBB9_710
# BB#705:                               # %if.then.488.i.493
                                        #   in Loop: Header=BB9_189 Depth=2
	movzbl	2(%r12), %eax
	addl	$-66, %eax
	cmpq	$3, %rcx
	jb	.LBB9_710
# BB#706:                               # %if.then.488.i.493
                                        #   in Loop: Header=BB9_189 Depth=2
	testl	%eax, %eax
	jne	.LBB9_710
# BB#707:                               # %if.then.498.i
                                        #   in Loop: Header=BB9_189 Depth=2
	movzbl	3(%r12), %eax
	addl	$-101, %eax
	jmp	.LBB9_710
.LBB9_521:                              # %cond.false.497.i
                                        #   in Loop: Header=BB9_189 Depth=2
	movl	$.L.str.113, %esi
	movq	%r12, %rdi
	callq	strcmp
.LBB9_523:                              # %cond.end.503.i
                                        #   in Loop: Header=BB9_189 Depth=2
	testl	%eax, %eax
	je	.LBB9_524
# BB#525:                               # %if.else.509.i
                                        #   in Loop: Header=BB9_189 Depth=2
	movl	$.L.str.114, %edi
	callq	strlen
	movq	%rax, %rcx
	cmpq	$8, %rcx
	ja	.LBB9_535
# BB#526:                               # %land.lhs.true.519.i
                                        #   in Loop: Header=BB9_189 Depth=2
	cmpq	$3, %rcx
	ja	.LBB9_534
# BB#527:                               # %cond.true.523.i
                                        #   in Loop: Header=BB9_189 Depth=2
	movzbl	(%r12), %eax
	addl	$-37, %eax
	testq	%rcx, %rcx
	je	.LBB9_536
# BB#528:                               # %cond.true.523.i
                                        #   in Loop: Header=BB9_189 Depth=2
	testl	%eax, %eax
	jne	.LBB9_536
# BB#529:                               # %if.then.537.i
                                        #   in Loop: Header=BB9_189 Depth=2
	movzbl	1(%r12), %eax
	addl	$-37, %eax
	cmpq	$2, %rcx
	jb	.LBB9_536
# BB#530:                               # %if.then.537.i
                                        #   in Loop: Header=BB9_189 Depth=2
	testl	%eax, %eax
	jne	.LBB9_536
# BB#531:                               # %if.then.547.i
                                        #   in Loop: Header=BB9_189 Depth=2
	movzbl	2(%r12), %eax
	addl	$-69, %eax
	cmpq	$3, %rcx
	jb	.LBB9_536
# BB#532:                               # %if.then.547.i
                                        #   in Loop: Header=BB9_189 Depth=2
	testl	%eax, %eax
	jne	.LBB9_536
# BB#533:                               # %if.then.557.i
                                        #   in Loop: Header=BB9_189 Depth=2
	movzbl	3(%r12), %eax
	addl	$-110, %eax
	jmp	.LBB9_536
.LBB9_524:                              # %if.then.507.i.315
                                        #   in Loop: Header=BB9_189 Depth=2
	movl	$503, 1296(%r13)        # imm = 0x1F7
	incl	1344(%r13)
	jmp	.LBB9_617
.LBB9_535:                              # %cond.false.570.i
                                        #   in Loop: Header=BB9_189 Depth=2
	movl	$.L.str.114, %esi
	movl	$9, %edx
	movq	%r12, %rdi
	callq	strncmp
	jmp	.LBB9_536
.LBB9_1026:                             # %cond.false.953.i
                                        #   in Loop: Header=BB9_189 Depth=2
	movl	$.L.str.132, %esi
	movq	%rbp, %rdi
	callq	strcmp
.LBB9_1028:                             # %cond.end.959.i
                                        #   in Loop: Header=BB9_189 Depth=2
	testl	%eax, %eax
	je	.LBB9_1029
# BB#1030:                              # %if.else.965.i
                                        #   in Loop: Header=BB9_189 Depth=2
	movl	$.L.str.133, %edi
	callq	strlen
	movq	%rax, %rcx
	cmpq	$15, %rcx
	ja	.LBB9_1040
# BB#1031:                              # %land.lhs.true.975.i
                                        #   in Loop: Header=BB9_189 Depth=2
	cmpq	$3, %rcx
	ja	.LBB9_1039
# BB#1032:                              # %cond.true.979.i
                                        #   in Loop: Header=BB9_189 Depth=2
	movzbl	(%rbp), %eax
	addl	$-37, %eax
	testq	%rcx, %rcx
	je	.LBB9_1041
# BB#1033:                              # %cond.true.979.i
                                        #   in Loop: Header=BB9_189 Depth=2
	testl	%eax, %eax
	jne	.LBB9_1041
# BB#1034:                              # %if.then.993.i
                                        #   in Loop: Header=BB9_189 Depth=2
	movzbl	1(%rbp), %eax
	addl	$-37, %eax
	cmpq	$2, %rcx
	jb	.LBB9_1041
# BB#1035:                              # %if.then.993.i
                                        #   in Loop: Header=BB9_189 Depth=2
	testl	%eax, %eax
	jne	.LBB9_1041
# BB#1036:                              # %if.then.1003.i
                                        #   in Loop: Header=BB9_189 Depth=2
	movzbl	2(%rbp), %eax
	addl	$-66, %eax
	cmpq	$3, %rcx
	jb	.LBB9_1041
# BB#1037:                              # %if.then.1003.i
                                        #   in Loop: Header=BB9_189 Depth=2
	testl	%eax, %eax
	jne	.LBB9_1041
# BB#1038:                              # %if.then.1013.i
                                        #   in Loop: Header=BB9_189 Depth=2
	movzbl	3(%rbp), %eax
	addl	$-101, %eax
	jmp	.LBB9_1041
.LBB9_1029:                             # %if.then.963.i
                                        #   in Loop: Header=BB9_189 Depth=2
	movl	$701, 1296(%r13)        # imm = 0x2BD
	jmp	.LBB9_1321
.LBB9_1040:                             # %cond.false.1026.i
                                        #   in Loop: Header=BB9_189 Depth=2
	movl	$.L.str.133, %esi
	movl	$16, %edx
	movq	%rbp, %rdi
	callq	strncmp
	jmp	.LBB9_1041
.LBB9_709:                              # %cond.false.511.i
                                        #   in Loop: Header=BB9_189 Depth=2
	movl	$.L.str.115, %esi
	movl	$15, %edx
	movq	%r12, %rdi
	callq	strncmp
	jmp	.LBB9_710
.LBB9_534:                              # %cond.false.566.i
                                        #   in Loop: Header=BB9_189 Depth=2
	movl	$.L.str.114, %esi
	movq	%r12, %rdi
	callq	strcmp
.LBB9_536:                              # %cond.end.572.i
                                        #   in Loop: Header=BB9_189 Depth=2
	testl	%eax, %eax
	je	.LBB9_537
# BB#538:                               # %if.else.579.i
                                        #   in Loop: Header=BB9_189 Depth=2
	movl	$.L.str.115, %edi
	callq	strlen
	movq	%rax, %rcx
	cmpq	$14, %rcx
	ja	.LBB9_548
# BB#539:                               # %land.lhs.true.589.i
                                        #   in Loop: Header=BB9_189 Depth=2
	cmpq	$3, %rcx
	ja	.LBB9_547
# BB#540:                               # %cond.true.593.i
                                        #   in Loop: Header=BB9_189 Depth=2
	movzbl	(%r12), %eax
	addl	$-37, %eax
	testq	%rcx, %rcx
	je	.LBB9_549
# BB#541:                               # %cond.true.593.i
                                        #   in Loop: Header=BB9_189 Depth=2
	testl	%eax, %eax
	jne	.LBB9_549
# BB#542:                               # %if.then.607.i
                                        #   in Loop: Header=BB9_189 Depth=2
	movzbl	1(%r12), %eax
	addl	$-37, %eax
	cmpq	$2, %rcx
	jb	.LBB9_549
# BB#543:                               # %if.then.607.i
                                        #   in Loop: Header=BB9_189 Depth=2
	testl	%eax, %eax
	jne	.LBB9_549
# BB#544:                               # %if.then.617.i
                                        #   in Loop: Header=BB9_189 Depth=2
	movzbl	2(%r12), %eax
	addl	$-66, %eax
	cmpq	$3, %rcx
	jb	.LBB9_549
# BB#545:                               # %if.then.617.i
                                        #   in Loop: Header=BB9_189 Depth=2
	testl	%eax, %eax
	jne	.LBB9_549
# BB#546:                               # %if.then.627.i
                                        #   in Loop: Header=BB9_189 Depth=2
	movzbl	3(%r12), %eax
	addl	$-101, %eax
	jmp	.LBB9_549
.LBB9_537:                              # %if.then.576.i
                                        #   in Loop: Header=BB9_189 Depth=2
	movl	$504, 1296(%r13)        # imm = 0x1F8
	decl	1344(%r13)
	jmp	.LBB9_617
.LBB9_548:                              # %cond.false.640.i
                                        #   in Loop: Header=BB9_189 Depth=2
	movl	$.L.str.115, %esi
	movl	$15, %edx
	movq	%r12, %rdi
	callq	strncmp
	jmp	.LBB9_549
.LBB9_1039:                             # %cond.false.1022.i
                                        #   in Loop: Header=BB9_189 Depth=2
	movl	$.L.str.133, %esi
	movq	%rbp, %rdi
	callq	strcmp
.LBB9_1041:                             # %cond.end.1028.i
                                        #   in Loop: Header=BB9_189 Depth=2
	testl	%eax, %eax
	je	.LBB9_1042
# BB#1043:                              # %if.else.1034.i
                                        #   in Loop: Header=BB9_189 Depth=2
	movl	$.L.str.134, %edi
	callq	strlen
	movq	%rax, %rcx
	cmpq	$13, %rcx
	ja	.LBB9_1053
# BB#1044:                              # %land.lhs.true.1044.i
                                        #   in Loop: Header=BB9_189 Depth=2
	cmpq	$3, %rcx
	ja	.LBB9_1052
# BB#1045:                              # %cond.true.1048.i
                                        #   in Loop: Header=BB9_189 Depth=2
	movzbl	(%rbp), %eax
	addl	$-37, %eax
	testq	%rcx, %rcx
	je	.LBB9_1054
# BB#1046:                              # %cond.true.1048.i
                                        #   in Loop: Header=BB9_189 Depth=2
	testl	%eax, %eax
	jne	.LBB9_1054
# BB#1047:                              # %if.then.1062.i
                                        #   in Loop: Header=BB9_189 Depth=2
	movzbl	1(%rbp), %eax
	addl	$-37, %eax
	cmpq	$2, %rcx
	jb	.LBB9_1054
# BB#1048:                              # %if.then.1062.i
                                        #   in Loop: Header=BB9_189 Depth=2
	testl	%eax, %eax
	jne	.LBB9_1054
# BB#1049:                              # %if.then.1072.i
                                        #   in Loop: Header=BB9_189 Depth=2
	movzbl	2(%rbp), %eax
	addl	$-69, %eax
	cmpq	$3, %rcx
	jb	.LBB9_1054
# BB#1050:                              # %if.then.1072.i
                                        #   in Loop: Header=BB9_189 Depth=2
	testl	%eax, %eax
	jne	.LBB9_1054
# BB#1051:                              # %if.then.1082.i
                                        #   in Loop: Header=BB9_189 Depth=2
	movzbl	3(%rbp), %eax
	addl	$-110, %eax
	jmp	.LBB9_1054
.LBB9_1042:                             # %if.then.1032.i
                                        #   in Loop: Header=BB9_189 Depth=2
	movl	$702, 1296(%r13)        # imm = 0x2BE
	jmp	.LBB9_1321
.LBB9_1053:                             # %cond.false.1095.i
                                        #   in Loop: Header=BB9_189 Depth=2
	movl	$.L.str.134, %esi
	movl	$14, %edx
	movq	%rbp, %rdi
	callq	strncmp
	jmp	.LBB9_1054
.LBB9_547:                              # %cond.false.636.i
                                        #   in Loop: Header=BB9_189 Depth=2
	movl	$.L.str.115, %esi
	movq	%r12, %rdi
	callq	strcmp
.LBB9_549:                              # %cond.end.642.i
                                        #   in Loop: Header=BB9_189 Depth=2
	testl	%eax, %eax
	je	.LBB9_550
# BB#551:                               # %if.else.649.i
                                        #   in Loop: Header=BB9_189 Depth=2
	movl	$.L.str.116, %edi
	callq	strlen
	movq	%rax, %rcx
	cmpq	$11, %rcx
	ja	.LBB9_561
# BB#552:                               # %land.lhs.true.659.i
                                        #   in Loop: Header=BB9_189 Depth=2
	cmpq	$3, %rcx
	ja	.LBB9_560
# BB#553:                               # %cond.true.663.i
                                        #   in Loop: Header=BB9_189 Depth=2
	movzbl	(%r12), %eax
	addl	$-37, %eax
	testq	%rcx, %rcx
	je	.LBB9_562
# BB#554:                               # %cond.true.663.i
                                        #   in Loop: Header=BB9_189 Depth=2
	testl	%eax, %eax
	jne	.LBB9_562
# BB#555:                               # %if.then.677.i
                                        #   in Loop: Header=BB9_189 Depth=2
	movzbl	1(%r12), %eax
	addl	$-37, %eax
	cmpq	$2, %rcx
	jb	.LBB9_562
# BB#556:                               # %if.then.677.i
                                        #   in Loop: Header=BB9_189 Depth=2
	testl	%eax, %eax
	jne	.LBB9_562
# BB#557:                               # %if.then.687.i
                                        #   in Loop: Header=BB9_189 Depth=2
	movzbl	2(%r12), %eax
	addl	$-69, %eax
	cmpq	$3, %rcx
	jb	.LBB9_562
# BB#558:                               # %if.then.687.i
                                        #   in Loop: Header=BB9_189 Depth=2
	testl	%eax, %eax
	jne	.LBB9_562
# BB#559:                               # %if.then.697.i
                                        #   in Loop: Header=BB9_189 Depth=2
	movzbl	3(%r12), %eax
	addl	$-110, %eax
	jmp	.LBB9_562
.LBB9_550:                              # %if.then.646.i
                                        #   in Loop: Header=BB9_189 Depth=2
	movl	$505, 1296(%r13)        # imm = 0x1F9
	incl	1348(%r13)
	jmp	.LBB9_617
.LBB9_561:                              # %cond.false.710.i
                                        #   in Loop: Header=BB9_189 Depth=2
	movl	$.L.str.116, %esi
	movl	$12, %edx
	movq	%r12, %rdi
	callq	strncmp
	jmp	.LBB9_562
.LBB9_1052:                             # %cond.false.1091.i
                                        #   in Loop: Header=BB9_189 Depth=2
	movl	$.L.str.134, %esi
	movq	%rbp, %rdi
	callq	strcmp
.LBB9_1054:                             # %cond.end.1097.i
                                        #   in Loop: Header=BB9_189 Depth=2
	testl	%eax, %eax
	je	.LBB9_1055
# BB#1056:                              # %if.else.1103.i
                                        #   in Loop: Header=BB9_189 Depth=2
	movl	$.L.str.107, %edi
	callq	strlen
	movq	%rax, %rcx
	cmpq	$11, %rcx
	ja	.LBB9_1066
# BB#1057:                              # %land.lhs.true.1113.i
                                        #   in Loop: Header=BB9_189 Depth=2
	cmpq	$3, %rcx
	ja	.LBB9_1065
# BB#1058:                              # %cond.true.1117.i
                                        #   in Loop: Header=BB9_189 Depth=2
	movzbl	(%rbp), %eax
	addl	$-37, %eax
	testq	%rcx, %rcx
	je	.LBB9_1067
# BB#1059:                              # %cond.true.1117.i
                                        #   in Loop: Header=BB9_189 Depth=2
	testl	%eax, %eax
	jne	.LBB9_1067
# BB#1060:                              # %if.then.1131.i
                                        #   in Loop: Header=BB9_189 Depth=2
	movzbl	1(%rbp), %eax
	addl	$-37, %eax
	cmpq	$2, %rcx
	jb	.LBB9_1067
# BB#1061:                              # %if.then.1131.i
                                        #   in Loop: Header=BB9_189 Depth=2
	testl	%eax, %eax
	jne	.LBB9_1067
# BB#1062:                              # %if.then.1141.i
                                        #   in Loop: Header=BB9_189 Depth=2
	movzbl	2(%rbp), %eax
	addl	$-80, %eax
	cmpq	$3, %rcx
	jb	.LBB9_1067
# BB#1063:                              # %if.then.1141.i
                                        #   in Loop: Header=BB9_189 Depth=2
	testl	%eax, %eax
	jne	.LBB9_1067
# BB#1064:                              # %if.then.1151.i
                                        #   in Loop: Header=BB9_189 Depth=2
	movzbl	3(%rbp), %eax
	addl	$-97, %eax
	jmp	.LBB9_1067
.LBB9_1055:                             # %if.then.1101.i
                                        #   in Loop: Header=BB9_189 Depth=2
	movl	$703, 1296(%r13)        # imm = 0x2BF
	jmp	.LBB9_1321
.LBB9_1066:                             # %cond.false.1164.i
                                        #   in Loop: Header=BB9_189 Depth=2
	movl	$.L.str.107, %esi
	movl	$12, %edx
	movq	%rbp, %rdi
	callq	strncmp
	jmp	.LBB9_1067
.LBB9_708:                              # %cond.false.507.i
                                        #   in Loop: Header=BB9_189 Depth=2
	movl	$.L.str.115, %esi
	movq	%r12, %rdi
	callq	strcmp
.LBB9_710:                              # %cond.end.513.i
                                        #   in Loop: Header=BB9_189 Depth=2
	testl	%eax, %eax
	je	.LBB9_711
# BB#712:                               # %if.else.519.i
                                        #   in Loop: Header=BB9_189 Depth=2
	movl	$.L.str.116, %edi
	callq	strlen
	movq	%rax, %rcx
	cmpq	$11, %rcx
	ja	.LBB9_722
# BB#713:                               # %land.lhs.true.529.i
                                        #   in Loop: Header=BB9_189 Depth=2
	cmpq	$3, %rcx
	ja	.LBB9_721
# BB#714:                               # %cond.true.533.i
                                        #   in Loop: Header=BB9_189 Depth=2
	movzbl	(%r12), %eax
	addl	$-37, %eax
	testq	%rcx, %rcx
	je	.LBB9_723
# BB#715:                               # %cond.true.533.i
                                        #   in Loop: Header=BB9_189 Depth=2
	testl	%eax, %eax
	jne	.LBB9_723
# BB#716:                               # %if.then.547.i.509
                                        #   in Loop: Header=BB9_189 Depth=2
	movzbl	1(%r12), %eax
	addl	$-37, %eax
	cmpq	$2, %rcx
	jb	.LBB9_723
# BB#717:                               # %if.then.547.i.509
                                        #   in Loop: Header=BB9_189 Depth=2
	testl	%eax, %eax
	jne	.LBB9_723
# BB#718:                               # %if.then.557.i.515
                                        #   in Loop: Header=BB9_189 Depth=2
	movzbl	2(%r12), %eax
	addl	$-69, %eax
	cmpq	$3, %rcx
	jb	.LBB9_723
# BB#719:                               # %if.then.557.i.515
                                        #   in Loop: Header=BB9_189 Depth=2
	testl	%eax, %eax
	jne	.LBB9_723
# BB#720:                               # %if.then.567.i
                                        #   in Loop: Header=BB9_189 Depth=2
	movzbl	3(%r12), %eax
	addl	$-110, %eax
	jmp	.LBB9_723
.LBB9_711:                              # %if.then.517.i.497
                                        #   in Loop: Header=BB9_189 Depth=2
	movl	$505, 1296(%r13)        # imm = 0x1F9
	incl	1348(%r13)
	jmp	.LBB9_837
.LBB9_722:                              # %cond.false.580.i
                                        #   in Loop: Header=BB9_189 Depth=2
	movl	$.L.str.116, %esi
	movl	$12, %edx
	movq	%r12, %rdi
	callq	strncmp
	jmp	.LBB9_723
.LBB9_560:                              # %cond.false.706.i
                                        #   in Loop: Header=BB9_189 Depth=2
	movl	$.L.str.116, %esi
	movq	%r12, %rdi
	callq	strcmp
.LBB9_562:                              # %cond.end.712.i
                                        #   in Loop: Header=BB9_189 Depth=2
	testl	%eax, %eax
	je	.LBB9_563
# BB#564:                               # %if.else.720.i
                                        #   in Loop: Header=BB9_189 Depth=2
	movl	$.L.str.117, %edi
	callq	strlen
	movq	%rax, %rcx
	cmpq	$15, %rcx
	ja	.LBB9_574
# BB#565:                               # %land.lhs.true.730.i
                                        #   in Loop: Header=BB9_189 Depth=2
	cmpq	$3, %rcx
	ja	.LBB9_573
# BB#566:                               # %cond.true.734.i
                                        #   in Loop: Header=BB9_189 Depth=2
	movzbl	(%r12), %eax
	addl	$-37, %eax
	testq	%rcx, %rcx
	je	.LBB9_575
# BB#567:                               # %cond.true.734.i
                                        #   in Loop: Header=BB9_189 Depth=2
	testl	%eax, %eax
	jne	.LBB9_575
# BB#568:                               # %if.then.748.i
                                        #   in Loop: Header=BB9_189 Depth=2
	movzbl	1(%r12), %eax
	addl	$-37, %eax
	cmpq	$2, %rcx
	jb	.LBB9_575
# BB#569:                               # %if.then.748.i
                                        #   in Loop: Header=BB9_189 Depth=2
	testl	%eax, %eax
	jne	.LBB9_575
# BB#570:                               # %if.then.758.i
                                        #   in Loop: Header=BB9_189 Depth=2
	movzbl	2(%r12), %eax
	addl	$-66, %eax
	cmpq	$3, %rcx
	jb	.LBB9_575
# BB#571:                               # %if.then.758.i
                                        #   in Loop: Header=BB9_189 Depth=2
	testl	%eax, %eax
	jne	.LBB9_575
# BB#572:                               # %if.then.768.i
                                        #   in Loop: Header=BB9_189 Depth=2
	movzbl	3(%r12), %eax
	addl	$-101, %eax
	jmp	.LBB9_575
.LBB9_563:                              # %if.then.716.i
                                        #   in Loop: Header=BB9_189 Depth=2
	movl	$506, 1296(%r13)        # imm = 0x1FA
	decl	1348(%r13)
	jmp	.LBB9_617
.LBB9_574:                              # %cond.false.781.i
                                        #   in Loop: Header=BB9_189 Depth=2
	movl	$.L.str.117, %esi
	movl	$16, %edx
	movq	%r12, %rdi
	callq	strncmp
	jmp	.LBB9_575
.LBB9_1065:                             # %cond.false.1160.i
                                        #   in Loop: Header=BB9_189 Depth=2
	movl	$.L.str.107, %esi
	movq	%rbp, %rdi
	callq	strcmp
.LBB9_1067:                             # %cond.end.1166.i
                                        #   in Loop: Header=BB9_189 Depth=2
	testl	%eax, %eax
	je	.LBB9_1068
# BB#1070:                              # %if.else.1182.i
                                        #   in Loop: Header=BB9_189 Depth=2
	movl	$.L.str.128, %edi
	callq	strlen
	movq	%rax, %rcx
	cmpq	$12, %rcx
	ja	.LBB9_1080
# BB#1071:                              # %land.lhs.true.1192.i
                                        #   in Loop: Header=BB9_189 Depth=2
	cmpq	$3, %rcx
	ja	.LBB9_1079
# BB#1072:                              # %cond.true.1196.i
                                        #   in Loop: Header=BB9_189 Depth=2
	movzbl	(%rbp), %eax
	addl	$-37, %eax
	testq	%rcx, %rcx
	je	.LBB9_1081
# BB#1073:                              # %cond.true.1196.i
                                        #   in Loop: Header=BB9_189 Depth=2
	testl	%eax, %eax
	jne	.LBB9_1081
# BB#1074:                              # %if.then.1210.i
                                        #   in Loop: Header=BB9_189 Depth=2
	movzbl	1(%rbp), %eax
	addl	$-37, %eax
	cmpq	$2, %rcx
	jb	.LBB9_1081
# BB#1075:                              # %if.then.1210.i
                                        #   in Loop: Header=BB9_189 Depth=2
	testl	%eax, %eax
	jne	.LBB9_1081
# BB#1076:                              # %if.then.1220.i
                                        #   in Loop: Header=BB9_189 Depth=2
	movzbl	2(%rbp), %eax
	addl	$-80, %eax
	cmpq	$3, %rcx
	jb	.LBB9_1081
# BB#1077:                              # %if.then.1220.i
                                        #   in Loop: Header=BB9_189 Depth=2
	testl	%eax, %eax
	jne	.LBB9_1081
# BB#1078:                              # %if.then.1230.i
                                        #   in Loop: Header=BB9_189 Depth=2
	movzbl	3(%rbp), %eax
	addl	$-97, %eax
	jmp	.LBB9_1081
.LBB9_1068:                             # %if.then.1170.i
                                        #   in Loop: Header=BB9_189 Depth=2
	movl	$704, 1296(%r13)        # imm = 0x2C0
	movl	1168(%r13), %eax
	testl	%eax, %eax
	je	.LBB9_189
# BB#1069:                              # %if.then.1174.i
                                        #   in Loop: Header=BB9_189 Depth=2
	decl	%eax
	movq	1160(%r13), %rcx
	leaq	(%rax,%rax,8), %rax
	leaq	40(%rcx,%rax,8), %rsi
	movq	%r13, %rdi
	callq	dsc_parse_media
	jmp	.LBB9_1321
.LBB9_1080:                             # %cond.false.1243.i
                                        #   in Loop: Header=BB9_189 Depth=2
	movl	$.L.str.128, %esi
	movl	$13, %edx
	movq	%rbp, %rdi
	callq	strncmp
	jmp	.LBB9_1081
.LBB9_721:                              # %cond.false.576.i
                                        #   in Loop: Header=BB9_189 Depth=2
	movl	$.L.str.116, %esi
	movq	%r12, %rdi
	callq	strcmp
.LBB9_723:                              # %cond.end.582.i
                                        #   in Loop: Header=BB9_189 Depth=2
	testl	%eax, %eax
	je	.LBB9_724
# BB#725:                               # %if.else.589.i
                                        #   in Loop: Header=BB9_189 Depth=2
	movl	$.L.str.127, %edi
	callq	strlen
	movq	%rax, %rcx
	cmpq	$9, %rcx
	ja	.LBB9_735
# BB#726:                               # %land.lhs.true.599.i
                                        #   in Loop: Header=BB9_189 Depth=2
	cmpq	$3, %rcx
	ja	.LBB9_734
# BB#727:                               # %cond.true.603.i
                                        #   in Loop: Header=BB9_189 Depth=2
	movzbl	(%r12), %eax
	addl	$-37, %eax
	testq	%rcx, %rcx
	je	.LBB9_736
# BB#728:                               # %cond.true.603.i
                                        #   in Loop: Header=BB9_189 Depth=2
	testl	%eax, %eax
	jne	.LBB9_736
# BB#729:                               # %if.then.617.i.528
                                        #   in Loop: Header=BB9_189 Depth=2
	movzbl	1(%r12), %eax
	addl	$-37, %eax
	cmpq	$2, %rcx
	jb	.LBB9_736
# BB#730:                               # %if.then.617.i.528
                                        #   in Loop: Header=BB9_189 Depth=2
	testl	%eax, %eax
	jne	.LBB9_736
# BB#731:                               # %if.then.627.i.533
                                        #   in Loop: Header=BB9_189 Depth=2
	movzbl	2(%r12), %eax
	addl	$-70, %eax
	cmpq	$3, %rcx
	jb	.LBB9_736
# BB#732:                               # %if.then.627.i.533
                                        #   in Loop: Header=BB9_189 Depth=2
	testl	%eax, %eax
	jne	.LBB9_736
# BB#733:                               # %if.then.637.i
                                        #   in Loop: Header=BB9_189 Depth=2
	movzbl	3(%r12), %eax
	addl	$-101, %eax
	jmp	.LBB9_736
.LBB9_724:                              # %if.then.586.i
                                        #   in Loop: Header=BB9_189 Depth=2
	movl	$506, 1296(%r13)        # imm = 0x1FA
	decl	1348(%r13)
	jmp	.LBB9_837
.LBB9_735:                              # %cond.false.650.i
                                        #   in Loop: Header=BB9_189 Depth=2
	movl	$.L.str.127, %esi
	movl	$10, %edx
	movq	%r12, %rdi
	callq	strncmp
	jmp	.LBB9_736
.LBB9_573:                              # %cond.false.777.i
                                        #   in Loop: Header=BB9_189 Depth=2
	movl	$.L.str.117, %esi
	movq	%r12, %rdi
	callq	strcmp
.LBB9_575:                              # %cond.end.783.i
                                        #   in Loop: Header=BB9_189 Depth=2
	testl	%eax, %eax
	je	.LBB9_576
# BB#577:                               # %if.else.790.i
                                        #   in Loop: Header=BB9_189 Depth=2
	movl	$.L.str.118, %edi
	callq	strlen
	movq	%rax, %rcx
	cmpq	$12, %rcx
	ja	.LBB9_587
# BB#578:                               # %land.lhs.true.800.i
                                        #   in Loop: Header=BB9_189 Depth=2
	cmpq	$3, %rcx
	ja	.LBB9_586
# BB#579:                               # %cond.true.804.i
                                        #   in Loop: Header=BB9_189 Depth=2
	movzbl	(%r12), %eax
	addl	$-37, %eax
	testq	%rcx, %rcx
	je	.LBB9_588
# BB#580:                               # %cond.true.804.i
                                        #   in Loop: Header=BB9_189 Depth=2
	testl	%eax, %eax
	jne	.LBB9_588
# BB#581:                               # %if.then.818.i
                                        #   in Loop: Header=BB9_189 Depth=2
	movzbl	1(%r12), %eax
	addl	$-37, %eax
	cmpq	$2, %rcx
	jb	.LBB9_588
# BB#582:                               # %if.then.818.i
                                        #   in Loop: Header=BB9_189 Depth=2
	testl	%eax, %eax
	jne	.LBB9_588
# BB#583:                               # %if.then.828.i
                                        #   in Loop: Header=BB9_189 Depth=2
	movzbl	2(%r12), %eax
	addl	$-69, %eax
	cmpq	$3, %rcx
	jb	.LBB9_588
# BB#584:                               # %if.then.828.i
                                        #   in Loop: Header=BB9_189 Depth=2
	testl	%eax, %eax
	jne	.LBB9_588
# BB#585:                               # %if.then.838.i
                                        #   in Loop: Header=BB9_189 Depth=2
	movzbl	3(%r12), %eax
	addl	$-110, %eax
	jmp	.LBB9_588
.LBB9_576:                              # %if.then.787.i
                                        #   in Loop: Header=BB9_189 Depth=2
	movl	$507, 1296(%r13)        # imm = 0x1FB
	incl	1352(%r13)
	jmp	.LBB9_617
.LBB9_587:                              # %cond.false.851.i
                                        #   in Loop: Header=BB9_189 Depth=2
	movl	$.L.str.118, %esi
	movl	$13, %edx
	movq	%r12, %rdi
	callq	strncmp
	jmp	.LBB9_588
.LBB9_1079:                             # %cond.false.1239.i
                                        #   in Loop: Header=BB9_189 Depth=2
	movl	$.L.str.128, %esi
	movq	%rbp, %rdi
	callq	strcmp
.LBB9_1081:                             # %cond.end.1245.i
                                        #   in Loop: Header=BB9_189 Depth=2
	testl	%eax, %eax
	je	.LBB9_1082
# BB#1083:                              # %if.else.1251.i
                                        #   in Loop: Header=BB9_189 Depth=2
	movl	$.L.str.129, %edi
	callq	strlen
	movq	%rax, %rcx
	cmpq	$11, %rcx
	ja	.LBB9_1093
# BB#1084:                              # %land.lhs.true.1261.i
                                        #   in Loop: Header=BB9_189 Depth=2
	cmpq	$3, %rcx
	ja	.LBB9_1092
# BB#1085:                              # %cond.true.1265.i
                                        #   in Loop: Header=BB9_189 Depth=2
	movzbl	(%rbp), %eax
	addl	$-37, %eax
	testq	%rcx, %rcx
	je	.LBB9_1094
# BB#1086:                              # %cond.true.1265.i
                                        #   in Loop: Header=BB9_189 Depth=2
	testl	%eax, %eax
	jne	.LBB9_1094
# BB#1087:                              # %if.then.1279.i
                                        #   in Loop: Header=BB9_189 Depth=2
	movzbl	1(%rbp), %eax
	addl	$-37, %eax
	cmpq	$2, %rcx
	jb	.LBB9_1094
# BB#1088:                              # %if.then.1279.i
                                        #   in Loop: Header=BB9_189 Depth=2
	testl	%eax, %eax
	jne	.LBB9_1094
# BB#1089:                              # %if.then.1289.i
                                        #   in Loop: Header=BB9_189 Depth=2
	movzbl	2(%rbp), %eax
	addl	$-80, %eax
	cmpq	$3, %rcx
	jb	.LBB9_1094
# BB#1090:                              # %if.then.1289.i
                                        #   in Loop: Header=BB9_189 Depth=2
	testl	%eax, %eax
	jne	.LBB9_1094
# BB#1091:                              # %if.then.1299.i
                                        #   in Loop: Header=BB9_189 Depth=2
	movzbl	3(%rbp), %eax
	addl	$-97, %eax
	jmp	.LBB9_1094
.LBB9_1082:                             # %if.then.1249.i
                                        #   in Loop: Header=BB9_189 Depth=2
	movl	$604, 1296(%r13)        # imm = 0x25C
	jmp	.LBB9_1321
.LBB9_1093:                             # %cond.false.1312.i
                                        #   in Loop: Header=BB9_189 Depth=2
	movl	$.L.str.129, %esi
	movl	$12, %edx
	movq	%rbp, %rdi
	callq	strncmp
	jmp	.LBB9_1094
.LBB9_734:                              # %cond.false.646.i
                                        #   in Loop: Header=BB9_189 Depth=2
	movl	$.L.str.127, %esi
	movq	%r12, %rdi
	callq	strcmp
.LBB9_736:                              # %cond.end.652.i
                                        #   in Loop: Header=BB9_189 Depth=2
	testl	%eax, %eax
	je	.LBB9_737
# BB#738:                               # %if.else.658.i
                                        #   in Loop: Header=BB9_189 Depth=2
	movl	$.L.str.117, %edi
	callq	strlen
	movq	%rax, %rcx
	cmpq	$15, %rcx
	ja	.LBB9_748
# BB#739:                               # %land.lhs.true.668.i
                                        #   in Loop: Header=BB9_189 Depth=2
	cmpq	$3, %rcx
	ja	.LBB9_747
# BB#740:                               # %cond.true.672.i
                                        #   in Loop: Header=BB9_189 Depth=2
	movzbl	(%r12), %eax
	addl	$-37, %eax
	testq	%rcx, %rcx
	je	.LBB9_749
# BB#741:                               # %cond.true.672.i
                                        #   in Loop: Header=BB9_189 Depth=2
	testl	%eax, %eax
	jne	.LBB9_749
# BB#742:                               # %if.then.686.i
                                        #   in Loop: Header=BB9_189 Depth=2
	movzbl	1(%r12), %eax
	addl	$-37, %eax
	cmpq	$2, %rcx
	jb	.LBB9_749
# BB#743:                               # %if.then.686.i
                                        #   in Loop: Header=BB9_189 Depth=2
	testl	%eax, %eax
	jne	.LBB9_749
# BB#744:                               # %if.then.696.i
                                        #   in Loop: Header=BB9_189 Depth=2
	movzbl	2(%r12), %eax
	addl	$-66, %eax
	cmpq	$3, %rcx
	jb	.LBB9_749
# BB#745:                               # %if.then.696.i
                                        #   in Loop: Header=BB9_189 Depth=2
	testl	%eax, %eax
	jne	.LBB9_749
# BB#746:                               # %if.then.706.i
                                        #   in Loop: Header=BB9_189 Depth=2
	movzbl	3(%r12), %eax
	addl	$-101, %eax
	jmp	.LBB9_749
.LBB9_737:                              # %if.then.656.i
                                        #   in Loop: Header=BB9_189 Depth=2
	movl	$603, 1296(%r13)        # imm = 0x25B
	jmp	.LBB9_837
.LBB9_748:                              # %cond.false.719.i
                                        #   in Loop: Header=BB9_189 Depth=2
	movl	$.L.str.117, %esi
	movl	$16, %edx
	movq	%r12, %rdi
	callq	strncmp
	jmp	.LBB9_749
.LBB9_586:                              # %cond.false.847.i
                                        #   in Loop: Header=BB9_189 Depth=2
	movl	$.L.str.118, %esi
	movq	%r12, %rdi
	callq	strcmp
.LBB9_588:                              # %cond.end.853.i
                                        #   in Loop: Header=BB9_189 Depth=2
	testl	%eax, %eax
	je	.LBB9_589
# BB#590:                               # %if.else.861.i
                                        #   in Loop: Header=BB9_189 Depth=2
	movl	$.L.str.119, %edi
	callq	strlen
	movq	%rax, %rcx
	cmpq	$14, %rcx
	ja	.LBB9_600
# BB#591:                               # %land.lhs.true.871.i
                                        #   in Loop: Header=BB9_189 Depth=2
	cmpq	$3, %rcx
	ja	.LBB9_599
# BB#592:                               # %cond.true.875.i
                                        #   in Loop: Header=BB9_189 Depth=2
	movzbl	(%r12), %eax
	addl	$-37, %eax
	testq	%rcx, %rcx
	je	.LBB9_601
# BB#593:                               # %cond.true.875.i
                                        #   in Loop: Header=BB9_189 Depth=2
	testl	%eax, %eax
	jne	.LBB9_601
# BB#594:                               # %if.then.889.i
                                        #   in Loop: Header=BB9_189 Depth=2
	movzbl	1(%r12), %eax
	addl	$-37, %eax
	cmpq	$2, %rcx
	jb	.LBB9_601
# BB#595:                               # %if.then.889.i
                                        #   in Loop: Header=BB9_189 Depth=2
	testl	%eax, %eax
	jne	.LBB9_601
# BB#596:                               # %if.then.899.i
                                        #   in Loop: Header=BB9_189 Depth=2
	movzbl	2(%r12), %eax
	addl	$-66, %eax
	cmpq	$3, %rcx
	jb	.LBB9_601
# BB#597:                               # %if.then.899.i
                                        #   in Loop: Header=BB9_189 Depth=2
	testl	%eax, %eax
	jne	.LBB9_601
# BB#598:                               # %if.then.909.i
                                        #   in Loop: Header=BB9_189 Depth=2
	movzbl	3(%r12), %eax
	addl	$-101, %eax
	jmp	.LBB9_601
.LBB9_589:                              # %if.then.857.i
                                        #   in Loop: Header=BB9_189 Depth=2
	movl	$508, 1296(%r13)        # imm = 0x1FC
	decl	1352(%r13)
	jmp	.LBB9_617
.LBB9_600:                              # %cond.false.922.i
                                        #   in Loop: Header=BB9_189 Depth=2
	movl	$.L.str.119, %esi
	movl	$15, %edx
	movq	%r12, %rdi
	callq	strncmp
	jmp	.LBB9_601
.LBB9_1092:                             # %cond.false.1308.i
                                        #   in Loop: Header=BB9_189 Depth=2
	movl	$.L.str.129, %esi
	movq	%rbp, %rdi
	callq	strcmp
.LBB9_1094:                             # %cond.end.1314.i
                                        #   in Loop: Header=BB9_189 Depth=2
	testl	%eax, %eax
	je	.LBB9_1095
# BB#1096:                              # %if.else.1320.i
                                        #   in Loop: Header=BB9_189 Depth=2
	movl	$.L.str.130, %edi
	callq	strlen
	movq	%rax, %rcx
	cmpq	$13, %rcx
	ja	.LBB9_1106
# BB#1097:                              # %land.lhs.true.1330.i
                                        #   in Loop: Header=BB9_189 Depth=2
	cmpq	$3, %rcx
	ja	.LBB9_1105
# BB#1098:                              # %cond.true.1334.i
                                        #   in Loop: Header=BB9_189 Depth=2
	movzbl	(%rbp), %eax
	addl	$-37, %eax
	testq	%rcx, %rcx
	je	.LBB9_1107
# BB#1099:                              # %cond.true.1334.i
                                        #   in Loop: Header=BB9_189 Depth=2
	testl	%eax, %eax
	jne	.LBB9_1107
# BB#1100:                              # %if.then.1348.i
                                        #   in Loop: Header=BB9_189 Depth=2
	movzbl	1(%rbp), %eax
	addl	$-37, %eax
	cmpq	$2, %rcx
	jb	.LBB9_1107
# BB#1101:                              # %if.then.1348.i
                                        #   in Loop: Header=BB9_189 Depth=2
	testl	%eax, %eax
	jne	.LBB9_1107
# BB#1102:                              # %if.then.1358.i
                                        #   in Loop: Header=BB9_189 Depth=2
	movzbl	2(%rbp), %eax
	addl	$-80, %eax
	cmpq	$3, %rcx
	jb	.LBB9_1107
# BB#1103:                              # %if.then.1358.i
                                        #   in Loop: Header=BB9_189 Depth=2
	testl	%eax, %eax
	jne	.LBB9_1107
# BB#1104:                              # %if.then.1368.i
                                        #   in Loop: Header=BB9_189 Depth=2
	movzbl	3(%rbp), %eax
	addl	$-97, %eax
	jmp	.LBB9_1107
.LBB9_1095:                             # %if.then.1318.i
                                        #   in Loop: Header=BB9_189 Depth=2
	movl	$605, 1296(%r13)        # imm = 0x25D
	jmp	.LBB9_1321
.LBB9_1106:                             # %cond.false.1381.i
                                        #   in Loop: Header=BB9_189 Depth=2
	movl	$.L.str.130, %esi
	movl	$14, %edx
	movq	%rbp, %rdi
	callq	strncmp
	jmp	.LBB9_1107
.LBB9_747:                              # %cond.false.715.i
                                        #   in Loop: Header=BB9_189 Depth=2
	movl	$.L.str.117, %esi
	movq	%r12, %rdi
	callq	strcmp
.LBB9_749:                              # %cond.end.721.i
                                        #   in Loop: Header=BB9_189 Depth=2
	testl	%eax, %eax
	je	.LBB9_750
# BB#751:                               # %if.else.728.i
                                        #   in Loop: Header=BB9_189 Depth=2
	movl	$.L.str.118, %edi
	callq	strlen
	movq	%rax, %rcx
	cmpq	$12, %rcx
	ja	.LBB9_761
# BB#752:                               # %land.lhs.true.738.i
                                        #   in Loop: Header=BB9_189 Depth=2
	cmpq	$3, %rcx
	ja	.LBB9_760
# BB#753:                               # %cond.true.742.i
                                        #   in Loop: Header=BB9_189 Depth=2
	movzbl	(%r12), %eax
	addl	$-37, %eax
	testq	%rcx, %rcx
	je	.LBB9_762
# BB#754:                               # %cond.true.742.i
                                        #   in Loop: Header=BB9_189 Depth=2
	testl	%eax, %eax
	jne	.LBB9_762
# BB#755:                               # %if.then.756.i
                                        #   in Loop: Header=BB9_189 Depth=2
	movzbl	1(%r12), %eax
	addl	$-37, %eax
	cmpq	$2, %rcx
	jb	.LBB9_762
# BB#756:                               # %if.then.756.i
                                        #   in Loop: Header=BB9_189 Depth=2
	testl	%eax, %eax
	jne	.LBB9_762
# BB#757:                               # %if.then.766.i
                                        #   in Loop: Header=BB9_189 Depth=2
	movzbl	2(%r12), %eax
	addl	$-69, %eax
	cmpq	$3, %rcx
	jb	.LBB9_762
# BB#758:                               # %if.then.766.i
                                        #   in Loop: Header=BB9_189 Depth=2
	testl	%eax, %eax
	jne	.LBB9_762
# BB#759:                               # %if.then.776.i
                                        #   in Loop: Header=BB9_189 Depth=2
	movzbl	3(%r12), %eax
	addl	$-110, %eax
	jmp	.LBB9_762
.LBB9_750:                              # %if.then.725.i
                                        #   in Loop: Header=BB9_189 Depth=2
	movl	$507, 1296(%r13)        # imm = 0x1FB
	incl	1352(%r13)
	jmp	.LBB9_837
.LBB9_761:                              # %cond.false.789.i
                                        #   in Loop: Header=BB9_189 Depth=2
	movl	$.L.str.118, %esi
	movl	$13, %edx
	movq	%r12, %rdi
	callq	strncmp
	jmp	.LBB9_762
.LBB9_599:                              # %cond.false.918.i
                                        #   in Loop: Header=BB9_189 Depth=2
	movl	$.L.str.119, %esi
	movq	%r12, %rdi
	callq	strcmp
.LBB9_601:                              # %cond.end.924.i
                                        #   in Loop: Header=BB9_189 Depth=2
	testl	%eax, %eax
	je	.LBB9_602
# BB#603:                               # %if.else.931.i
                                        #   in Loop: Header=BB9_189 Depth=2
	movl	$.L.str.120, %edi
	callq	strlen
	movq	%rax, %rcx
	cmpq	$11, %rcx
	ja	.LBB9_613
# BB#604:                               # %land.lhs.true.941.i
                                        #   in Loop: Header=BB9_189 Depth=2
	cmpq	$3, %rcx
	ja	.LBB9_612
# BB#605:                               # %cond.true.945.i
                                        #   in Loop: Header=BB9_189 Depth=2
	movzbl	(%r12), %eax
	addl	$-37, %eax
	testq	%rcx, %rcx
	je	.LBB9_614
# BB#606:                               # %cond.true.945.i
                                        #   in Loop: Header=BB9_189 Depth=2
	testl	%eax, %eax
	jne	.LBB9_614
# BB#607:                               # %if.then.959.i
                                        #   in Loop: Header=BB9_189 Depth=2
	movzbl	1(%r12), %eax
	addl	$-37, %eax
	cmpq	$2, %rcx
	jb	.LBB9_614
# BB#608:                               # %if.then.959.i
                                        #   in Loop: Header=BB9_189 Depth=2
	testl	%eax, %eax
	jne	.LBB9_614
# BB#609:                               # %if.then.969.i
                                        #   in Loop: Header=BB9_189 Depth=2
	movzbl	2(%r12), %eax
	addl	$-69, %eax
	cmpq	$3, %rcx
	jb	.LBB9_614
# BB#610:                               # %if.then.969.i
                                        #   in Loop: Header=BB9_189 Depth=2
	testl	%eax, %eax
	jne	.LBB9_614
# BB#611:                               # %if.then.979.i
                                        #   in Loop: Header=BB9_189 Depth=2
	movzbl	3(%r12), %eax
	addl	$-110, %eax
	jmp	.LBB9_614
.LBB9_602:                              # %if.then.928.i
                                        #   in Loop: Header=BB9_189 Depth=2
	movl	$509, 1296(%r13)        # imm = 0x1FD
	incl	1356(%r13)
	jmp	.LBB9_617
.LBB9_613:                              # %cond.false.992.i
                                        #   in Loop: Header=BB9_189 Depth=2
	movl	$.L.str.120, %esi
	movl	$12, %edx
	movq	%r12, %rdi
	callq	strncmp
	jmp	.LBB9_614
.LBB9_1105:                             # %cond.false.1377.i
                                        #   in Loop: Header=BB9_189 Depth=2
	movl	$.L.str.130, %esi
	movq	%rbp, %rdi
	callq	strcmp
.LBB9_1107:                             # %cond.end.1383.i
                                        #   in Loop: Header=BB9_189 Depth=2
	testl	%eax, %eax
	je	.LBB9_1108
# BB#1109:                              # %if.else.1389.i
                                        #   in Loop: Header=BB9_189 Depth=2
	movl	$.L.str.131, %edi
	callq	strlen
	movq	%rax, %rcx
	cmpq	$11, %rcx
	ja	.LBB9_1119
# BB#1110:                              # %land.lhs.true.1399.i
                                        #   in Loop: Header=BB9_189 Depth=2
	cmpq	$3, %rcx
	ja	.LBB9_1118
# BB#1111:                              # %cond.true.1403.i
                                        #   in Loop: Header=BB9_189 Depth=2
	movzbl	(%rbp), %eax
	addl	$-37, %eax
	testq	%rcx, %rcx
	je	.LBB9_1120
# BB#1112:                              # %cond.true.1403.i
                                        #   in Loop: Header=BB9_189 Depth=2
	testl	%eax, %eax
	jne	.LBB9_1120
# BB#1113:                              # %if.then.1417.i
                                        #   in Loop: Header=BB9_189 Depth=2
	movzbl	1(%rbp), %eax
	addl	$-37, %eax
	cmpq	$2, %rcx
	jb	.LBB9_1120
# BB#1114:                              # %if.then.1417.i
                                        #   in Loop: Header=BB9_189 Depth=2
	testl	%eax, %eax
	jne	.LBB9_1120
# BB#1115:                              # %if.then.1427.i
                                        #   in Loop: Header=BB9_189 Depth=2
	movzbl	2(%rbp), %eax
	addl	$-80, %eax
	cmpq	$3, %rcx
	jb	.LBB9_1120
# BB#1116:                              # %if.then.1427.i
                                        #   in Loop: Header=BB9_189 Depth=2
	testl	%eax, %eax
	jne	.LBB9_1120
# BB#1117:                              # %if.then.1437.i
                                        #   in Loop: Header=BB9_189 Depth=2
	movzbl	3(%rbp), %eax
	addl	$-97, %eax
	jmp	.LBB9_1120
.LBB9_1108:                             # %if.then.1387.i
                                        #   in Loop: Header=BB9_189 Depth=2
	movl	$606, 1296(%r13)        # imm = 0x25E
	jmp	.LBB9_1321
.LBB9_1119:                             # %cond.false.1450.i
                                        #   in Loop: Header=BB9_189 Depth=2
	movl	$.L.str.131, %esi
	movl	$12, %edx
	movq	%rbp, %rdi
	callq	strncmp
	jmp	.LBB9_1120
.LBB9_760:                              # %cond.false.785.i
                                        #   in Loop: Header=BB9_189 Depth=2
	movl	$.L.str.118, %esi
	movq	%r12, %rdi
	callq	strcmp
.LBB9_762:                              # %cond.end.791.i
