	.text
	.file	"fns.bc"
	.globl	Fidentity
	.align	16, 0x90
	.type	Fidentity,@function
Fidentity:                              # @Fidentity
	.cfi_startproc
# BB#0:                                 # %entry
	pushq	%rbp
.Ltmp0:
	.cfi_def_cfa_offset 16
.Ltmp1:
	.cfi_offset %rbp, -16
	movq	%rsp, %rbp
.Ltmp2:
	.cfi_def_cfa_register %rbp
	movq	%rdi, -8(%rbp)
	movq	-8(%rbp), %rax
	popq	%rbp
	retq
.Lfunc_end0:
	.size	Fidentity, .Lfunc_end0-Fidentity
	.cfi_endproc

	.globl	Frandom
	.align	16, 0x90
	.type	Frandom,@function
Frandom:                                # @Frandom
	.cfi_startproc
# BB#0:                                 # %entry
	pushq	%rbp
.Ltmp3:
	.cfi_def_cfa_offset 16
.Ltmp4:
	.cfi_offset %rbp, -16
	movq	%rsp, %rbp
.Ltmp5:
	.cfi_def_cfa_register %rbp
	subq	$64, %rsp
	movl	$901, %eax              # imm = 0x385
	movq	%rdi, -16(%rbp)
	movq	-16(%rbp), %rdi
	movq	%rdi, -40(%rbp)         # 8-byte Spill
	movl	%eax, %edi
	callq	builtin_lisp_symbol
	movq	-40(%rbp), %rcx         # 8-byte Reload
	cmpq	%rax, %rcx
	jne	.LBB1_2
# BB#1:                                 # %if.then
	callq	init_random
	jmp	.LBB1_5
.LBB1_2:                                # %if.else
	movq	-16(%rbp), %rdi
	callq	STRINGP
	testb	$1, %al
	jne	.LBB1_3
	jmp	.LBB1_4
.LBB1_3:                                # %if.then.2
	movq	-16(%rbp), %rdi
	callq	SSDATA
	movq	-16(%rbp), %rdi
	movq	%rax, -48(%rbp)         # 8-byte Spill
	callq	SBYTES
	movq	-48(%rbp), %rdi         # 8-byte Reload
	movq	%rax, %rsi
	callq	seed_random
.LBB1_4:                                # %if.end
	jmp	.LBB1_5
.LBB1_5:                                # %if.end.5
	callq	get_random
	movq	%rax, -24(%rbp)
	movq	-16(%rbp), %rax
	andq	$7, %rax
	movl	%eax, %ecx
	andl	$-5, %ecx
	cmpl	$2, %ecx
	jne	.LBB1_11
# BB#6:                                 # %land.lhs.true
	xorl	%eax, %eax
	movl	%eax, %ecx
	movq	-16(%rbp), %rdx
	sarq	$2, %rdx
	cmpq	%rdx, %rcx
	jge	.LBB1_11
# BB#7:                                 # %if.then.12
	jmp	.LBB1_8
.LBB1_8:                                # %while.body
                                        # =>This Inner Loop Header: Depth=1
	movabsq	$4611686018427387903, %rax # imm = 0x3FFFFFFFFFFFFFFF
	movq	-24(%rbp), %rcx
	movq	-16(%rbp), %rdx
	sarq	$2, %rdx
	movq	%rax, -56(%rbp)         # 8-byte Spill
	movq	%rcx, %rax
	movq	%rdx, -64(%rbp)         # 8-byte Spill
	cqto
	movq	-64(%rbp), %rcx         # 8-byte Reload
	idivq	%rcx
	movq	%rdx, -32(%rbp)
	movq	-24(%rbp), %rdx
	subq	-32(%rbp), %rdx
	movq	-16(%rbp), %rsi
	sarq	$2, %rsi
	movq	-56(%rbp), %rdi         # 8-byte Reload
	subq	%rsi, %rdi
	addq	$1, %rdi
	cmpq	%rdi, %rdx
	jg	.LBB1_10
# BB#9:                                 # %if.then.18
	movq	-32(%rbp), %rax
	shlq	$2, %rax
	addq	$2, %rax
	movq	%rax, -8(%rbp)
	jmp	.LBB1_12
.LBB1_10:                               # %if.end.20
                                        #   in Loop: Header=BB1_8 Depth=1
	callq	get_random
	movq	%rax, -24(%rbp)
	jmp	.LBB1_8
.LBB1_11:                               # %if.end.22
	movq	-24(%rbp), %rax
	shlq	$2, %rax
	addq	$2, %rax
	movq	%rax, -8(%rbp)
.LBB1_12:                               # %return
	movq	-8(%rbp), %rax
	addq	$64, %rsp
	popq	%rbp
	retq
.Lfunc_end1:
	.size	Frandom, .Lfunc_end1-Frandom
	.cfi_endproc

	.globl	Flength
	.align	16, 0x90
	.type	Flength,@function
Flength:                                # @Flength
	.cfi_startproc
# BB#0:                                 # %entry
	pushq	%rbp
.Ltmp6:
	.cfi_def_cfa_offset 16
.Ltmp7:
	.cfi_offset %rbp, -16
	movq	%rsp, %rbp
.Ltmp8:
	.cfi_def_cfa_register %rbp
	subq	$64, %rsp
	movq	%rdi, -8(%rbp)
	movq	-8(%rbp), %rdi
	callq	STRINGP
	testb	$1, %al
	jne	.LBB2_1
	jmp	.LBB2_2
.LBB2_1:                                # %if.then
	movq	-8(%rbp), %rdi
	callq	SCHARS
	movq	%rax, %rdi
	callq	make_natnum
	movq	%rax, -16(%rbp)
	jmp	.LBB2_36
.LBB2_2:                                # %if.else
	movq	-8(%rbp), %rdi
	callq	VECTORP
	testb	$1, %al
	jne	.LBB2_3
	jmp	.LBB2_4
.LBB2_3:                                # %if.then.4
	movq	-8(%rbp), %rdi
	callq	ASIZE
	movq	%rax, %rdi
	callq	make_natnum
	movq	%rax, -16(%rbp)
	jmp	.LBB2_35
.LBB2_4:                                # %if.else.7
	movq	-8(%rbp), %rdi
	callq	CHAR_TABLE_P
	testb	$1, %al
	jne	.LBB2_5
	jmp	.LBB2_6
.LBB2_5:                                # %if.then.9
	movl	$4194303, %eax          # imm = 0x3FFFFF
	movl	%eax, %edi
	callq	make_natnum
	movq	%rax, -16(%rbp)
	jmp	.LBB2_34
.LBB2_6:                                # %if.else.11
	movq	-8(%rbp), %rdi
	callq	BOOL_VECTOR_P
	testb	$1, %al
	jne	.LBB2_7
	jmp	.LBB2_8
.LBB2_7:                                # %if.then.13
	movq	-8(%rbp), %rdi
	callq	bool_vector_size
	movq	%rax, %rdi
	callq	make_natnum
	movq	%rax, -16(%rbp)
	jmp	.LBB2_33
.LBB2_8:                                # %if.else.16
	movq	-8(%rbp), %rdi
	callq	COMPILEDP
	testb	$1, %al
	jne	.LBB2_9
	jmp	.LBB2_10
.LBB2_9:                                # %if.then.18
	movq	-8(%rbp), %rdi
	callq	ASIZE
	andq	$4095, %rax             # imm = 0xFFF
	movq	%rax, %rdi
	callq	make_natnum
	movq	%rax, -16(%rbp)
	jmp	.LBB2_32
.LBB2_10:                               # %if.else.21
	movq	-8(%rbp), %rax
	andq	$7, %rax
	movl	%eax, %ecx
	cmpl	$3, %ecx
	jne	.LBB2_27
# BB#11:                                # %if.then.24
	movq	$0, -24(%rbp)
.LBB2_12:                               # %do.body
                                        # =>This Inner Loop Header: Depth=1
	movq	-24(%rbp), %rax
	addq	$1, %rax
	movq	%rax, -24(%rbp)
	movq	-24(%rbp), %rax
	andq	$65535, %rax            # imm = 0xFFFF
	cmpq	$0, %rax
	jne	.LBB2_24
# BB#13:                                # %if.then.28
                                        #   in Loop: Header=BB2_12 Depth=1
	movabsq	$2305843009213693951, %rax # imm = 0x1FFFFFFFFFFFFFFF
	cmpq	-24(%rbp), %rax
	jge	.LBB2_15
# BB#14:                                # %if.then.31
	movabsq	$.L.str, %rdi
	movb	$0, %al
	callq	error
.LBB2_15:                               # %if.end
                                        #   in Loop: Header=BB2_12 Depth=1
	jmp	.LBB2_16
.LBB2_16:                               # %do.body.32
                                        #   in Loop: Header=BB2_12 Depth=1
	xorl	%edi, %edi
	movq	globals+1928, %rax
	movq	%rax, -32(%rbp)         # 8-byte Spill
	callq	builtin_lisp_symbol
	movq	-32(%rbp), %rcx         # 8-byte Reload
	cmpq	%rax, %rcx
	je	.LBB2_19
# BB#17:                                # %land.lhs.true
                                        #   in Loop: Header=BB2_12 Depth=1
	xorl	%edi, %edi
	movq	globals+1104, %rax
	movq	%rax, -40(%rbp)         # 8-byte Spill
	callq	builtin_lisp_symbol
	movq	-40(%rbp), %rcx         # 8-byte Reload
	cmpq	%rax, %rcx
	jne	.LBB2_19
# BB#18:                                # %if.then.39
                                        #   in Loop: Header=BB2_12 Depth=1
	callq	process_quit_flag
	jmp	.LBB2_22
.LBB2_19:                               # %if.else.40
                                        #   in Loop: Header=BB2_12 Depth=1
	movb	pending_signals, %al
	testb	$1, %al
	je	.LBB2_21
# BB#20:                                # %if.then.41
                                        #   in Loop: Header=BB2_12 Depth=1
	callq	process_pending_signals
.LBB2_21:                               # %if.end.42
                                        #   in Loop: Header=BB2_12 Depth=1
	jmp	.LBB2_22
.LBB2_22:                               # %if.end.43
                                        #   in Loop: Header=BB2_12 Depth=1
	jmp	.LBB2_23
.LBB2_23:                               # %do.end
                                        #   in Loop: Header=BB2_12 Depth=1
	jmp	.LBB2_24
.LBB2_24:                               # %if.end.44
                                        #   in Loop: Header=BB2_12 Depth=1
	movq	-8(%rbp), %rax
	subq	$3, %rax
	movq	8(%rax), %rax
	movq	%rax, -8(%rbp)
# BB#25:                                # %do.cond
                                        #   in Loop: Header=BB2_12 Depth=1
	movq	-8(%rbp), %rax
	andq	$7, %rax
	movl	%eax, %ecx
	cmpl	$3, %ecx
	je	.LBB2_12
# BB#26:                                # %do.end.49
	movq	-8(%rbp), %rdi
	movq	-8(%rbp), %rsi
	callq	CHECK_LIST_END
	movq	-24(%rbp), %rsi
	shlq	$2, %rsi
	addq	$2, %rsi
	movq	%rsi, -16(%rbp)
	jmp	.LBB2_31
.LBB2_27:                               # %if.else.50
	xorl	%edi, %edi
	movq	-8(%rbp), %rax
	movq	%rax, -48(%rbp)         # 8-byte Spill
	callq	builtin_lisp_symbol
	movq	-48(%rbp), %rcx         # 8-byte Reload
	cmpq	%rax, %rcx
	jne	.LBB2_29
# BB#28:                                # %if.then.54
	xorl	%eax, %eax
	movl	%eax, %edi
	callq	make_natnum
	movq	%rax, -16(%rbp)
	jmp	.LBB2_30
.LBB2_29:                               # %if.else.56
	movl	$844, %edi              # imm = 0x34C
	callq	builtin_lisp_symbol
	movq	-8(%rbp), %rsi
	movq	%rax, %rdi
	callq	wrong_type_argument
	movq	%rax, -56(%rbp)         # 8-byte Spill
.LBB2_30:                               # %if.end.58
	jmp	.LBB2_31
.LBB2_31:                               # %if.end.59
	jmp	.LBB2_32
.LBB2_32:                               # %if.end.60
	jmp	.LBB2_33
.LBB2_33:                               # %if.end.61
	jmp	.LBB2_34
.LBB2_34:                               # %if.end.62
	jmp	.LBB2_35
.LBB2_35:                               # %if.end.63
	jmp	.LBB2_36
.LBB2_36:                               # %if.end.64
	movq	-16(%rbp), %rax
	addq	$64, %rsp
	popq	%rbp
	retq
.Lfunc_end2:
	.size	Flength, .Lfunc_end2-Flength
	.cfi_endproc

	.align	16, 0x90
	.type	CHECK_LIST_END,@function
CHECK_LIST_END:                         # @CHECK_LIST_END
	.cfi_startproc
# BB#0:                                 # %entry
	pushq	%rbp
.Ltmp9:
	.cfi_def_cfa_offset 16
.Ltmp10:
	.cfi_offset %rbp, -16
	movq	%rsp, %rbp
.Ltmp11:
	.cfi_def_cfa_register %rbp
	subq	$32, %rsp
	xorl	%eax, %eax
	movq	%rdi, -8(%rbp)
	movq	%rsi, -16(%rbp)
	movq	-8(%rbp), %rsi
	movl	%eax, %edi
	movq	%rsi, -24(%rbp)         # 8-byte Spill
	callq	builtin_lisp_symbol
	movq	-24(%rbp), %rsi         # 8-byte Reload
	cmpq	%rax, %rsi
	jne	.LBB3_2
# BB#1:                                 # %cond.true
	jmp	.LBB3_3
.LBB3_2:                                # %cond.false
	movl	$626, %edi              # imm = 0x272
	callq	builtin_lisp_symbol
	movq	-16(%rbp), %rsi
	movq	%rax, %rdi
	callq	wrong_type_argument
	movq	%rax, -32(%rbp)         # 8-byte Spill
.LBB3_3:                                # %cond.end
	addq	$32, %rsp
	popq	%rbp
	retq
.Lfunc_end3:
	.size	CHECK_LIST_END, .Lfunc_end3-CHECK_LIST_END
	.cfi_endproc

	.section	.rodata.cst8,"aM",@progbits,8
	.align	8
.LCPI4_0:
	.quad	4895412794951729152     # double 1.8446744073709552E+19
	.section	.rodata.cst16,"aM",@progbits,16
	.align	16
.LCPI4_1:
	.long	1127219200              # 0x43300000
	.long	1160773632              # 0x45300000
	.long	0                       # 0x0
	.long	0                       # 0x0
.LCPI4_2:
	.quad	4841369599423283200     # double 4.503600e+15
	.quad	4985484787499139072     # double 1.934281e+25
	.text
	.globl	Fsafe_length
	.align	16, 0x90
	.type	Fsafe_length,@function
Fsafe_length:                           # @Fsafe_length
	.cfi_startproc
# BB#0:                                 # %entry
	pushq	%rbp
.Ltmp12:
	.cfi_def_cfa_offset 16
.Ltmp13:
	.cfi_offset %rbp, -16
	movq	%rsp, %rbp
.Ltmp14:
	.cfi_def_cfa_register %rbp
	subq	$80, %rsp
	xorps	%xmm0, %xmm0
	movq	%rdi, -16(%rbp)
	movsd	%xmm0, -40(%rbp)
	movq	$1, -48(%rbp)
	movq	-16(%rbp), %rdi
	andq	$7, %rdi
	movl	%edi, %eax
	cmpl	$3, %eax
	je	.LBB4_2
# BB#1:                                 # %if.then
	movq	$2, -8(%rbp)
	jmp	.LBB4_31
.LBB4_2:                                # %if.end
	movq	-16(%rbp), %rax
	movq	%rax, -32(%rbp)
	movq	%rax, -24(%rbp)
.LBB4_3:                                # %for.cond
                                        # =>This Inner Loop Header: Depth=1
	movq	-24(%rbp), %rax
	subq	$3, %rax
	movq	8(%rax), %rax
	movq	%rax, -24(%rbp)
	movq	-24(%rbp), %rax
	andq	$7, %rax
	movl	%eax, %ecx
	cmpl	$3, %ecx
	je	.LBB4_5
# BB#4:                                 # %if.then.6
	jmp	.LBB4_22
.LBB4_5:                                # %if.end.7
                                        #   in Loop: Header=BB4_3 Depth=1
	movq	-24(%rbp), %rax
	cmpq	-32(%rbp), %rax
	jne	.LBB4_7
# BB#6:                                 # %if.then.10
	jmp	.LBB4_22
.LBB4_7:                                # %if.end.11
                                        #   in Loop: Header=BB4_3 Depth=1
	movq	-48(%rbp), %rax
	addq	$1, %rax
	movq	%rax, -48(%rbp)
	movq	-48(%rbp), %rax
	andq	$1, %rax
	cmpq	$0, %rax
	jne	.LBB4_21
# BB#8:                                 # %if.then.15
                                        #   in Loop: Header=BB4_3 Depth=1
	movq	-32(%rbp), %rax
	subq	$3, %rax
	movq	8(%rax), %rax
	movq	%rax, -32(%rbp)
	movq	-48(%rbp), %rax
	andq	$65535, %rax            # imm = 0xFFFF
	cmpq	$0, %rax
	jne	.LBB4_20
# BB#9:                                 # %if.then.22
                                        #   in Loop: Header=BB4_3 Depth=1
	jmp	.LBB4_10
.LBB4_10:                               # %do.body
                                        #   in Loop: Header=BB4_3 Depth=1
	xorl	%edi, %edi
	movq	globals+1928, %rax
	movq	%rax, -56(%rbp)         # 8-byte Spill
	callq	builtin_lisp_symbol
	movq	-56(%rbp), %rcx         # 8-byte Reload
	cmpq	%rax, %rcx
	je	.LBB4_13
# BB#11:                                # %land.lhs.true
                                        #   in Loop: Header=BB4_3 Depth=1
	xorl	%edi, %edi
	movq	globals+1104, %rax
	movq	%rax, -64(%rbp)         # 8-byte Spill
	callq	builtin_lisp_symbol
	movq	-64(%rbp), %rcx         # 8-byte Reload
	cmpq	%rax, %rcx
	jne	.LBB4_13
# BB#12:                                # %if.then.28
                                        #   in Loop: Header=BB4_3 Depth=1
	callq	process_quit_flag
	jmp	.LBB4_16
.LBB4_13:                               # %if.else
                                        #   in Loop: Header=BB4_3 Depth=1
	movb	pending_signals, %al
	testb	$1, %al
	je	.LBB4_15
# BB#14:                                # %if.then.29
                                        #   in Loop: Header=BB4_3 Depth=1
	callq	process_pending_signals
.LBB4_15:                               # %if.end.30
                                        #   in Loop: Header=BB4_3 Depth=1
	jmp	.LBB4_16
.LBB4_16:                               # %if.end.31
                                        #   in Loop: Header=BB4_3 Depth=1
	jmp	.LBB4_17
.LBB4_17:                               # %do.end
                                        #   in Loop: Header=BB4_3 Depth=1
	cmpq	$0, -48(%rbp)
	jne	.LBB4_19
# BB#18:                                # %if.then.34
                                        #   in Loop: Header=BB4_3 Depth=1
	movsd	.LCPI4_0, %xmm0         # xmm0 = mem[0],zero
	addsd	-40(%rbp), %xmm0
	movsd	%xmm0, -40(%rbp)
.LBB4_19:                               # %if.end.35
                                        #   in Loop: Header=BB4_3 Depth=1
	jmp	.LBB4_20
.LBB4_20:                               # %if.end.36
                                        #   in Loop: Header=BB4_3 Depth=1
	jmp	.LBB4_21
.LBB4_21:                               # %if.end.37
                                        #   in Loop: Header=BB4_3 Depth=1
	jmp	.LBB4_3
.LBB4_22:                               # %for.end
	xorps	%xmm0, %xmm0
	movsd	-40(%rbp), %xmm1        # xmm1 = mem[0],zero
	ucomisd	%xmm0, %xmm1
	jne	.LBB4_23
	jp	.LBB4_23
	jmp	.LBB4_24
.LBB4_23:                               # %cond.true
	movsd	-40(%rbp), %xmm0        # xmm0 = mem[0],zero
	movaps	.LCPI4_1(%rip), %xmm1   # xmm1 = [1127219200,1160773632,0,0]
	movq	-48(%rbp), %xmm2        # xmm2 = mem[0],zero
	punpckldq	%xmm1, %xmm2    # xmm2 = xmm2[0],xmm1[0],xmm2[1],xmm1[1]
	movapd	.LCPI4_2(%rip), %xmm1   # xmm1 = [4.503600e+15,1.934281e+25]
	subpd	%xmm1, %xmm2
	pshufd	$78, %xmm2, %xmm1       # xmm1 = xmm2[2,3,0,1]
	addpd	%xmm2, %xmm1
	addsd	%xmm1, %xmm0
	callq	make_float
	movq	%rax, -72(%rbp)         # 8-byte Spill
	jmp	.LBB4_30
.LBB4_24:                               # %cond.false
	xorl	%eax, %eax
	movl	%eax, %ecx
	cmpq	-48(%rbp), %rcx
	jbe	.LBB4_26
# BB#25:                                # %lor.lhs.false
	movabsq	$-2305843009213693952, %rax # imm = 0xE000000000000000
	cmpq	-48(%rbp), %rax
	ja	.LBB4_27
.LBB4_26:                               # %land.lhs.true.46
	movabsq	$2305843009213693951, %rax # imm = 0x1FFFFFFFFFFFFFFF
	cmpq	%rax, -48(%rbp)
	jbe	.LBB4_28
.LBB4_27:                               # %cond.true.49
	movaps	.LCPI4_1(%rip), %xmm0   # xmm0 = [1127219200,1160773632,0,0]
	movq	-48(%rbp), %xmm1        # xmm1 = mem[0],zero
	punpckldq	%xmm0, %xmm1    # xmm1 = xmm1[0],xmm0[0],xmm1[1],xmm0[1]
	movapd	.LCPI4_2(%rip), %xmm0   # xmm0 = [4.503600e+15,1.934281e+25]
	subpd	%xmm0, %xmm1
	pshufd	$78, %xmm1, %xmm0       # xmm0 = xmm1[2,3,0,1]
	addpd	%xmm1, %xmm0
	callq	make_float
	movq	%rax, -80(%rbp)         # 8-byte Spill
	jmp	.LBB4_29
.LBB4_28:                               # %cond.false.52
	movq	-48(%rbp), %rax
	shlq	$2, %rax
	addq	$2, %rax
	movq	%rax, -80(%rbp)         # 8-byte Spill
.LBB4_29:                               # %cond.end
	movq	-80(%rbp), %rax         # 8-byte Reload
	movq	%rax, -72(%rbp)         # 8-byte Spill
.LBB4_30:                               # %cond.end.54
	movq	-72(%rbp), %rax         # 8-byte Reload
	movq	%rax, -8(%rbp)
.LBB4_31:                               # %return
	movq	-8(%rbp), %rax
	addq	$80, %rsp
	popq	%rbp
	retq
.Lfunc_end4:
	.size	Fsafe_length, .Lfunc_end4-Fsafe_length
	.cfi_endproc

	.globl	Fstring_bytes
	.align	16, 0x90
	.type	Fstring_bytes,@function
Fstring_bytes:                          # @Fstring_bytes
	.cfi_startproc
# BB#0:                                 # %entry
	pushq	%rbp
.Ltmp15:
	.cfi_def_cfa_offset 16
.Ltmp16:
	.cfi_offset %rbp, -16
	movq	%rsp, %rbp
.Ltmp17:
	.cfi_def_cfa_register %rbp
	subq	$16, %rsp
	movq	%rdi, -8(%rbp)
	movq	-8(%rbp), %rdi
	callq	CHECK_STRING
	movq	-8(%rbp), %rdi
	callq	SBYTES
	shlq	$2, %rax
	addq	$2, %rax
	addq	$16, %rsp
	popq	%rbp
	retq
.Lfunc_end5:
	.size	Fstring_bytes, .Lfunc_end5-Fstring_bytes
	.cfi_endproc

	.globl	Fstring_equal
	.align	16, 0x90
	.type	Fstring_equal,@function
Fstring_equal:                          # @Fstring_equal
	.cfi_startproc
# BB#0:                                 # %entry
	pushq	%rbp
.Ltmp18:
	.cfi_def_cfa_offset 16
.Ltmp19:
	.cfi_offset %rbp, -16
	movq	%rsp, %rbp
.Ltmp20:
	.cfi_def_cfa_register %rbp
	subq	$64, %rsp
	movq	%rdi, -16(%rbp)
	movq	%rsi, -24(%rbp)
	movq	-16(%rbp), %rsi
	andq	$7, %rsi
	movl	%esi, %eax
	cmpl	$0, %eax
	jne	.LBB6_2
# BB#1:                                 # %if.then
	movq	-16(%rbp), %rdi
	callq	SYMBOL_NAME
	movq	%rax, -16(%rbp)
.LBB6_2:                                # %if.end
	movq	-24(%rbp), %rax
	andq	$7, %rax
	movl	%eax, %ecx
	cmpl	$0, %ecx
	jne	.LBB6_4
# BB#3:                                 # %if.then.6
	movq	-24(%rbp), %rdi
	callq	SYMBOL_NAME
	movq	%rax, -24(%rbp)
.LBB6_4:                                # %if.end.8
	movq	-16(%rbp), %rdi
	callq	CHECK_STRING
	movq	-24(%rbp), %rdi
	callq	CHECK_STRING
	movq	-16(%rbp), %rdi
	callq	SCHARS
	movq	-24(%rbp), %rdi
	movq	%rax, -32(%rbp)         # 8-byte Spill
	callq	SCHARS
	movq	-32(%rbp), %rdi         # 8-byte Reload
	cmpq	%rax, %rdi
	jne	.LBB6_7
# BB#5:                                 # %lor.lhs.false
	movq	-16(%rbp), %rdi
	callq	SBYTES
	movq	-24(%rbp), %rdi
	movq	%rax, -40(%rbp)         # 8-byte Spill
	callq	SBYTES
	movq	-40(%rbp), %rdi         # 8-byte Reload
	cmpq	%rax, %rdi
	jne	.LBB6_7
# BB#6:                                 # %lor.lhs.false.17
	movq	-16(%rbp), %rdi
	callq	SDATA
	movq	-24(%rbp), %rdi
	movq	%rax, -48(%rbp)         # 8-byte Spill
	callq	SDATA
	movq	-16(%rbp), %rdi
	movq	%rax, -56(%rbp)         # 8-byte Spill
	callq	SBYTES
	movq	-48(%rbp), %rdi         # 8-byte Reload
	movq	-56(%rbp), %rsi         # 8-byte Reload
	movq	%rax, %rdx
	callq	memcmp
	cmpl	$0, %eax
	je	.LBB6_8
.LBB6_7:                                # %if.then.22
	xorl	%edi, %edi
	callq	builtin_lisp_symbol
	movq	%rax, -8(%rbp)
	jmp	.LBB6_9
.LBB6_8:                                # %if.end.24
	movl	$901, %edi              # imm = 0x385
	callq	builtin_lisp_symbol
	movq	%rax, -8(%rbp)
.LBB6_9:                                # %return
	movq	-8(%rbp), %rax
	addq	$64, %rsp
	popq	%rbp
	retq
.Lfunc_end6:
	.size	Fstring_equal, .Lfunc_end6-Fstring_equal
	.cfi_endproc

	.globl	Fcompare_strings
	.align	16, 0x90
	.type	Fcompare_strings,@function
Fcompare_strings:                       # @Fcompare_strings
	.cfi_startproc
# BB#0:                                 # %entry
	pushq	%rbp
.Ltmp21:
	.cfi_def_cfa_offset 16
.Ltmp22:
	.cfi_offset %rbp, -16
	movq	%rsp, %rbp
.Ltmp23:
	.cfi_def_cfa_register %rbp
	subq	$288, %rsp              # imm = 0x120
	movq	16(%rbp), %rax
	movq	%rdi, -16(%rbp)
	movq	%rsi, -24(%rbp)
	movq	%rdx, -32(%rbp)
	movq	%rcx, -40(%rbp)
	movq	%r8, -48(%rbp)
	movq	%r9, -56(%rbp)
	movq	%rax, -64(%rbp)
	movq	-16(%rbp), %rdi
	callq	CHECK_STRING
	movq	-40(%rbp), %rdi
	callq	CHECK_STRING
	movq	-32(%rbp), %rax
	andq	$7, %rax
	movl	%eax, %r10d
	andl	$-5, %r10d
	cmpl	$2, %r10d
	jne	.LBB7_3
# BB#1:                                 # %land.lhs.true
	movq	-16(%rbp), %rdi
	callq	SCHARS
	movq	-32(%rbp), %rdi
	sarq	$2, %rdi
	cmpq	%rdi, %rax
	jge	.LBB7_3
# BB#2:                                 # %if.then
	movq	-16(%rbp), %rdi
	callq	SCHARS
	shlq	$2, %rax
	addq	$2, %rax
	movq	%rax, -32(%rbp)
.LBB7_3:                                # %if.end
	movq	-56(%rbp), %rax
	andq	$7, %rax
	movl	%eax, %ecx
	andl	$-5, %ecx
	cmpl	$2, %ecx
	jne	.LBB7_6
# BB#4:                                 # %land.lhs.true.11
	movq	-40(%rbp), %rdi
	callq	SCHARS
	movq	-56(%rbp), %rdi
	sarq	$2, %rdi
	cmpq	%rdi, %rax
	jge	.LBB7_6
# BB#5:                                 # %if.then.16
	movq	-40(%rbp), %rdi
	callq	SCHARS
	shlq	$2, %rax
	addq	$2, %rax
	movq	%rax, -56(%rbp)
.LBB7_6:                                # %if.end.20
	movq	-16(%rbp), %rdi
	movq	-24(%rbp), %rsi
	movq	-32(%rbp), %rdx
	movq	-16(%rbp), %rax
	movq	%rdi, -176(%rbp)        # 8-byte Spill
	movq	%rax, %rdi
	movq	%rdx, -184(%rbp)        # 8-byte Spill
	movq	%rsi, -192(%rbp)        # 8-byte Spill
	callq	SCHARS
	leaq	-72(%rbp), %r8
	leaq	-80(%rbp), %r9
	movq	-176(%rbp), %rdi        # 8-byte Reload
	movq	-192(%rbp), %rsi        # 8-byte Reload
	movq	-184(%rbp), %rdx        # 8-byte Reload
	movq	%rax, %rcx
	callq	validate_subarray
	movq	-40(%rbp), %rdi
	movq	-48(%rbp), %rsi
	movq	-56(%rbp), %rdx
	movq	-40(%rbp), %rax
	movq	%rdi, -200(%rbp)        # 8-byte Spill
	movq	%rax, %rdi
	movq	%rdx, -208(%rbp)        # 8-byte Spill
	movq	%rsi, -216(%rbp)        # 8-byte Spill
	callq	SCHARS
	leaq	-88(%rbp), %r8
	leaq	-96(%rbp), %r9
	movq	-200(%rbp), %rdi        # 8-byte Reload
	movq	-216(%rbp), %rsi        # 8-byte Reload
	movq	-208(%rbp), %rdx        # 8-byte Reload
	movq	%rax, %rcx
	callq	validate_subarray
	movq	-72(%rbp), %rax
	movq	%rax, -104(%rbp)
	movq	-88(%rbp), %rax
	movq	%rax, -120(%rbp)
	movq	-16(%rbp), %rdi
	movq	-104(%rbp), %rsi
	callq	string_char_to_byte
	movq	%rax, -112(%rbp)
	movq	-40(%rbp), %rdi
	movq	-120(%rbp), %rsi
	callq	string_char_to_byte
	movq	%rax, -128(%rbp)
.LBB7_7:                                # %while.cond
                                        # =>This Inner Loop Header: Depth=1
	xorl	%eax, %eax
	movb	%al, %cl
	movq	-104(%rbp), %rdx
	cmpq	-80(%rbp), %rdx
	movb	%cl, -217(%rbp)         # 1-byte Spill
	jge	.LBB7_9
# BB#8:                                 # %land.rhs
                                        #   in Loop: Header=BB7_7 Depth=1
	movq	-120(%rbp), %rax
	cmpq	-96(%rbp), %rax
	setl	%cl
	movb	%cl, -217(%rbp)         # 1-byte Spill
.LBB7_9:                                # %land.end
                                        #   in Loop: Header=BB7_7 Depth=1
	movb	-217(%rbp), %al         # 1-byte Reload
	testb	$1, %al
	jne	.LBB7_10
	jmp	.LBB7_57
.LBB7_10:                               # %while.body
                                        #   in Loop: Header=BB7_7 Depth=1
	jmp	.LBB7_11
.LBB7_11:                               # %do.body
                                        #   in Loop: Header=BB7_7 Depth=1
	movq	-104(%rbp), %rax
	addq	$1, %rax
	movq	%rax, -104(%rbp)
	movq	-16(%rbp), %rdi
	callq	STRING_MULTIBYTE
	testb	$1, %al
	jne	.LBB7_12
	jmp	.LBB7_22
.LBB7_12:                               # %if.then.30
                                        #   in Loop: Header=BB7_7 Depth=1
	movq	-112(%rbp), %rax
	movq	-16(%rbp), %rdi
	movq	%rax, -232(%rbp)        # 8-byte Spill
	callq	SDATA
	movq	-232(%rbp), %rdi        # 8-byte Reload
	addq	%rdi, %rax
	movq	%rax, -144(%rbp)
	movq	-144(%rbp), %rax
	movzbl	(%rax), %ecx
	andl	$128, %ecx
	cmpl	$0, %ecx
	jne	.LBB7_14
# BB#13:                                # %cond.true
                                        #   in Loop: Header=BB7_7 Depth=1
	movl	$1, -148(%rbp)
	movq	-144(%rbp), %rax
	movzbl	(%rax), %ecx
	movl	%ecx, -236(%rbp)        # 4-byte Spill
	jmp	.LBB7_21
.LBB7_14:                               # %cond.false
                                        #   in Loop: Header=BB7_7 Depth=1
	movq	-144(%rbp), %rax
	movzbl	(%rax), %ecx
	andl	$32, %ecx
	cmpl	$0, %ecx
	jne	.LBB7_16
# BB#15:                                # %cond.true.41
                                        #   in Loop: Header=BB7_7 Depth=1
	xorl	%eax, %eax
	movl	$4194176, %ecx          # imm = 0x3FFF80
	movl	$2, -148(%rbp)
	movq	-144(%rbp), %rdx
	movzbl	(%rdx), %esi
	andl	$31, %esi
	shll	$6, %esi
	movq	-144(%rbp), %rdx
	movzbl	1(%rdx), %edi
	andl	$63, %edi
	orl	%edi, %esi
	movq	-144(%rbp), %rdx
	movzbl	(%rdx), %edi
	cmpl	$194, %edi
	cmovll	%ecx, %eax
	addl	%eax, %esi
	movl	%esi, -240(%rbp)        # 4-byte Spill
	jmp	.LBB7_20
.LBB7_16:                               # %cond.false.54
                                        #   in Loop: Header=BB7_7 Depth=1
	movq	-144(%rbp), %rax
	movzbl	(%rax), %ecx
	andl	$16, %ecx
	cmpl	$0, %ecx
	jne	.LBB7_18
# BB#17:                                # %cond.true.59
                                        #   in Loop: Header=BB7_7 Depth=1
	movl	$3, -148(%rbp)
	movq	-144(%rbp), %rax
	movzbl	(%rax), %ecx
	andl	$15, %ecx
	shll	$12, %ecx
	movq	-144(%rbp), %rax
	movzbl	1(%rax), %edx
	andl	$63, %edx
	shll	$6, %edx
	orl	%edx, %ecx
	movq	-144(%rbp), %rax
	movzbl	2(%rax), %edx
	andl	$63, %edx
	orl	%edx, %ecx
	movl	%ecx, -244(%rbp)        # 4-byte Spill
	jmp	.LBB7_19
.LBB7_18:                               # %cond.false.73
                                        #   in Loop: Header=BB7_7 Depth=1
	xorl	%eax, %eax
	movl	%eax, %esi
	leaq	-148(%rbp), %rdx
	movq	-144(%rbp), %rdi
	callq	string_char
	movl	%eax, -244(%rbp)        # 4-byte Spill
.LBB7_19:                               # %cond.end
                                        #   in Loop: Header=BB7_7 Depth=1
	movl	-244(%rbp), %eax        # 4-byte Reload
	movl	%eax, -240(%rbp)        # 4-byte Spill
.LBB7_20:                               # %cond.end.76
                                        #   in Loop: Header=BB7_7 Depth=1
	movl	-240(%rbp), %eax        # 4-byte Reload
	movl	%eax, -236(%rbp)        # 4-byte Spill
.LBB7_21:                               # %cond.end.78
                                        #   in Loop: Header=BB7_7 Depth=1
	movl	-236(%rbp), %eax        # 4-byte Reload
	movl	%eax, -132(%rbp)
	movslq	-148(%rbp), %rcx
	addq	-112(%rbp), %rcx
	movq	%rcx, -112(%rbp)
	jmp	.LBB7_28
.LBB7_22:                               # %if.else
                                        #   in Loop: Header=BB7_7 Depth=1
	movq	-16(%rbp), %rdi
	movq	-112(%rbp), %rsi
	callq	SREF
	movb	$1, %cl
	movzbl	%al, %edx
	movl	%edx, -132(%rbp)
	movq	-112(%rbp), %rsi
	addq	$1, %rsi
	movq	%rsi, -112(%rbp)
	testb	$1, %cl
	jne	.LBB7_23
	jmp	.LBB7_24
.LBB7_23:                               # %cond.true.85
                                        #   in Loop: Header=BB7_7 Depth=1
	movl	-132(%rbp), %eax
	addl	$0, %eax
	cmpl	$128, %eax
	jb	.LBB7_25
	jmp	.LBB7_26
.LBB7_24:                               # %cond.false.89
                                        #   in Loop: Header=BB7_7 Depth=1
	movslq	-132(%rbp), %rax
	addq	$0, %rax
	cmpq	$128, %rax
	jae	.LBB7_26
.LBB7_25:                               # %cond.true.94
                                        #   in Loop: Header=BB7_7 Depth=1
	movl	-132(%rbp), %eax
	movl	%eax, -248(%rbp)        # 4-byte Spill
	jmp	.LBB7_27
.LBB7_26:                               # %cond.false.95
                                        #   in Loop: Header=BB7_7 Depth=1
	movl	-132(%rbp), %eax
	addl	$4194048, %eax          # imm = 0x3FFF00
	movl	%eax, -248(%rbp)        # 4-byte Spill
.LBB7_27:                               # %cond.end.97
                                        #   in Loop: Header=BB7_7 Depth=1
	movl	-248(%rbp), %eax        # 4-byte Reload
	movl	%eax, -132(%rbp)
.LBB7_28:                               # %if.end.99
                                        #   in Loop: Header=BB7_7 Depth=1
	jmp	.LBB7_29
.LBB7_29:                               # %do.end
                                        #   in Loop: Header=BB7_7 Depth=1
	jmp	.LBB7_30
.LBB7_30:                               # %do.body.100
                                        #   in Loop: Header=BB7_7 Depth=1
	movq	-120(%rbp), %rax
	addq	$1, %rax
	movq	%rax, -120(%rbp)
	movq	-40(%rbp), %rdi
	callq	STRING_MULTIBYTE
	testb	$1, %al
	jne	.LBB7_31
	jmp	.LBB7_41
.LBB7_31:                               # %if.then.103
                                        #   in Loop: Header=BB7_7 Depth=1
	movq	-128(%rbp), %rax
	movq	-40(%rbp), %rdi
	movq	%rax, -256(%rbp)        # 8-byte Spill
	callq	SDATA
	movq	-256(%rbp), %rdi        # 8-byte Reload
	addq	%rdi, %rax
	movq	%rax, -160(%rbp)
	movq	-160(%rbp), %rax
	movzbl	(%rax), %ecx
	andl	$128, %ecx
	cmpl	$0, %ecx
	jne	.LBB7_33
# BB#32:                                # %cond.true.112
                                        #   in Loop: Header=BB7_7 Depth=1
	movl	$1, -164(%rbp)
	movq	-160(%rbp), %rax
	movzbl	(%rax), %ecx
	movl	%ecx, -260(%rbp)        # 4-byte Spill
	jmp	.LBB7_40
.LBB7_33:                               # %cond.false.115
                                        #   in Loop: Header=BB7_7 Depth=1
	movq	-160(%rbp), %rax
	movzbl	(%rax), %ecx
	andl	$32, %ecx
	cmpl	$0, %ecx
	jne	.LBB7_35
# BB#34:                                # %cond.true.120
                                        #   in Loop: Header=BB7_7 Depth=1
	xorl	%eax, %eax
	movl	$4194176, %ecx          # imm = 0x3FFF80
	movl	$2, -164(%rbp)
	movq	-160(%rbp), %rdx
	movzbl	(%rdx), %esi
	andl	$31, %esi
	shll	$6, %esi
	movq	-160(%rbp), %rdx
	movzbl	1(%rdx), %edi
	andl	$63, %edi
	orl	%edi, %esi
	movq	-160(%rbp), %rdx
	movzbl	(%rdx), %edi
	cmpl	$194, %edi
	cmovll	%ecx, %eax
	addl	%eax, %esi
	movl	%esi, -264(%rbp)        # 4-byte Spill
	jmp	.LBB7_39
.LBB7_35:                               # %cond.false.135
                                        #   in Loop: Header=BB7_7 Depth=1
	movq	-160(%rbp), %rax
	movzbl	(%rax), %ecx
	andl	$16, %ecx
	cmpl	$0, %ecx
	jne	.LBB7_37
# BB#36:                                # %cond.true.140
                                        #   in Loop: Header=BB7_7 Depth=1
	movl	$3, -164(%rbp)
	movq	-160(%rbp), %rax
	movzbl	(%rax), %ecx
	andl	$15, %ecx
	shll	$12, %ecx
	movq	-160(%rbp), %rax
	movzbl	1(%rax), %edx
	andl	$63, %edx
	shll	$6, %edx
	orl	%edx, %ecx
	movq	-160(%rbp), %rax
	movzbl	2(%rax), %edx
	andl	$63, %edx
	orl	%edx, %ecx
	movl	%ecx, -268(%rbp)        # 4-byte Spill
	jmp	.LBB7_38
.LBB7_37:                               # %cond.false.154
                                        #   in Loop: Header=BB7_7 Depth=1
	xorl	%eax, %eax
	movl	%eax, %esi
	leaq	-164(%rbp), %rdx
	movq	-160(%rbp), %rdi
	callq	string_char
	movl	%eax, -268(%rbp)        # 4-byte Spill
.LBB7_38:                               # %cond.end.156
                                        #   in Loop: Header=BB7_7 Depth=1
	movl	-268(%rbp), %eax        # 4-byte Reload
	movl	%eax, -264(%rbp)        # 4-byte Spill
.LBB7_39:                               # %cond.end.158
                                        #   in Loop: Header=BB7_7 Depth=1
	movl	-264(%rbp), %eax        # 4-byte Reload
	movl	%eax, -260(%rbp)        # 4-byte Spill
.LBB7_40:                               # %cond.end.160
                                        #   in Loop: Header=BB7_7 Depth=1
	movl	-260(%rbp), %eax        # 4-byte Reload
	movl	%eax, -136(%rbp)
	movslq	-164(%rbp), %rcx
	addq	-128(%rbp), %rcx
	movq	%rcx, -128(%rbp)
	jmp	.LBB7_47
.LBB7_41:                               # %if.else.164
                                        #   in Loop: Header=BB7_7 Depth=1
	movq	-40(%rbp), %rdi
	movq	-128(%rbp), %rsi
	callq	SREF
	movb	$1, %cl
	movzbl	%al, %edx
	movl	%edx, -136(%rbp)
	movq	-128(%rbp), %rsi
	addq	$1, %rsi
	movq	%rsi, -128(%rbp)
	testb	$1, %cl
	jne	.LBB7_42
	jmp	.LBB7_43
.LBB7_42:                               # %cond.true.168
                                        #   in Loop: Header=BB7_7 Depth=1
	movl	-136(%rbp), %eax
	addl	$0, %eax
	cmpl	$128, %eax
	jb	.LBB7_44
	jmp	.LBB7_45
.LBB7_43:                               # %cond.false.172
                                        #   in Loop: Header=BB7_7 Depth=1
	movslq	-136(%rbp), %rax
	addq	$0, %rax
	cmpq	$128, %rax
	jae	.LBB7_45
.LBB7_44:                               # %cond.true.177
                                        #   in Loop: Header=BB7_7 Depth=1
	movl	-136(%rbp), %eax
	movl	%eax, -272(%rbp)        # 4-byte Spill
	jmp	.LBB7_46
.LBB7_45:                               # %cond.false.178
                                        #   in Loop: Header=BB7_7 Depth=1
	movl	-136(%rbp), %eax
	addl	$4194048, %eax          # imm = 0x3FFF00
	movl	%eax, -272(%rbp)        # 4-byte Spill
.LBB7_46:                               # %cond.end.180
                                        #   in Loop: Header=BB7_7 Depth=1
	movl	-272(%rbp), %eax        # 4-byte Reload
	movl	%eax, -136(%rbp)
.LBB7_47:                               # %if.end.182
                                        #   in Loop: Header=BB7_7 Depth=1
	jmp	.LBB7_48
.LBB7_48:                               # %do.end.183
                                        #   in Loop: Header=BB7_7 Depth=1
	movl	-132(%rbp), %eax
	cmpl	-136(%rbp), %eax
	jne	.LBB7_50
# BB#49:                                # %if.then.186
                                        #   in Loop: Header=BB7_7 Depth=1
	jmp	.LBB7_7
.LBB7_50:                               # %if.end.187
                                        #   in Loop: Header=BB7_7 Depth=1
	xorl	%edi, %edi
	movq	-64(%rbp), %rax
	movq	%rax, -280(%rbp)        # 8-byte Spill
	callq	builtin_lisp_symbol
	movq	-280(%rbp), %rcx        # 8-byte Reload
	cmpq	%rax, %rcx
	je	.LBB7_52
# BB#51:                                # %if.then.191
                                        #   in Loop: Header=BB7_7 Depth=1
	movslq	-132(%rbp), %rax
	shlq	$2, %rax
	addq	$2, %rax
	movq	%rax, %rdi
	callq	Fupcase
	sarq	$2, %rax
	movl	%eax, %ecx
	movl	%ecx, -132(%rbp)
	movslq	-136(%rbp), %rax
	shlq	$2, %rax
	addq	$2, %rax
	movq	%rax, %rdi
	callq	Fupcase
	sarq	$2, %rax
	movl	%eax, %ecx
	movl	%ecx, -136(%rbp)
.LBB7_52:                               # %if.end.204
                                        #   in Loop: Header=BB7_7 Depth=1
	movl	-132(%rbp), %eax
	cmpl	-136(%rbp), %eax
	jne	.LBB7_54
# BB#53:                                # %if.then.207
                                        #   in Loop: Header=BB7_7 Depth=1
	jmp	.LBB7_7
.LBB7_54:                               # %if.end.208
	movl	-132(%rbp), %eax
	cmpl	-136(%rbp), %eax
	jge	.LBB7_56
# BB#55:                                # %if.then.211
	xorl	%eax, %eax
	movl	%eax, %ecx
	subq	-104(%rbp), %rcx
	addq	-72(%rbp), %rcx
	shlq	$2, %rcx
	addq	$2, %rcx
	movq	%rcx, -8(%rbp)
	jmp	.LBB7_62
.LBB7_56:                               # %if.else.215
	movq	-104(%rbp), %rax
	subq	-72(%rbp), %rax
	shlq	$2, %rax
	addq	$2, %rax
	movq	%rax, -8(%rbp)
	jmp	.LBB7_62
.LBB7_57:                               # %while.end
	movq	-104(%rbp), %rax
	cmpq	-80(%rbp), %rax
	jge	.LBB7_59
# BB#58:                                # %if.then.221
	movq	-104(%rbp), %rax
	subq	-72(%rbp), %rax
	addq	$1, %rax
	shlq	$2, %rax
	addq	$2, %rax
	movq	%rax, -8(%rbp)
	jmp	.LBB7_62
.LBB7_59:                               # %if.end.226
	movq	-120(%rbp), %rax
	cmpq	-96(%rbp), %rax
	jge	.LBB7_61
# BB#60:                                # %if.then.229
	xorl	%eax, %eax
	movl	%eax, %ecx
	subq	-104(%rbp), %rcx
	addq	-72(%rbp), %rcx
	subq	$1, %rcx
	shlq	$2, %rcx
	addq	$2, %rcx
	movq	%rcx, -8(%rbp)
	jmp	.LBB7_62
.LBB7_61:                               # %if.end.235
	movl	$901, %edi              # imm = 0x385
	callq	builtin_lisp_symbol
	movq	%rax, -8(%rbp)
.LBB7_62:                               # %return
	movq	-8(%rbp), %rax
	addq	$288, %rsp              # imm = 0x120
	popq	%rbp
	retq
.Lfunc_end7:
	.size	Fcompare_strings, .Lfunc_end7-Fcompare_strings
	.cfi_endproc

	.globl	validate_subarray
	.align	16, 0x90
	.type	validate_subarray,@function
validate_subarray:                      # @validate_subarray
	.cfi_startproc
# BB#0:                                 # %entry
	pushq	%rbp
.Ltmp24:
	.cfi_def_cfa_offset 16
.Ltmp25:
	.cfi_offset %rbp, -16
	movq	%rsp, %rbp
.Ltmp26:
	.cfi_def_cfa_register %rbp
	subq	$96, %rsp
	movq	%rdi, -8(%rbp)
	movq	%rsi, -16(%rbp)
	movq	%rdx, -24(%rbp)
	movq	%rcx, -32(%rbp)
	movq	%r8, -40(%rbp)
	movq	%r9, -48(%rbp)
	movq	-16(%rbp), %rcx
	andq	$7, %rcx
	movl	%ecx, %eax
	andl	$-5, %eax
	cmpl	$2, %eax
	jne	.LBB8_4
# BB#1:                                 # %if.then
	movq	-16(%rbp), %rax
	sarq	$2, %rax
	movq	%rax, -56(%rbp)
	cmpq	$0, -56(%rbp)
	jge	.LBB8_3
# BB#2:                                 # %if.then.5
	movq	-32(%rbp), %rax
	addq	-56(%rbp), %rax
	movq	%rax, -56(%rbp)
.LBB8_3:                                # %if.end
	jmp	.LBB8_8
.LBB8_4:                                # %if.else
	xorl	%edi, %edi
	movq	-16(%rbp), %rax
	movq	%rax, -72(%rbp)         # 8-byte Spill
	callq	builtin_lisp_symbol
	movq	-72(%rbp), %rcx         # 8-byte Reload
	cmpq	%rax, %rcx
	jne	.LBB8_6
# BB#5:                                 # %if.then.8
	movq	$0, -56(%rbp)
	jmp	.LBB8_7
.LBB8_6:                                # %if.else.9
	movl	$559, %edi              # imm = 0x22F
	callq	builtin_lisp_symbol
	movq	-16(%rbp), %rsi
	movq	%rax, %rdi
	callq	wrong_type_argument
	movq	%rax, -80(%rbp)         # 8-byte Spill
.LBB8_7:                                # %if.end.11
	jmp	.LBB8_8
.LBB8_8:                                # %if.end.12
	movq	-24(%rbp), %rax
	andq	$7, %rax
	movl	%eax, %ecx
	andl	$-5, %ecx
	cmpl	$2, %ecx
	jne	.LBB8_12
# BB#9:                                 # %if.then.18
	movq	-24(%rbp), %rax
	sarq	$2, %rax
	movq	%rax, -64(%rbp)
	cmpq	$0, -64(%rbp)
	jge	.LBB8_11
# BB#10:                                # %if.then.22
	movq	-32(%rbp), %rax
	addq	-64(%rbp), %rax
	movq	%rax, -64(%rbp)
.LBB8_11:                               # %if.end.24
	jmp	.LBB8_16
.LBB8_12:                               # %if.else.25
	xorl	%edi, %edi
	movq	-24(%rbp), %rax
	movq	%rax, -88(%rbp)         # 8-byte Spill
	callq	builtin_lisp_symbol
	movq	-88(%rbp), %rcx         # 8-byte Reload
	cmpq	%rax, %rcx
	jne	.LBB8_14
# BB#13:                                # %if.then.29
	movq	-32(%rbp), %rax
	movq	%rax, -64(%rbp)
	jmp	.LBB8_15
.LBB8_14:                               # %if.else.30
	movl	$559, %edi              # imm = 0x22F
	callq	builtin_lisp_symbol
	movq	-24(%rbp), %rsi
	movq	%rax, %rdi
	callq	wrong_type_argument
	movq	%rax, -96(%rbp)         # 8-byte Spill
.LBB8_15:                               # %if.end.32
	jmp	.LBB8_16
.LBB8_16:                               # %if.end.33
	xorl	%eax, %eax
	movl	%eax, %ecx
	cmpq	-56(%rbp), %rcx
	jg	.LBB8_19
# BB#17:                                # %land.lhs.true
	movq	-56(%rbp), %rax
	cmpq	-64(%rbp), %rax
	jg	.LBB8_19
# BB#18:                                # %land.lhs.true.38
	movq	-64(%rbp), %rax
	cmpq	-32(%rbp), %rax
	jle	.LBB8_20
.LBB8_19:                               # %if.then.41
	movq	-8(%rbp), %rdi
	movq	-16(%rbp), %rsi
	movq	-24(%rbp), %rdx
	callq	args_out_of_range_3
.LBB8_20:                               # %if.end.42
	movq	-56(%rbp), %rax
	movq	-40(%rbp), %rcx
	movq	%rax, (%rcx)
	movq	-64(%rbp), %rax
	movq	-48(%rbp), %rcx
	movq	%rax, (%rcx)
	addq	$96, %rsp
	popq	%rbp
	retq
.Lfunc_end8:
	.size	validate_subarray, .Lfunc_end8-validate_subarray
	.cfi_endproc

	.globl	string_char_to_byte
	.align	16, 0x90
	.type	string_char_to_byte,@function
string_char_to_byte:                    # @string_char_to_byte
	.cfi_startproc
# BB#0:                                 # %entry
	pushq	%rbp
.Ltmp27:
	.cfi_def_cfa_offset 16
.Ltmp28:
	.cfi_offset %rbp, -16
	movq	%rsp, %rbp
.Ltmp29:
	.cfi_def_cfa_register %rbp
	subq	$112, %rsp
	movq	%rdi, -16(%rbp)
	movq	%rsi, -24(%rbp)
	movq	$0, -48(%rbp)
	movq	$0, -40(%rbp)
	movq	-16(%rbp), %rdi
	callq	SCHARS
	movq	%rax, -56(%rbp)
	movq	-16(%rbp), %rdi
	callq	SBYTES
	movq	%rax, -64(%rbp)
	movq	-56(%rbp), %rax
	cmpq	-64(%rbp), %rax
	jne	.LBB9_2
# BB#1:                                 # %if.then
	movq	-24(%rbp), %rax
	movq	%rax, -8(%rbp)
	jmp	.LBB9_29
.LBB9_2:                                # %if.end
	movq	-16(%rbp), %rax
	cmpq	string_char_byte_cache_string, %rax
	jne	.LBB9_7
# BB#3:                                 # %if.then.3
	movq	string_char_byte_cache_charpos, %rax
	cmpq	-24(%rbp), %rax
	jge	.LBB9_5
# BB#4:                                 # %if.then.5
	movq	string_char_byte_cache_charpos, %rax
	movq	%rax, -40(%rbp)
	movq	string_char_byte_cache_bytepos, %rax
	movq	%rax, -48(%rbp)
	jmp	.LBB9_6
.LBB9_5:                                # %if.else
	movq	string_char_byte_cache_charpos, %rax
	movq	%rax, -56(%rbp)
	movq	string_char_byte_cache_bytepos, %rax
	movq	%rax, -64(%rbp)
.LBB9_6:                                # %if.end.6
	jmp	.LBB9_7
.LBB9_7:                                # %if.end.7
	movq	-24(%rbp), %rax
	subq	-40(%rbp), %rax
	movq	-56(%rbp), %rcx
	subq	-24(%rbp), %rcx
	cmpq	%rcx, %rax
	jge	.LBB9_21
# BB#8:                                 # %if.then.10
	movq	-16(%rbp), %rdi
	callq	SDATA
	addq	-48(%rbp), %rax
	movq	%rax, -72(%rbp)
.LBB9_9:                                # %while.cond
                                        # =>This Inner Loop Header: Depth=1
	movq	-40(%rbp), %rax
	cmpq	-24(%rbp), %rax
	jge	.LBB9_20
# BB#10:                                # %while.body
                                        #   in Loop: Header=BB9_9 Depth=1
	movq	-72(%rbp), %rax
	movzbl	(%rax), %ecx
	andl	$128, %ecx
	cmpl	$0, %ecx
	jne	.LBB9_12
# BB#11:                                # %cond.true
                                        #   in Loop: Header=BB9_9 Depth=1
	movl	$1, %eax
	movl	%eax, -84(%rbp)         # 4-byte Spill
	jmp	.LBB9_19
.LBB9_12:                               # %cond.false
                                        #   in Loop: Header=BB9_9 Depth=1
	movq	-72(%rbp), %rax
	movzbl	(%rax), %ecx
	andl	$32, %ecx
	cmpl	$0, %ecx
	jne	.LBB9_14
# BB#13:                                # %cond.true.16
                                        #   in Loop: Header=BB9_9 Depth=1
	movl	$2, %eax
	movl	%eax, -88(%rbp)         # 4-byte Spill
	jmp	.LBB9_18
.LBB9_14:                               # %cond.false.17
                                        #   in Loop: Header=BB9_9 Depth=1
	movq	-72(%rbp), %rax
	movzbl	(%rax), %ecx
	andl	$16, %ecx
	cmpl	$0, %ecx
	jne	.LBB9_16
# BB#15:                                # %cond.true.21
                                        #   in Loop: Header=BB9_9 Depth=1
	movl	$3, %eax
	movl	%eax, -92(%rbp)         # 4-byte Spill
	jmp	.LBB9_17
.LBB9_16:                               # %cond.false.22
                                        #   in Loop: Header=BB9_9 Depth=1
	movl	$5, %eax
	movl	$4, %ecx
	movq	-72(%rbp), %rdx
	movzbl	(%rdx), %esi
	andl	$8, %esi
	cmpl	$0, %esi
	setne	%dil
	xorb	$-1, %dil
	testb	$1, %dil
	cmovnel	%ecx, %eax
	movl	%eax, -92(%rbp)         # 4-byte Spill
.LBB9_17:                               # %cond.end
                                        #   in Loop: Header=BB9_9 Depth=1
	movl	-92(%rbp), %eax         # 4-byte Reload
	movl	%eax, -88(%rbp)         # 4-byte Spill
.LBB9_18:                               # %cond.end.27
                                        #   in Loop: Header=BB9_9 Depth=1
	movl	-88(%rbp), %eax         # 4-byte Reload
	movl	%eax, -84(%rbp)         # 4-byte Spill
.LBB9_19:                               # %cond.end.29
                                        #   in Loop: Header=BB9_9 Depth=1
	movl	-84(%rbp), %eax         # 4-byte Reload
	movq	-72(%rbp), %rcx
	movslq	%eax, %rdx
	addq	%rdx, %rcx
	movq	%rcx, -72(%rbp)
	movq	-40(%rbp), %rcx
	addq	$1, %rcx
	movq	%rcx, -40(%rbp)
	jmp	.LBB9_9
.LBB9_20:                               # %while.end
	movq	-72(%rbp), %rax
	movq	-16(%rbp), %rdi
	movq	%rax, -104(%rbp)        # 8-byte Spill
	callq	SDATA
	movq	-104(%rbp), %rdi        # 8-byte Reload
	subq	%rax, %rdi
	movq	%rdi, -32(%rbp)
	jmp	.LBB9_28
.LBB9_21:                               # %if.else.33
	movq	-16(%rbp), %rdi
	callq	SDATA
	addq	-64(%rbp), %rax
	movq	%rax, -80(%rbp)
.LBB9_22:                               # %while.cond.37
                                        # =>This Loop Header: Depth=1
                                        #     Child Loop BB9_24 Depth 2
	movq	-56(%rbp), %rax
	cmpq	-24(%rbp), %rax
	jle	.LBB9_27
# BB#23:                                # %while.body.40
                                        #   in Loop: Header=BB9_22 Depth=1
	movq	-80(%rbp), %rax
	addq	$-1, %rax
	movq	%rax, -80(%rbp)
.LBB9_24:                               # %while.cond.41
                                        #   Parent Loop BB9_22 Depth=1
                                        # =>  This Inner Loop Header: Depth=2
	movq	-80(%rbp), %rax
	movzbl	(%rax), %ecx
	andl	$192, %ecx
	cmpl	$128, %ecx
	setne	%dl
	xorb	$-1, %dl
	testb	$1, %dl
	jne	.LBB9_25
	jmp	.LBB9_26
.LBB9_25:                               # %while.body.47
                                        #   in Loop: Header=BB9_24 Depth=2
	movq	-80(%rbp), %rax
	addq	$-1, %rax
	movq	%rax, -80(%rbp)
	jmp	.LBB9_24
.LBB9_26:                               # %while.end.49
                                        #   in Loop: Header=BB9_22 Depth=1
	movq	-56(%rbp), %rax
	addq	$-1, %rax
	movq	%rax, -56(%rbp)
	jmp	.LBB9_22
.LBB9_27:                               # %while.end.50
	movq	-80(%rbp), %rax
	movq	-16(%rbp), %rdi
	movq	%rax, -112(%rbp)        # 8-byte Spill
	callq	SDATA
	movq	-112(%rbp), %rdi        # 8-byte Reload
	subq	%rax, %rdi
	movq	%rdi, -32(%rbp)
.LBB9_28:                               # %if.end.55
	movq	-32(%rbp), %rax
	movq	%rax, string_char_byte_cache_bytepos
	movq	-24(%rbp), %rax
	movq	%rax, string_char_byte_cache_charpos
	movq	-16(%rbp), %rax
	movq	%rax, string_char_byte_cache_string
	movq	-32(%rbp), %rax
	movq	%rax, -8(%rbp)
.LBB9_29:                               # %return
	movq	-8(%rbp), %rax
	addq	$112, %rsp
	popq	%rbp
	retq
.Lfunc_end9:
	.size	string_char_to_byte, .Lfunc_end9-string_char_to_byte
	.cfi_endproc

	.globl	Fstring_lessp
	.align	16, 0x90
	.type	Fstring_lessp,@function
Fstring_lessp:                          # @Fstring_lessp
	.cfi_startproc
# BB#0:                                 # %entry
	pushq	%rbp
.Ltmp30:
	.cfi_def_cfa_offset 16
.Ltmp31:
	.cfi_offset %rbp, -16
	movq	%rsp, %rbp
.Ltmp32:
	.cfi_def_cfa_register %rbp
	subq	$192, %rsp
	movq	%rdi, -16(%rbp)
	movq	%rsi, -24(%rbp)
	movq	-16(%rbp), %rsi
	andq	$7, %rsi
	movl	%esi, %eax
	cmpl	$0, %eax
	jne	.LBB10_2
# BB#1:                                 # %if.then
	movq	-16(%rbp), %rdi
	callq	SYMBOL_NAME
	movq	%rax, -16(%rbp)
.LBB10_2:                               # %if.end
	movq	-24(%rbp), %rax
	andq	$7, %rax
	movl	%eax, %ecx
	cmpl	$0, %ecx
	jne	.LBB10_4
# BB#3:                                 # %if.then.6
	movq	-24(%rbp), %rdi
	callq	SYMBOL_NAME
	movq	%rax, -24(%rbp)
.LBB10_4:                               # %if.end.8
	movq	-16(%rbp), %rdi
	callq	CHECK_STRING
	movq	-24(%rbp), %rdi
	callq	CHECK_STRING
	movq	$0, -64(%rbp)
	movq	$0, -56(%rbp)
	movq	$0, -48(%rbp)
	movq	$0, -40(%rbp)
	movq	-16(%rbp), %rdi
	callq	SCHARS
	movq	%rax, -32(%rbp)
	movq	-32(%rbp), %rax
	movq	-24(%rbp), %rdi
	movq	%rax, -112(%rbp)        # 8-byte Spill
	callq	SCHARS
	movq	-112(%rbp), %rdi        # 8-byte Reload
	cmpq	%rax, %rdi
	jle	.LBB10_6
# BB#5:                                 # %if.then.13
	movq	-24(%rbp), %rdi
	callq	SCHARS
	movq	%rax, -32(%rbp)
.LBB10_6:                               # %if.end.15
	jmp	.LBB10_7
.LBB10_7:                               # %while.cond
                                        # =>This Inner Loop Header: Depth=1
	movq	-40(%rbp), %rax
	cmpq	-32(%rbp), %rax
	jge	.LBB10_42
# BB#8:                                 # %while.body
                                        #   in Loop: Header=BB10_7 Depth=1
	jmp	.LBB10_9
.LBB10_9:                               # %do.body
                                        #   in Loop: Header=BB10_7 Depth=1
	movq	-40(%rbp), %rax
	addq	$1, %rax
	movq	%rax, -40(%rbp)
	movq	-16(%rbp), %rdi
	callq	STRING_MULTIBYTE
	testb	$1, %al
	jne	.LBB10_10
	jmp	.LBB10_20
.LBB10_10:                              # %if.then.19
                                        #   in Loop: Header=BB10_7 Depth=1
	movq	-48(%rbp), %rax
	movq	-16(%rbp), %rdi
	movq	%rax, -120(%rbp)        # 8-byte Spill
	callq	SDATA
	movq	-120(%rbp), %rdi        # 8-byte Reload
	addq	%rdi, %rax
	movq	%rax, -80(%rbp)
	movq	-80(%rbp), %rax
	movzbl	(%rax), %ecx
	andl	$128, %ecx
	cmpl	$0, %ecx
	jne	.LBB10_12
# BB#11:                                # %cond.true
                                        #   in Loop: Header=BB10_7 Depth=1
	movl	$1, -84(%rbp)
	movq	-80(%rbp), %rax
	movzbl	(%rax), %ecx
	movl	%ecx, -124(%rbp)        # 4-byte Spill
	jmp	.LBB10_19
.LBB10_12:                              # %cond.false
                                        #   in Loop: Header=BB10_7 Depth=1
	movq	-80(%rbp), %rax
	movzbl	(%rax), %ecx
	andl	$32, %ecx
	cmpl	$0, %ecx
	jne	.LBB10_14
# BB#13:                                # %cond.true.30
                                        #   in Loop: Header=BB10_7 Depth=1
	xorl	%eax, %eax
	movl	$4194176, %ecx          # imm = 0x3FFF80
	movl	$2, -84(%rbp)
	movq	-80(%rbp), %rdx
	movzbl	(%rdx), %esi
	andl	$31, %esi
	shll	$6, %esi
	movq	-80(%rbp), %rdx
	movzbl	1(%rdx), %edi
	andl	$63, %edi
	orl	%edi, %esi
	movq	-80(%rbp), %rdx
	movzbl	(%rdx), %edi
	cmpl	$194, %edi
	cmovll	%ecx, %eax
	addl	%eax, %esi
	movl	%esi, -128(%rbp)        # 4-byte Spill
	jmp	.LBB10_18
.LBB10_14:                              # %cond.false.41
                                        #   in Loop: Header=BB10_7 Depth=1
	movq	-80(%rbp), %rax
	movzbl	(%rax), %ecx
	andl	$16, %ecx
	cmpl	$0, %ecx
	jne	.LBB10_16
# BB#15:                                # %cond.true.46
                                        #   in Loop: Header=BB10_7 Depth=1
	movl	$3, -84(%rbp)
	movq	-80(%rbp), %rax
	movzbl	(%rax), %ecx
	andl	$15, %ecx
	shll	$12, %ecx
	movq	-80(%rbp), %rax
	movzbl	1(%rax), %edx
	andl	$63, %edx
	shll	$6, %edx
	orl	%edx, %ecx
	movq	-80(%rbp), %rax
	movzbl	2(%rax), %edx
	andl	$63, %edx
	orl	%edx, %ecx
	movl	%ecx, -132(%rbp)        # 4-byte Spill
	jmp	.LBB10_17
.LBB10_16:                              # %cond.false.60
                                        #   in Loop: Header=BB10_7 Depth=1
	xorl	%eax, %eax
	movl	%eax, %esi
	leaq	-84(%rbp), %rdx
	movq	-80(%rbp), %rdi
	callq	string_char
	movl	%eax, -132(%rbp)        # 4-byte Spill
.LBB10_17:                              # %cond.end
                                        #   in Loop: Header=BB10_7 Depth=1
	movl	-132(%rbp), %eax        # 4-byte Reload
	movl	%eax, -128(%rbp)        # 4-byte Spill
.LBB10_18:                              # %cond.end.63
                                        #   in Loop: Header=BB10_7 Depth=1
	movl	-128(%rbp), %eax        # 4-byte Reload
	movl	%eax, -124(%rbp)        # 4-byte Spill
.LBB10_19:                              # %cond.end.65
                                        #   in Loop: Header=BB10_7 Depth=1
	movl	-124(%rbp), %eax        # 4-byte Reload
	movl	%eax, -68(%rbp)
	movslq	-84(%rbp), %rcx
	addq	-48(%rbp), %rcx
	movq	%rcx, -48(%rbp)
	jmp	.LBB10_21
.LBB10_20:                              # %if.else
                                        #   in Loop: Header=BB10_7 Depth=1
	movq	-16(%rbp), %rdi
	movq	-48(%rbp), %rsi
	callq	SREF
	movzbl	%al, %ecx
	movl	%ecx, -68(%rbp)
	movq	-48(%rbp), %rsi
	addq	$1, %rsi
	movq	%rsi, -48(%rbp)
.LBB10_21:                              # %if.end.72
                                        #   in Loop: Header=BB10_7 Depth=1
	jmp	.LBB10_22
.LBB10_22:                              # %do.end
                                        #   in Loop: Header=BB10_7 Depth=1
	jmp	.LBB10_23
.LBB10_23:                              # %do.body.73
                                        #   in Loop: Header=BB10_7 Depth=1
	movq	-56(%rbp), %rax
	addq	$1, %rax
	movq	%rax, -56(%rbp)
	movq	-24(%rbp), %rdi
	callq	STRING_MULTIBYTE
	testb	$1, %al
	jne	.LBB10_24
	jmp	.LBB10_34
.LBB10_24:                              # %if.then.76
                                        #   in Loop: Header=BB10_7 Depth=1
	movq	-64(%rbp), %rax
	movq	-24(%rbp), %rdi
	movq	%rax, -144(%rbp)        # 8-byte Spill
	callq	SDATA
	movq	-144(%rbp), %rdi        # 8-byte Reload
	addq	%rdi, %rax
	movq	%rax, -96(%rbp)
	movq	-96(%rbp), %rax
	movzbl	(%rax), %ecx
	andl	$128, %ecx
	cmpl	$0, %ecx
	jne	.LBB10_26
# BB#25:                                # %cond.true.85
                                        #   in Loop: Header=BB10_7 Depth=1
	movl	$1, -100(%rbp)
	movq	-96(%rbp), %rax
	movzbl	(%rax), %ecx
	movl	%ecx, -148(%rbp)        # 4-byte Spill
	jmp	.LBB10_33
.LBB10_26:                              # %cond.false.88
                                        #   in Loop: Header=BB10_7 Depth=1
	movq	-96(%rbp), %rax
	movzbl	(%rax), %ecx
	andl	$32, %ecx
	cmpl	$0, %ecx
	jne	.LBB10_28
# BB#27:                                # %cond.true.93
                                        #   in Loop: Header=BB10_7 Depth=1
	xorl	%eax, %eax
	movl	$4194176, %ecx          # imm = 0x3FFF80
	movl	$2, -100(%rbp)
	movq	-96(%rbp), %rdx
	movzbl	(%rdx), %esi
	andl	$31, %esi
	shll	$6, %esi
	movq	-96(%rbp), %rdx
	movzbl	1(%rdx), %edi
	andl	$63, %edi
	orl	%edi, %esi
	movq	-96(%rbp), %rdx
	movzbl	(%rdx), %edi
	cmpl	$194, %edi
	cmovll	%ecx, %eax
	addl	%eax, %esi
	movl	%esi, -152(%rbp)        # 4-byte Spill
	jmp	.LBB10_32
.LBB10_28:                              # %cond.false.108
                                        #   in Loop: Header=BB10_7 Depth=1
	movq	-96(%rbp), %rax
	movzbl	(%rax), %ecx
	andl	$16, %ecx
	cmpl	$0, %ecx
	jne	.LBB10_30
# BB#29:                                # %cond.true.113
                                        #   in Loop: Header=BB10_7 Depth=1
	movl	$3, -100(%rbp)
	movq	-96(%rbp), %rax
	movzbl	(%rax), %ecx
	andl	$15, %ecx
	shll	$12, %ecx
	movq	-96(%rbp), %rax
	movzbl	1(%rax), %edx
	andl	$63, %edx
	shll	$6, %edx
	orl	%edx, %ecx
	movq	-96(%rbp), %rax
	movzbl	2(%rax), %edx
	andl	$63, %edx
	orl	%edx, %ecx
	movl	%ecx, -156(%rbp)        # 4-byte Spill
	jmp	.LBB10_31
.LBB10_30:                              # %cond.false.127
                                        #   in Loop: Header=BB10_7 Depth=1
	xorl	%eax, %eax
	movl	%eax, %esi
	leaq	-100(%rbp), %rdx
	movq	-96(%rbp), %rdi
	callq	string_char
	movl	%eax, -156(%rbp)        # 4-byte Spill
.LBB10_31:                              # %cond.end.129
                                        #   in Loop: Header=BB10_7 Depth=1
	movl	-156(%rbp), %eax        # 4-byte Reload
	movl	%eax, -152(%rbp)        # 4-byte Spill
.LBB10_32:                              # %cond.end.131
                                        #   in Loop: Header=BB10_7 Depth=1
	movl	-152(%rbp), %eax        # 4-byte Reload
	movl	%eax, -148(%rbp)        # 4-byte Spill
.LBB10_33:                              # %cond.end.133
                                        #   in Loop: Header=BB10_7 Depth=1
	movl	-148(%rbp), %eax        # 4-byte Reload
	movl	%eax, -72(%rbp)
	movslq	-100(%rbp), %rcx
	addq	-64(%rbp), %rcx
	movq	%rcx, -64(%rbp)
	jmp	.LBB10_35
.LBB10_34:                              # %if.else.137
                                        #   in Loop: Header=BB10_7 Depth=1
	movq	-24(%rbp), %rdi
	movq	-64(%rbp), %rsi
	callq	SREF
	movzbl	%al, %ecx
	movl	%ecx, -72(%rbp)
	movq	-64(%rbp), %rsi
	addq	$1, %rsi
	movq	%rsi, -64(%rbp)
.LBB10_35:                              # %if.end.141
                                        #   in Loop: Header=BB10_7 Depth=1
	jmp	.LBB10_36
.LBB10_36:                              # %do.end.142
                                        #   in Loop: Header=BB10_7 Depth=1
	movl	-68(%rbp), %eax
	cmpl	-72(%rbp), %eax
	je	.LBB10_41
# BB#37:                                # %if.then.145
	movl	-68(%rbp), %eax
	cmpl	-72(%rbp), %eax
	jge	.LBB10_39
# BB#38:                                # %cond.true.148
	movl	$901, %edi              # imm = 0x385
	callq	builtin_lisp_symbol
	movq	%rax, -168(%rbp)        # 8-byte Spill
	jmp	.LBB10_40
.LBB10_39:                              # %cond.false.150
	xorl	%edi, %edi
	callq	builtin_lisp_symbol
	movq	%rax, -168(%rbp)        # 8-byte Spill
.LBB10_40:                              # %cond.end.152
	movq	-168(%rbp), %rax        # 8-byte Reload
	movq	%rax, -8(%rbp)
	jmp	.LBB10_46
.LBB10_41:                              # %if.end.154
                                        #   in Loop: Header=BB10_7 Depth=1
	jmp	.LBB10_7
.LBB10_42:                              # %while.end
	movq	-40(%rbp), %rax
	movq	-24(%rbp), %rdi
	movq	%rax, -176(%rbp)        # 8-byte Spill
	callq	SCHARS
	movq	-176(%rbp), %rdi        # 8-byte Reload
	cmpq	%rax, %rdi
	jge	.LBB10_44
# BB#43:                                # %cond.true.158
	movl	$901, %edi              # imm = 0x385
	callq	builtin_lisp_symbol
	movq	%rax, -184(%rbp)        # 8-byte Spill
	jmp	.LBB10_45
.LBB10_44:                              # %cond.false.160
	xorl	%edi, %edi
	callq	builtin_lisp_symbol
	movq	%rax, -184(%rbp)        # 8-byte Spill
.LBB10_45:                              # %cond.end.162
	movq	-184(%rbp), %rax        # 8-byte Reload
	movq	%rax, -8(%rbp)
.LBB10_46:                              # %return
	movq	-8(%rbp), %rax
	addq	$192, %rsp
	popq	%rbp
	retq
.Lfunc_end10:
	.size	Fstring_lessp, .Lfunc_end10-Fstring_lessp
	.cfi_endproc

	.globl	Fstring_collate_lessp
	.align	16, 0x90
	.type	Fstring_collate_lessp,@function
Fstring_collate_lessp:                  # @Fstring_collate_lessp
	.cfi_startproc
# BB#0:                                 # %entry
	pushq	%rbp
.Ltmp33:
	.cfi_def_cfa_offset 16
.Ltmp34:
	.cfi_offset %rbp, -16
	movq	%rsp, %rbp
.Ltmp35:
	.cfi_def_cfa_register %rbp
	subq	$48, %rsp
	movq	%rdi, -8(%rbp)
	movq	%rsi, -16(%rbp)
	movq	%rdx, -24(%rbp)
	movq	%rcx, -32(%rbp)
	movq	-8(%rbp), %rcx
	andq	$7, %rcx
	movl	%ecx, %eax
	cmpl	$0, %eax
	jne	.LBB11_2
# BB#1:                                 # %if.then
	movq	-8(%rbp), %rdi
	callq	SYMBOL_NAME
	movq	%rax, -8(%rbp)
.LBB11_2:                               # %if.end
	movq	-16(%rbp), %rax
	andq	$7, %rax
	movl	%eax, %ecx
	cmpl	$0, %ecx
	jne	.LBB11_4
# BB#3:                                 # %if.then.6
	movq	-16(%rbp), %rdi
	callq	SYMBOL_NAME
	movq	%rax, -16(%rbp)
.LBB11_4:                               # %if.end.8
	movq	-8(%rbp), %rdi
	callq	CHECK_STRING
	movq	-16(%rbp), %rdi
	callq	CHECK_STRING
	xorl	%edi, %edi
	movq	-24(%rbp), %rax
	movq	%rax, -40(%rbp)         # 8-byte Spill
	callq	builtin_lisp_symbol
	movq	-40(%rbp), %rcx         # 8-byte Reload
	cmpq	%rax, %rcx
	je	.LBB11_6
# BB#5:                                 # %if.then.12
	movq	-24(%rbp), %rdi
	callq	CHECK_STRING
.LBB11_6:                               # %if.end.13
	movq	-8(%rbp), %rdi
	movq	-16(%rbp), %rsi
	movq	-24(%rbp), %rdx
	movq	-32(%rbp), %rcx
	callq	str_collate
	cmpl	$0, %eax
	jge	.LBB11_8
# BB#7:                                 # %cond.true
	movl	$901, %edi              # imm = 0x385
	callq	builtin_lisp_symbol
	movq	%rax, -48(%rbp)         # 8-byte Spill
	jmp	.LBB11_9
.LBB11_8:                               # %cond.false
	xorl	%edi, %edi
	callq	builtin_lisp_symbol
	movq	%rax, -48(%rbp)         # 8-byte Spill
.LBB11_9:                               # %cond.end
	movq	-48(%rbp), %rax         # 8-byte Reload
	addq	$48, %rsp
	popq	%rbp
	retq
.Lfunc_end11:
	.size	Fstring_collate_lessp, .Lfunc_end11-Fstring_collate_lessp
	.cfi_endproc

	.globl	Fstring_collate_equalp
	.align	16, 0x90
	.type	Fstring_collate_equalp,@function
Fstring_collate_equalp:                 # @Fstring_collate_equalp
	.cfi_startproc
# BB#0:                                 # %entry
	pushq	%rbp
.Ltmp36:
	.cfi_def_cfa_offset 16
.Ltmp37:
	.cfi_offset %rbp, -16
	movq	%rsp, %rbp
.Ltmp38:
	.cfi_def_cfa_register %rbp
	subq	$48, %rsp
	movq	%rdi, -8(%rbp)
	movq	%rsi, -16(%rbp)
	movq	%rdx, -24(%rbp)
	movq	%rcx, -32(%rbp)
	movq	-8(%rbp), %rcx
	andq	$7, %rcx
	movl	%ecx, %eax
	cmpl	$0, %eax
	jne	.LBB12_2
# BB#1:                                 # %if.then
	movq	-8(%rbp), %rdi
	callq	SYMBOL_NAME
	movq	%rax, -8(%rbp)
.LBB12_2:                               # %if.end
	movq	-16(%rbp), %rax
	andq	$7, %rax
	movl	%eax, %ecx
	cmpl	$0, %ecx
	jne	.LBB12_4
# BB#3:                                 # %if.then.6
	movq	-16(%rbp), %rdi
	callq	SYMBOL_NAME
	movq	%rax, -16(%rbp)
.LBB12_4:                               # %if.end.8
	movq	-8(%rbp), %rdi
	callq	CHECK_STRING
	movq	-16(%rbp), %rdi
	callq	CHECK_STRING
	xorl	%edi, %edi
	movq	-24(%rbp), %rax
	movq	%rax, -40(%rbp)         # 8-byte Spill
	callq	builtin_lisp_symbol
	movq	-40(%rbp), %rcx         # 8-byte Reload
	cmpq	%rax, %rcx
	je	.LBB12_6
# BB#5:                                 # %if.then.12
	movq	-24(%rbp), %rdi
	callq	CHECK_STRING
.LBB12_6:                               # %if.end.13
	movq	-8(%rbp), %rdi
	movq	-16(%rbp), %rsi
	movq	-24(%rbp), %rdx
	movq	-32(%rbp), %rcx
	callq	str_collate
	cmpl	$0, %eax
	jne	.LBB12_8
# BB#7:                                 # %cond.true
	movl	$901, %edi              # imm = 0x385
	callq	builtin_lisp_symbol
	movq	%rax, -48(%rbp)         # 8-byte Spill
	jmp	.LBB12_9
.LBB12_8:                               # %cond.false
	xorl	%edi, %edi
	callq	builtin_lisp_symbol
	movq	%rax, -48(%rbp)         # 8-byte Spill
.LBB12_9:                               # %cond.end
	movq	-48(%rbp), %rax         # 8-byte Reload
	addq	$48, %rsp
	popq	%rbp
	retq
.Lfunc_end12:
	.size	Fstring_collate_equalp, .Lfunc_end12-Fstring_collate_equalp
	.cfi_endproc

	.globl	concat2
	.align	16, 0x90
	.type	concat2,@function
concat2:                                # @concat2
	.cfi_startproc
# BB#0:                                 # %entry
	pushq	%rbp
.Ltmp39:
	.cfi_def_cfa_offset 16
.Ltmp40:
	.cfi_offset %rbp, -16
	movq	%rsp, %rbp
.Ltmp41:
	.cfi_def_cfa_register %rbp
	subq	$32, %rsp
	movl	$2, %eax
	movl	%eax, %ecx
	movl	$4, %edx
	xorl	%eax, %eax
	leaq	-32(%rbp), %r8
	movq	%rdi, -8(%rbp)
	movq	%rsi, -16(%rbp)
	movq	-8(%rbp), %rsi
	movq	%rsi, -32(%rbp)
	movq	-16(%rbp), %rsi
	movq	%rsi, -24(%rbp)
	movq	%rcx, %rdi
	movq	%r8, %rsi
	movl	%eax, %ecx
	callq	concat
	addq	$32, %rsp
	popq	%rbp
	retq
.Lfunc_end13:
	.size	concat2, .Lfunc_end13-concat2
	.cfi_endproc

	.align	16, 0x90
	.type	concat,@function
concat:                                 # @concat
	.cfi_startproc
# BB#0:                                 # %entry
	pushq	%rbp
.Ltmp42:
	.cfi_def_cfa_offset 16
.Ltmp43:
	.cfi_offset %rbp, -16
	movq	%rsp, %rbp
.Ltmp44:
	.cfi_def_cfa_register %rbp
	subq	$560, %rsp              # imm = 0x230
	movb	%cl, %al
	movq	%rdi, -16(%rbp)
	movq	%rsi, -24(%rbp)
	movl	%edx, -28(%rbp)
	andb	$1, %al
	movb	%al, -29(%rbp)
	movq	$0, -72(%rbp)
	movq	$0, -128(%rbp)
	movq	$0, -136(%rbp)
	movq	$16384, -144(%rbp)      # imm = 0x4000
	callq	SPECPDL_INDEX
	xorl	%edi, %edi
	movq	%rax, -152(%rbp)
	movb	$0, -153(%rbp)
	callq	builtin_lisp_symbol
	movq	%rax, -48(%rbp)
	testb	$1, -29(%rbp)
	je	.LBB14_3
# BB#1:                                 # %land.lhs.true
	cmpq	$0, -16(%rbp)
	jle	.LBB14_3
# BB#2:                                 # %if.then
	movq	-16(%rbp), %rax
	addq	$-1, %rax
	movq	%rax, -16(%rbp)
	movq	-16(%rbp), %rax
	movq	-24(%rbp), %rcx
	movq	(%rcx,%rax,8), %rax
	movq	%rax, -104(%rbp)
	jmp	.LBB14_4
.LBB14_3:                               # %if.else
	xorl	%edi, %edi
	callq	builtin_lisp_symbol
	movq	%rax, -104(%rbp)
.LBB14_4:                               # %if.end
	movq	$0, -96(%rbp)
.LBB14_5:                               # %for.cond
                                        # =>This Inner Loop Header: Depth=1
	movq	-96(%rbp), %rax
	cmpq	-16(%rbp), %rax
	jge	.LBB14_15
# BB#6:                                 # %for.body
                                        #   in Loop: Header=BB14_5 Depth=1
	movq	-96(%rbp), %rax
	movq	-24(%rbp), %rcx
	movq	(%rcx,%rax,8), %rax
	movq	%rax, -56(%rbp)
	movq	-56(%rbp), %rax
	andq	$7, %rax
	movl	%eax, %edx
	cmpl	$3, %edx
	je	.LBB14_13
# BB#7:                                 # %lor.lhs.false
                                        #   in Loop: Header=BB14_5 Depth=1
	xorl	%edi, %edi
	movq	-56(%rbp), %rax
	movq	%rax, -296(%rbp)        # 8-byte Spill
	callq	builtin_lisp_symbol
	movq	-296(%rbp), %rcx        # 8-byte Reload
	cmpq	%rax, %rcx
	je	.LBB14_13
# BB#8:                                 # %lor.lhs.false.10
                                        #   in Loop: Header=BB14_5 Depth=1
	movq	-56(%rbp), %rdi
	callq	VECTORP
	testb	$1, %al
	jne	.LBB14_13
# BB#9:                                 # %lor.lhs.false.13
                                        #   in Loop: Header=BB14_5 Depth=1
	movq	-56(%rbp), %rdi
	callq	STRINGP
	testb	$1, %al
	jne	.LBB14_13
# BB#10:                                # %lor.lhs.false.16
                                        #   in Loop: Header=BB14_5 Depth=1
	movq	-56(%rbp), %rdi
	callq	COMPILEDP
	testb	$1, %al
	jne	.LBB14_13
# BB#11:                                # %lor.lhs.false.19
                                        #   in Loop: Header=BB14_5 Depth=1
	movq	-56(%rbp), %rdi
	callq	BOOL_VECTOR_P
	testb	$1, %al
	jne	.LBB14_13
# BB#12:                                # %if.then.22
	movl	$844, %edi              # imm = 0x34C
	callq	builtin_lisp_symbol
	movq	-56(%rbp), %rsi
	movq	%rax, %rdi
	callq	wrong_type_argument
	movq	%rax, -304(%rbp)        # 8-byte Spill
.LBB14_13:                              # %if.end.24
                                        #   in Loop: Header=BB14_5 Depth=1
	jmp	.LBB14_14
.LBB14_14:                              # %for.inc
                                        #   in Loop: Header=BB14_5 Depth=1
	movq	-96(%rbp), %rax
	addq	$1, %rax
	movq	%rax, -96(%rbp)
	jmp	.LBB14_5
.LBB14_15:                              # %for.end
	movq	$0, -88(%rbp)
	movq	$0, -80(%rbp)
	movb	$0, -113(%rbp)
	movq	$0, -96(%rbp)
.LBB14_16:                              # %for.cond.25
                                        # =>This Loop Header: Depth=1
                                        #     Child Loop BB14_21 Depth 2
                                        #     Child Loop BB14_53 Depth 2
	movq	-96(%rbp), %rax
	cmpq	-16(%rbp), %rax
	jge	.LBB14_95
# BB#17:                                # %for.body.28
                                        #   in Loop: Header=BB14_16 Depth=1
	movq	-96(%rbp), %rax
	movq	-24(%rbp), %rcx
	movq	(%rcx,%rax,8), %rax
	movq	%rax, -56(%rbp)
	movq	-56(%rbp), %rdi
	callq	Flength
	sarq	$2, %rax
	movq	%rax, -168(%rbp)
	cmpl	$4, -28(%rbp)
	jne	.LBB14_91
# BB#18:                                # %if.then.33
                                        #   in Loop: Header=BB14_16 Depth=1
	movq	-56(%rbp), %rdi
	callq	VECTORP
	testb	$1, %al
	jne	.LBB14_20
# BB#19:                                # %lor.lhs.false.36
                                        #   in Loop: Header=BB14_16 Depth=1
	movq	-56(%rbp), %rdi
	callq	COMPILEDP
	testb	$1, %al
	jne	.LBB14_20
	jmp	.LBB14_48
.LBB14_20:                              # %if.then.39
                                        #   in Loop: Header=BB14_16 Depth=1
	movq	$0, -176(%rbp)
.LBB14_21:                              # %for.cond.40
                                        #   Parent Loop BB14_16 Depth=1
                                        # =>  This Inner Loop Header: Depth=2
	movq	-176(%rbp), %rax
	cmpq	-168(%rbp), %rax
	jge	.LBB14_47
# BB#22:                                # %for.body.43
                                        #   in Loop: Header=BB14_21 Depth=2
	movq	-56(%rbp), %rdi
	movq	-176(%rbp), %rsi
	callq	AREF
	movq	%rax, -184(%rbp)
	movq	-184(%rbp), %rdi
	callq	NATNUMP
	testb	$1, %al
	jne	.LBB14_23
	jmp	.LBB14_25
.LBB14_23:                              # %land.lhs.true.47
                                        #   in Loop: Header=BB14_21 Depth=2
	movq	-184(%rbp), %rax
	sarq	$2, %rax
	cmpq	$4194303, %rax          # imm = 0x3FFFFF
	jg	.LBB14_25
# BB#24:                                # %cond.true
                                        #   in Loop: Header=BB14_21 Depth=2
	jmp	.LBB14_26
.LBB14_25:                              # %cond.false
	movl	$260, %edi              # imm = 0x104
	callq	builtin_lisp_symbol
	movq	-184(%rbp), %rsi
	movq	%rax, %rdi
	callq	wrong_type_argument
	movq	%rax, -312(%rbp)        # 8-byte Spill
.LBB14_26:                              # %cond.end
                                        #   in Loop: Header=BB14_21 Depth=2
	movq	-184(%rbp), %rax
	sarq	$2, %rax
	movl	%eax, %ecx
	movl	%ecx, -188(%rbp)
	cmpl	$127, -188(%rbp)
	jg	.LBB14_28
# BB#27:                                # %cond.true.56
                                        #   in Loop: Header=BB14_21 Depth=2
	movl	$1, %eax
	movl	%eax, -316(%rbp)        # 4-byte Spill
	jmp	.LBB14_38
.LBB14_28:                              # %cond.false.57
                                        #   in Loop: Header=BB14_21 Depth=2
	cmpl	$2047, -188(%rbp)       # imm = 0x7FF
	jg	.LBB14_30
# BB#29:                                # %cond.true.60
                                        #   in Loop: Header=BB14_21 Depth=2
	movl	$2, %eax
	movl	%eax, -320(%rbp)        # 4-byte Spill
	jmp	.LBB14_37
.LBB14_30:                              # %cond.false.61
                                        #   in Loop: Header=BB14_21 Depth=2
	cmpl	$65535, -188(%rbp)      # imm = 0xFFFF
	jg	.LBB14_32
# BB#31:                                # %cond.true.64
                                        #   in Loop: Header=BB14_21 Depth=2
	movl	$3, %eax
	movl	%eax, -324(%rbp)        # 4-byte Spill
	jmp	.LBB14_36
.LBB14_32:                              # %cond.false.65
                                        #   in Loop: Header=BB14_21 Depth=2
	cmpl	$2097151, -188(%rbp)    # imm = 0x1FFFFF
	jg	.LBB14_34
# BB#33:                                # %cond.true.68
                                        #   in Loop: Header=BB14_21 Depth=2
	movl	$4, %eax
	movl	%eax, -328(%rbp)        # 4-byte Spill
	jmp	.LBB14_35
.LBB14_34:                              # %cond.false.69
                                        #   in Loop: Header=BB14_21 Depth=2
	movl	$2, %eax
	movl	$5, %ecx
	cmpl	$4194175, -188(%rbp)    # imm = 0x3FFF7F
	cmovlel	%ecx, %eax
	movl	%eax, -328(%rbp)        # 4-byte Spill
.LBB14_35:                              # %cond.end.72
                                        #   in Loop: Header=BB14_21 Depth=2
	movl	-328(%rbp), %eax        # 4-byte Reload
	movl	%eax, -324(%rbp)        # 4-byte Spill
.LBB14_36:                              # %cond.end.74
                                        #   in Loop: Header=BB14_21 Depth=2
	movl	-324(%rbp), %eax        # 4-byte Reload
	movl	%eax, -320(%rbp)        # 4-byte Spill
.LBB14_37:                              # %cond.end.76
                                        #   in Loop: Header=BB14_21 Depth=2
	movl	-320(%rbp), %eax        # 4-byte Reload
	movl	%eax, -316(%rbp)        # 4-byte Spill
.LBB14_38:                              # %cond.end.78
                                        #   in Loop: Header=BB14_21 Depth=2
	movl	-316(%rbp), %eax        # 4-byte Reload
	movabsq	$2305843009213693951, %rcx # imm = 0x1FFFFFFFFFFFFFFF
	movslq	%eax, %rdx
	movq	%rdx, -200(%rbp)
	subq	-88(%rbp), %rcx
	cmpq	-200(%rbp), %rcx
	jge	.LBB14_40
# BB#39:                                # %if.then.83
	callq	string_overflow
.LBB14_40:                              # %if.end.84
                                        #   in Loop: Header=BB14_21 Depth=2
	movb	$1, %al
	movq	-200(%rbp), %rcx
	addq	-88(%rbp), %rcx
	movq	%rcx, -88(%rbp)
	testb	$1, %al
	jne	.LBB14_41
	jmp	.LBB14_42
.LBB14_41:                              # %cond.true.85
                                        #   in Loop: Header=BB14_21 Depth=2
	movl	-188(%rbp), %eax
	addl	$0, %eax
	cmpl	$128, %eax
	jb	.LBB14_45
	jmp	.LBB14_43
.LBB14_42:                              # %cond.false.89
                                        #   in Loop: Header=BB14_21 Depth=2
	movslq	-188(%rbp), %rax
	addq	$0, %rax
	cmpq	$128, %rax
	jb	.LBB14_45
.LBB14_43:                              # %land.lhs.true.94
                                        #   in Loop: Header=BB14_21 Depth=2
	cmpl	$4194175, -188(%rbp)    # imm = 0x3FFF7F
	jg	.LBB14_45
# BB#44:                                # %if.then.97
                                        #   in Loop: Header=BB14_21 Depth=2
	movb	$1, -113(%rbp)
.LBB14_45:                              # %if.end.98
                                        #   in Loop: Header=BB14_21 Depth=2
	jmp	.LBB14_46
.LBB14_46:                              # %for.inc.99
                                        #   in Loop: Header=BB14_21 Depth=2
	movq	-176(%rbp), %rax
	addq	$1, %rax
	movq	%rax, -176(%rbp)
	jmp	.LBB14_21
.LBB14_47:                              # %for.end.101
                                        #   in Loop: Header=BB14_16 Depth=1
	jmp	.LBB14_90
.LBB14_48:                              # %if.else.102
                                        #   in Loop: Header=BB14_16 Depth=1
	movq	-56(%rbp), %rdi
	callq	BOOL_VECTOR_P
	testb	$1, %al
	jne	.LBB14_49
	jmp	.LBB14_51
.LBB14_49:                              # %land.lhs.true.105
                                        #   in Loop: Header=BB14_16 Depth=1
	movq	-56(%rbp), %rdi
	callq	bool_vector_size
	cmpq	$0, %rax
	jle	.LBB14_51
# BB#50:                                # %if.then.109
	movl	$559, %edi              # imm = 0x22F
	callq	builtin_lisp_symbol
	movl	$2, %edi
	movl	%edi, %esi
	movq	-56(%rbp), %rdi
	movq	%rax, -336(%rbp)        # 8-byte Spill
	callq	Faref
	movq	-336(%rbp), %rdi        # 8-byte Reload
	movq	%rax, %rsi
	callq	wrong_type_argument
	movq	%rax, -344(%rbp)        # 8-byte Spill
.LBB14_51:                              # %if.else.112
                                        #   in Loop: Header=BB14_16 Depth=1
	movq	-56(%rbp), %rax
	andq	$7, %rax
	movl	%eax, %ecx
	cmpl	$3, %ecx
	jne	.LBB14_80
# BB#52:                                # %if.then.117
                                        #   in Loop: Header=BB14_16 Depth=1
	jmp	.LBB14_53
.LBB14_53:                              # %for.cond.118
                                        #   Parent Loop BB14_16 Depth=1
                                        # =>  This Inner Loop Header: Depth=2
	movq	-56(%rbp), %rax
	andq	$7, %rax
	movl	%eax, %ecx
	cmpl	$3, %ecx
	jne	.LBB14_79
# BB#54:                                # %for.body.123
                                        #   in Loop: Header=BB14_53 Depth=2
	movq	-56(%rbp), %rax
	subq	$3, %rax
	movq	(%rax), %rax
	movq	%rax, -184(%rbp)
	movq	-184(%rbp), %rdi
	callq	NATNUMP
	testb	$1, %al
	jne	.LBB14_55
	jmp	.LBB14_57
.LBB14_55:                              # %land.lhs.true.127
                                        #   in Loop: Header=BB14_53 Depth=2
	movq	-184(%rbp), %rax
	sarq	$2, %rax
	cmpq	$4194303, %rax          # imm = 0x3FFFFF
	jg	.LBB14_57
# BB#56:                                # %cond.true.131
                                        #   in Loop: Header=BB14_53 Depth=2
	jmp	.LBB14_58
.LBB14_57:                              # %cond.false.132
	movl	$260, %edi              # imm = 0x104
	callq	builtin_lisp_symbol
	movq	-184(%rbp), %rsi
	movq	%rax, %rdi
	callq	wrong_type_argument
	movq	%rax, -352(%rbp)        # 8-byte Spill
.LBB14_58:                              # %cond.end.134
                                        #   in Loop: Header=BB14_53 Depth=2
	movq	-184(%rbp), %rax
	sarq	$2, %rax
	movl	%eax, %ecx
	movl	%ecx, -188(%rbp)
	cmpl	$127, -188(%rbp)
	jg	.LBB14_60
# BB#59:                                # %cond.true.139
                                        #   in Loop: Header=BB14_53 Depth=2
	movl	$1, %eax
	movl	%eax, -356(%rbp)        # 4-byte Spill
	jmp	.LBB14_70
.LBB14_60:                              # %cond.false.140
                                        #   in Loop: Header=BB14_53 Depth=2
	cmpl	$2047, -188(%rbp)       # imm = 0x7FF
	jg	.LBB14_62
# BB#61:                                # %cond.true.143
                                        #   in Loop: Header=BB14_53 Depth=2
	movl	$2, %eax
	movl	%eax, -360(%rbp)        # 4-byte Spill
	jmp	.LBB14_69
.LBB14_62:                              # %cond.false.144
                                        #   in Loop: Header=BB14_53 Depth=2
	cmpl	$65535, -188(%rbp)      # imm = 0xFFFF
	jg	.LBB14_64
# BB#63:                                # %cond.true.147
                                        #   in Loop: Header=BB14_53 Depth=2
	movl	$3, %eax
	movl	%eax, -364(%rbp)        # 4-byte Spill
	jmp	.LBB14_68
.LBB14_64:                              # %cond.false.148
                                        #   in Loop: Header=BB14_53 Depth=2
	cmpl	$2097151, -188(%rbp)    # imm = 0x1FFFFF
	jg	.LBB14_66
# BB#65:                                # %cond.true.151
                                        #   in Loop: Header=BB14_53 Depth=2
	movl	$4, %eax
	movl	%eax, -368(%rbp)        # 4-byte Spill
	jmp	.LBB14_67
.LBB14_66:                              # %cond.false.152
                                        #   in Loop: Header=BB14_53 Depth=2
	movl	$2, %eax
	movl	$5, %ecx
	cmpl	$4194175, -188(%rbp)    # imm = 0x3FFF7F
	cmovlel	%ecx, %eax
	movl	%eax, -368(%rbp)        # 4-byte Spill
.LBB14_67:                              # %cond.end.156
                                        #   in Loop: Header=BB14_53 Depth=2
	movl	-368(%rbp), %eax        # 4-byte Reload
	movl	%eax, -364(%rbp)        # 4-byte Spill
.LBB14_68:                              # %cond.end.158
                                        #   in Loop: Header=BB14_53 Depth=2
	movl	-364(%rbp), %eax        # 4-byte Reload
	movl	%eax, -360(%rbp)        # 4-byte Spill
.LBB14_69:                              # %cond.end.160
                                        #   in Loop: Header=BB14_53 Depth=2
	movl	-360(%rbp), %eax        # 4-byte Reload
	movl	%eax, -356(%rbp)        # 4-byte Spill
.LBB14_70:                              # %cond.end.162
                                        #   in Loop: Header=BB14_53 Depth=2
	movl	-356(%rbp), %eax        # 4-byte Reload
	movabsq	$2305843009213693951, %rcx # imm = 0x1FFFFFFFFFFFFFFF
	movslq	%eax, %rdx
	movq	%rdx, -200(%rbp)
	subq	-88(%rbp), %rcx
	cmpq	-200(%rbp), %rcx
	jge	.LBB14_72
# BB#71:                                # %if.then.168
	callq	string_overflow
.LBB14_72:                              # %if.end.169
                                        #   in Loop: Header=BB14_53 Depth=2
	movb	$1, %al
	movq	-200(%rbp), %rcx
	addq	-88(%rbp), %rcx
	movq	%rcx, -88(%rbp)
	testb	$1, %al
	jne	.LBB14_73
	jmp	.LBB14_74
.LBB14_73:                              # %cond.true.171
                                        #   in Loop: Header=BB14_53 Depth=2
	movl	-188(%rbp), %eax
	addl	$0, %eax
	cmpl	$128, %eax
	jb	.LBB14_77
	jmp	.LBB14_75
.LBB14_74:                              # %cond.false.175
                                        #   in Loop: Header=BB14_53 Depth=2
	movslq	-188(%rbp), %rax
	addq	$0, %rax
	cmpq	$128, %rax
	jb	.LBB14_77
.LBB14_75:                              # %land.lhs.true.180
                                        #   in Loop: Header=BB14_53 Depth=2
	cmpl	$4194175, -188(%rbp)    # imm = 0x3FFF7F
	jg	.LBB14_77
# BB#76:                                # %if.then.183
                                        #   in Loop: Header=BB14_53 Depth=2
	movb	$1, -113(%rbp)
.LBB14_77:                              # %if.end.184
                                        #   in Loop: Header=BB14_53 Depth=2
	jmp	.LBB14_78
.LBB14_78:                              # %for.inc.185
                                        #   in Loop: Header=BB14_53 Depth=2
	movq	-56(%rbp), %rax
	subq	$3, %rax
	movq	8(%rax), %rax
	movq	%rax, -56(%rbp)
	jmp	.LBB14_53
.LBB14_79:                              # %for.end.187
                                        #   in Loop: Header=BB14_16 Depth=1
	jmp	.LBB14_88
.LBB14_80:                              # %if.else.188
                                        #   in Loop: Header=BB14_16 Depth=1
	movq	-56(%rbp), %rdi
	callq	STRINGP
	testb	$1, %al
	jne	.LBB14_81
	jmp	.LBB14_87
.LBB14_81:                              # %if.then.190
                                        #   in Loop: Header=BB14_16 Depth=1
	movq	-56(%rbp), %rdi
	callq	STRING_MULTIBYTE
	testb	$1, %al
	jne	.LBB14_82
	jmp	.LBB14_83
.LBB14_82:                              # %if.then.192
                                        #   in Loop: Header=BB14_16 Depth=1
	movb	$1, -113(%rbp)
	movq	-56(%rbp), %rdi
	callq	SBYTES
	movq	%rax, -200(%rbp)
	jmp	.LBB14_84
.LBB14_83:                              # %if.else.194
                                        #   in Loop: Header=BB14_16 Depth=1
	movq	-56(%rbp), %rdi
	callq	SDATA
	movq	-56(%rbp), %rdi
	movq	%rax, -376(%rbp)        # 8-byte Spill
	callq	SCHARS
	movq	-376(%rbp), %rdi        # 8-byte Reload
	movq	%rax, %rsi
	callq	count_size_as_multibyte
	movq	%rax, -200(%rbp)
.LBB14_84:                              # %if.end.198
                                        #   in Loop: Header=BB14_16 Depth=1
	movabsq	$2305843009213693951, %rax # imm = 0x1FFFFFFFFFFFFFFF
	subq	-88(%rbp), %rax
	cmpq	-200(%rbp), %rax
	jge	.LBB14_86
# BB#85:                                # %if.then.202
	callq	string_overflow
.LBB14_86:                              # %if.end.203
                                        #   in Loop: Header=BB14_16 Depth=1
	movq	-200(%rbp), %rax
	addq	-88(%rbp), %rax
	movq	%rax, -88(%rbp)
.LBB14_87:                              # %if.end.205
                                        #   in Loop: Header=BB14_16 Depth=1
	jmp	.LBB14_88
.LBB14_88:                              # %if.end.206
                                        #   in Loop: Header=BB14_16 Depth=1
	jmp	.LBB14_89
.LBB14_89:                              # %if.end.207
                                        #   in Loop: Header=BB14_16 Depth=1
	jmp	.LBB14_90
.LBB14_90:                              # %if.end.208
                                        #   in Loop: Header=BB14_16 Depth=1
	jmp	.LBB14_91
.LBB14_91:                              # %if.end.209
                                        #   in Loop: Header=BB14_16 Depth=1
	movabsq	$2305843009213693951, %rax # imm = 0x1FFFFFFFFFFFFFFF
	movq	-168(%rbp), %rcx
	addq	-80(%rbp), %rcx
	movq	%rcx, -80(%rbp)
	cmpq	-80(%rbp), %rax
	jge	.LBB14_93
# BB#92:                                # %if.then.213
	movq	$-1, %rdi
	callq	memory_full
.LBB14_93:                              # %if.end.214
                                        #   in Loop: Header=BB14_16 Depth=1
	jmp	.LBB14_94
.LBB14_94:                              # %for.inc.215
                                        #   in Loop: Header=BB14_16 Depth=1
	movq	-96(%rbp), %rax
	addq	$1, %rax
	movq	%rax, -96(%rbp)
	jmp	.LBB14_16
.LBB14_95:                              # %for.end.217
	testb	$1, -113(%rbp)
	jne	.LBB14_97
# BB#96:                                # %if.then.219
	movq	-80(%rbp), %rax
	movq	%rax, -88(%rbp)
.LBB14_97:                              # %if.end.220
	cmpl	$3, -28(%rbp)
	jne	.LBB14_99
# BB#98:                                # %if.then.223
	xorl	%edi, %edi
	movq	-80(%rbp), %rax
	shlq	$2, %rax
	addq	$2, %rax
	movq	%rax, -384(%rbp)        # 8-byte Spill
	callq	builtin_lisp_symbol
	movq	-384(%rbp), %rdi        # 8-byte Reload
	movq	%rax, %rsi
	callq	Fmake_list
	movq	%rax, -40(%rbp)
	jmp	.LBB14_106
.LBB14_99:                              # %if.else.227
	cmpl	$5, -28(%rbp)
	jne	.LBB14_101
# BB#100:                               # %if.then.230
	xorl	%edi, %edi
	movq	-80(%rbp), %rax
	shlq	$2, %rax
	addq	$2, %rax
	movq	%rax, -392(%rbp)        # 8-byte Spill
	callq	builtin_lisp_symbol
	movq	-392(%rbp), %rdi        # 8-byte Reload
	movq	%rax, %rsi
	callq	Fmake_vector
	movq	%rax, -40(%rbp)
	jmp	.LBB14_105
.LBB14_101:                             # %if.else.235
	testb	$1, -113(%rbp)
	je	.LBB14_103
# BB#102:                               # %if.then.237
	movq	-80(%rbp), %rdi
	movq	-88(%rbp), %rsi
	callq	make_uninit_multibyte_string
	movq	%rax, -40(%rbp)
	jmp	.LBB14_104
.LBB14_103:                             # %if.else.239
	movq	-80(%rbp), %rdi
	callq	make_uninit_string
	movq	%rax, -40(%rbp)
.LBB14_104:                             # %if.end.241
	jmp	.LBB14_105
.LBB14_105:                             # %if.end.242
	jmp	.LBB14_106
.LBB14_106:                             # %if.end.243
	cmpl	$3, -28(%rbp)
	jne	.LBB14_109
# BB#107:                               # %land.lhs.true.246
	xorl	%edi, %edi
	movq	-40(%rbp), %rax
	movq	%rax, -400(%rbp)        # 8-byte Spill
	callq	builtin_lisp_symbol
	movq	-400(%rbp), %rcx        # 8-byte Reload
	cmpq	%rax, %rcx
	jne	.LBB14_109
# BB#108:                               # %if.then.250
	movq	-104(%rbp), %rax
	movq	%rax, -8(%rbp)
	jmp	.LBB14_216
.LBB14_109:                             # %if.end.251
	movq	-40(%rbp), %rax
	andq	$7, %rax
	movl	%eax, %ecx
	cmpl	$3, %ecx
	jne	.LBB14_111
# BB#110:                               # %if.then.256
	movq	-40(%rbp), %rax
	movq	%rax, -48(%rbp)
	movq	$-1, -64(%rbp)
	jmp	.LBB14_112
.LBB14_111:                             # %if.else.257
	movq	$0, -64(%rbp)
	movq	$0, -72(%rbp)
.LBB14_112:                             # %if.end.258
	xorl	%edi, %edi
	callq	builtin_lisp_symbol
	movq	%rax, -112(%rbp)
	movq	-40(%rbp), %rdi
	callq	STRINGP
	testb	$1, %al
	jne	.LBB14_113
	jmp	.LBB14_119
.LBB14_113:                             # %if.then.261
	jmp	.LBB14_114
.LBB14_114:                             # %do.body
	movl	$24, %eax
	movl	%eax, %ecx
	movq	-16(%rbp), %rdx
	movq	-144(%rbp), %rax
	xorl	%esi, %esi
	movq	%rdx, -408(%rbp)        # 8-byte Spill
	movl	%esi, %edx
	divq	%rcx
	shrq	$0, %rax
	movq	-408(%rbp), %rcx        # 8-byte Reload
	cmpq	%rax, %rcx
	ja	.LBB14_116
# BB#115:                               # %if.then.265
	movq	-16(%rbp), %rax
	shlq	$3, %rax
	leaq	(%rax,%rax,2), %rax
	movq	-144(%rbp), %rcx
	subq	%rax, %rcx
	movq	%rcx, -144(%rbp)
	movq	-16(%rbp), %rax
	leaq	(%rax,%rax,2), %rax
	leaq	15(,%rax,8), %rax
	andq	$-16, %rax
	movq	%rsp, %rcx
	subq	%rax, %rcx
	movq	%rcx, %rsp
	movq	%rcx, -128(%rbp)
	jmp	.LBB14_117
.LBB14_116:                             # %if.else.268
	movl	$24, %eax
	movl	%eax, %esi
	movq	-16(%rbp), %rdi
	callq	xnmalloc
	movabsq	$xfree, %rdi
	movq	%rax, -128(%rbp)
	movb	$1, -153(%rbp)
	movq	-128(%rbp), %rax
	movq	%rax, %rsi
	callq	record_unwind_protect_ptr
.LBB14_117:                             # %if.end.270
	jmp	.LBB14_118
.LBB14_118:                             # %do.end
	jmp	.LBB14_119
.LBB14_119:                             # %if.end.271
	movq	$0, -96(%rbp)
.LBB14_120:                             # %for.cond.272
                                        # =>This Loop Header: Depth=1
                                        #     Child Loop BB14_135 Depth 2
	movq	-96(%rbp), %rax
	cmpq	-16(%rbp), %rax
	jge	.LBB14_201
# BB#121:                               # %for.body.275
                                        #   in Loop: Header=BB14_120 Depth=1
	movq	$0, -216(%rbp)
	movq	$0, -224(%rbp)
	movq	$0, -232(%rbp)
	movq	-96(%rbp), %rax
	movq	-24(%rbp), %rcx
	movq	(%rcx,%rax,8), %rax
	movq	%rax, -56(%rbp)
	movq	-56(%rbp), %rax
	andq	$7, %rax
	movl	%eax, %edx
	cmpl	$3, %edx
	je	.LBB14_123
# BB#122:                               # %if.then.281
                                        #   in Loop: Header=BB14_120 Depth=1
	movq	-56(%rbp), %rdi
	callq	Flength
	movq	%rax, -208(%rbp)
	movq	-208(%rbp), %rax
	sarq	$2, %rax
	movq	%rax, -216(%rbp)
.LBB14_123:                             # %if.end.284
                                        #   in Loop: Header=BB14_120 Depth=1
	movq	-56(%rbp), %rdi
	callq	STRINGP
	testb	$1, %al
	jne	.LBB14_124
	jmp	.LBB14_129
.LBB14_124:                             # %land.lhs.true.287
                                        #   in Loop: Header=BB14_120 Depth=1
	movq	-40(%rbp), %rdi
	callq	STRINGP
	testb	$1, %al
	jne	.LBB14_125
	jmp	.LBB14_129
.LBB14_125:                             # %land.lhs.true.290
                                        #   in Loop: Header=BB14_120 Depth=1
	movq	-56(%rbp), %rdi
	callq	STRING_MULTIBYTE
	andb	$1, %al
	movzbl	%al, %ecx
	movb	-113(%rbp), %al
	andb	$1, %al
	movzbl	%al, %edx
	cmpl	%edx, %ecx
	jne	.LBB14_129
# BB#126:                               # %if.then.297
                                        #   in Loop: Header=BB14_120 Depth=1
	movq	-56(%rbp), %rdi
	callq	SBYTES
	movq	%rax, -240(%rbp)
	movq	-40(%rbp), %rdi
	callq	SDATA
	addq	-72(%rbp), %rax
	movq	-56(%rbp), %rdi
	movq	%rax, -416(%rbp)        # 8-byte Spill
	callq	SDATA
	movq	-56(%rbp), %rdi
	movq	%rax, -424(%rbp)        # 8-byte Spill
	callq	SBYTES
	movq	-416(%rbp), %rdi        # 8-byte Reload
	movq	-424(%rbp), %rsi        # 8-byte Reload
	movq	%rax, %rdx
	callq	memcpy
	movq	-56(%rbp), %rdi
	callq	string_intervals
	cmpq	$0, %rax
	je	.LBB14_128
# BB#127:                               # %if.then.304
                                        #   in Loop: Header=BB14_120 Depth=1
	movq	-96(%rbp), %rax
	movq	-136(%rbp), %rcx
	imulq	$24, %rcx, %rcx
	addq	-128(%rbp), %rcx
	movq	%rax, (%rcx)
	movq	-136(%rbp), %rax
	imulq	$24, %rax, %rax
	addq	-128(%rbp), %rax
	movq	$0, 8(%rax)
	movq	-64(%rbp), %rax
	movq	-136(%rbp), %rcx
	movq	%rcx, %rdx
	addq	$1, %rdx
	movq	%rdx, -136(%rbp)
	imulq	$24, %rcx, %rcx
	addq	-128(%rbp), %rcx
	movq	%rax, 16(%rcx)
.LBB14_128:                             # %if.end.310
                                        #   in Loop: Header=BB14_120 Depth=1
	movq	-240(%rbp), %rax
	addq	-72(%rbp), %rax
	movq	%rax, -72(%rbp)
	movq	-216(%rbp), %rax
	addq	-64(%rbp), %rax
	movq	%rax, -64(%rbp)
	jmp	.LBB14_199
.LBB14_129:                             # %if.else.313
                                        #   in Loop: Header=BB14_120 Depth=1
	movq	-56(%rbp), %rdi
	callq	STRINGP
	testb	$1, %al
	jne	.LBB14_130
	jmp	.LBB14_134
.LBB14_130:                             # %land.lhs.true.316
                                        #   in Loop: Header=BB14_120 Depth=1
	movq	-40(%rbp), %rdi
	callq	STRINGP
	testb	$1, %al
	jne	.LBB14_131
	jmp	.LBB14_134
.LBB14_131:                             # %if.then.319
                                        #   in Loop: Header=BB14_120 Depth=1
	movq	-56(%rbp), %rdi
	callq	string_intervals
	cmpq	$0, %rax
	je	.LBB14_133
# BB#132:                               # %if.then.322
                                        #   in Loop: Header=BB14_120 Depth=1
	movq	-96(%rbp), %rax
	movq	-136(%rbp), %rcx
	imulq	$24, %rcx, %rcx
	addq	-128(%rbp), %rcx
	movq	%rax, (%rcx)
	movq	-136(%rbp), %rax
	imulq	$24, %rax, %rax
	addq	-128(%rbp), %rax
	movq	$0, 8(%rax)
	movq	-64(%rbp), %rax
	movq	-136(%rbp), %rcx
	movq	%rcx, %rdx
	addq	$1, %rdx
	movq	%rdx, -136(%rbp)
	imulq	$24, %rcx, %rcx
	addq	-128(%rbp), %rcx
	movq	%rax, 16(%rcx)
.LBB14_133:                             # %if.end.330
                                        #   in Loop: Header=BB14_120 Depth=1
	movq	-56(%rbp), %rdi
	callq	SDATA
	movq	-40(%rbp), %rdi
	movq	%rax, -432(%rbp)        # 8-byte Spill
	callq	SDATA
	addq	-72(%rbp), %rax
	movq	-56(%rbp), %rdi
	movq	%rax, -440(%rbp)        # 8-byte Spill
	callq	SCHARS
	xorl	%ecx, %ecx
	movl	$1, %r8d
	movq	-432(%rbp), %rdi        # 8-byte Reload
	movq	-440(%rbp), %rsi        # 8-byte Reload
	movq	%rax, %rdx
	callq	copy_text
	addq	-72(%rbp), %rax
	movq	%rax, -72(%rbp)
	movq	-216(%rbp), %rax
	addq	-64(%rbp), %rax
	movq	%rax, -64(%rbp)
	jmp	.LBB14_198
.LBB14_134:                             # %if.else.338
                                        #   in Loop: Header=BB14_120 Depth=1
	jmp	.LBB14_135
.LBB14_135:                             # %while.body
                                        #   Parent Loop BB14_120 Depth=1
                                        # =>  This Inner Loop Header: Depth=2
	xorl	%edi, %edi
	movq	-56(%rbp), %rax
	movq	%rax, -448(%rbp)        # 8-byte Spill
	callq	builtin_lisp_symbol
	movq	-448(%rbp), %rcx        # 8-byte Reload
	cmpq	%rax, %rcx
	jne	.LBB14_137
# BB#136:                               # %if.then.342
                                        #   in Loop: Header=BB14_120 Depth=1
	jmp	.LBB14_197
.LBB14_137:                             # %if.end.343
                                        #   in Loop: Header=BB14_135 Depth=2
	movq	-56(%rbp), %rax
	andq	$7, %rax
	movl	%eax, %ecx
	cmpl	$3, %ecx
	jne	.LBB14_139
# BB#138:                               # %if.then.348
                                        #   in Loop: Header=BB14_135 Depth=2
	movq	-56(%rbp), %rax
	subq	$3, %rax
	movq	(%rax), %rax
	movq	%rax, -248(%rbp)
	movq	-56(%rbp), %rax
	subq	$3, %rax
	movq	8(%rax), %rax
	movq	%rax, -56(%rbp)
	jmp	.LBB14_168
.LBB14_139:                             # %if.else.354
                                        #   in Loop: Header=BB14_135 Depth=2
	movq	-224(%rbp), %rax
	cmpq	-216(%rbp), %rax
	jl	.LBB14_141
# BB#140:                               # %if.then.357
                                        #   in Loop: Header=BB14_120 Depth=1
	jmp	.LBB14_197
.LBB14_141:                             # %if.else.358
                                        #   in Loop: Header=BB14_135 Depth=2
	movq	-56(%rbp), %rdi
	callq	STRINGP
	testb	$1, %al
	jne	.LBB14_142
	jmp	.LBB14_162
.LBB14_142:                             # %if.then.360
                                        #   in Loop: Header=BB14_135 Depth=2
	movq	-56(%rbp), %rdi
	callq	STRING_MULTIBYTE
	testb	$1, %al
	jne	.LBB14_143
	jmp	.LBB14_155
.LBB14_143:                             # %if.then.363
                                        #   in Loop: Header=BB14_135 Depth=2
	jmp	.LBB14_144
.LBB14_144:                             # %do.body.364
                                        #   in Loop: Header=BB14_135 Depth=2
	movq	-232(%rbp), %rax
	movq	-56(%rbp), %rdi
	movq	%rax, -456(%rbp)        # 8-byte Spill
	callq	SDATA
	movq	-456(%rbp), %rdi        # 8-byte Reload
	addq	%rdi, %rax
	movq	%rax, -264(%rbp)
	movq	-264(%rbp), %rax
	movzbl	(%rax), %ecx
	andl	$128, %ecx
	cmpl	$0, %ecx
	jne	.LBB14_146
# BB#145:                               # %cond.true.371
                                        #   in Loop: Header=BB14_135 Depth=2
	movl	$1, -268(%rbp)
	movq	-264(%rbp), %rax
	movzbl	(%rax), %ecx
	movl	%ecx, -460(%rbp)        # 4-byte Spill
	jmp	.LBB14_153
.LBB14_146:                             # %cond.false.374
                                        #   in Loop: Header=BB14_135 Depth=2
	movq	-264(%rbp), %rax
	movzbl	(%rax), %ecx
	andl	$32, %ecx
	cmpl	$0, %ecx
	jne	.LBB14_148
# BB#147:                               # %cond.true.379
                                        #   in Loop: Header=BB14_135 Depth=2
	xorl	%eax, %eax
	movl	$4194176, %ecx          # imm = 0x3FFF80
	movl	$2, -268(%rbp)
	movq	-264(%rbp), %rdx
	movzbl	(%rdx), %esi
	andl	$31, %esi
	shll	$6, %esi
	movq	-264(%rbp), %rdx
	movzbl	1(%rdx), %edi
	andl	$63, %edi
	orl	%edi, %esi
	movq	-264(%rbp), %rdx
	movzbl	(%rdx), %edi
	cmpl	$194, %edi
	cmovll	%ecx, %eax
	addl	%eax, %esi
	movl	%esi, -464(%rbp)        # 4-byte Spill
	jmp	.LBB14_152
.LBB14_148:                             # %cond.false.393
                                        #   in Loop: Header=BB14_135 Depth=2
	movq	-264(%rbp), %rax
	movzbl	(%rax), %ecx
	andl	$16, %ecx
	cmpl	$0, %ecx
	jne	.LBB14_150
# BB#149:                               # %cond.true.398
                                        #   in Loop: Header=BB14_135 Depth=2
	movl	$3, -268(%rbp)
	movq	-264(%rbp), %rax
	movzbl	(%rax), %ecx
	andl	$15, %ecx
	shll	$12, %ecx
	movq	-264(%rbp), %rax
	movzbl	1(%rax), %edx
	andl	$63, %edx
	shll	$6, %edx
	orl	%edx, %ecx
	movq	-264(%rbp), %rax
	movzbl	2(%rax), %edx
	andl	$63, %edx
	orl	%edx, %ecx
	movl	%ecx, -468(%rbp)        # 4-byte Spill
	jmp	.LBB14_151
.LBB14_150:                             # %cond.false.412
                                        #   in Loop: Header=BB14_135 Depth=2
	xorl	%eax, %eax
	movl	%eax, %esi
	leaq	-268(%rbp), %rdx
	movq	-264(%rbp), %rdi
	callq	string_char
	movl	%eax, -468(%rbp)        # 4-byte Spill
.LBB14_151:                             # %cond.end.414
                                        #   in Loop: Header=BB14_135 Depth=2
	movl	-468(%rbp), %eax        # 4-byte Reload
	movl	%eax, -464(%rbp)        # 4-byte Spill
.LBB14_152:                             # %cond.end.416
                                        #   in Loop: Header=BB14_135 Depth=2
	movl	-464(%rbp), %eax        # 4-byte Reload
	movl	%eax, -460(%rbp)        # 4-byte Spill
.LBB14_153:                             # %cond.end.418
                                        #   in Loop: Header=BB14_135 Depth=2
	movl	-460(%rbp), %eax        # 4-byte Reload
	movl	%eax, -252(%rbp)
	movslq	-268(%rbp), %rcx
	addq	-232(%rbp), %rcx
	movq	%rcx, -232(%rbp)
	movq	-224(%rbp), %rcx
	addq	$1, %rcx
	movq	%rcx, -224(%rbp)
# BB#154:                               # %do.end.423
                                        #   in Loop: Header=BB14_135 Depth=2
	jmp	.LBB14_161
.LBB14_155:                             # %if.else.424
                                        #   in Loop: Header=BB14_135 Depth=2
	movq	-56(%rbp), %rdi
	movq	-224(%rbp), %rsi
	callq	SREF
	movzbl	%al, %ecx
	movl	%ecx, -252(%rbp)
	movq	-224(%rbp), %rsi
	addq	$1, %rsi
	movq	%rsi, -224(%rbp)
	testb	$1, -113(%rbp)
	je	.LBB14_160
# BB#156:                               # %land.lhs.true.430
                                        #   in Loop: Header=BB14_135 Depth=2
	movb	$1, %al
	testb	$1, %al
	jne	.LBB14_157
	jmp	.LBB14_158
.LBB14_157:                             # %cond.true.431
                                        #   in Loop: Header=BB14_135 Depth=2
	movl	-252(%rbp), %eax
	addl	$0, %eax
	cmpl	$128, %eax
	jb	.LBB14_160
	jmp	.LBB14_159
.LBB14_158:                             # %cond.false.435
                                        #   in Loop: Header=BB14_135 Depth=2
	movslq	-252(%rbp), %rax
	addq	$0, %rax
	cmpq	$128, %rax
	jb	.LBB14_160
.LBB14_159:                             # %if.then.440
                                        #   in Loop: Header=BB14_135 Depth=2
	movl	-252(%rbp), %eax
	addl	$4194048, %eax          # imm = 0x3FFF00
	movl	%eax, -252(%rbp)
.LBB14_160:                             # %if.end.442
                                        #   in Loop: Header=BB14_135 Depth=2
	jmp	.LBB14_161
.LBB14_161:                             # %if.end.443
                                        #   in Loop: Header=BB14_135 Depth=2
	movslq	-252(%rbp), %rdi
	callq	make_natnum
	movq	%rax, -248(%rbp)
	jmp	.LBB14_166
.LBB14_162:                             # %if.else.446
                                        #   in Loop: Header=BB14_135 Depth=2
	movq	-56(%rbp), %rdi
	callq	BOOL_VECTOR_P
	testb	$1, %al
	jne	.LBB14_163
	jmp	.LBB14_164
.LBB14_163:                             # %if.then.448
                                        #   in Loop: Header=BB14_135 Depth=2
	movq	-56(%rbp), %rdi
	movq	-224(%rbp), %rsi
	callq	bool_vector_ref
	movq	%rax, -248(%rbp)
	movq	-224(%rbp), %rax
	addq	$1, %rax
	movq	%rax, -224(%rbp)
	jmp	.LBB14_165
.LBB14_164:                             # %if.else.451
                                        #   in Loop: Header=BB14_135 Depth=2
	movq	-56(%rbp), %rdi
	movq	-224(%rbp), %rsi
	callq	AREF
	movq	%rax, -248(%rbp)
	movq	-224(%rbp), %rax
	addq	$1, %rax
	movq	%rax, -224(%rbp)
.LBB14_165:                             # %if.end.454
                                        #   in Loop: Header=BB14_135 Depth=2
	jmp	.LBB14_166
.LBB14_166:                             # %if.end.455
                                        #   in Loop: Header=BB14_135 Depth=2
	jmp	.LBB14_167
.LBB14_167:                             # %if.end.456
                                        #   in Loop: Header=BB14_135 Depth=2
	jmp	.LBB14_168
.LBB14_168:                             # %if.end.457
                                        #   in Loop: Header=BB14_135 Depth=2
	cmpq	$0, -64(%rbp)
	jge	.LBB14_170
# BB#169:                               # %if.then.460
                                        #   in Loop: Header=BB14_135 Depth=2
	movq	-48(%rbp), %rdi
	movq	-248(%rbp), %rsi
	callq	XSETCAR
	movq	-48(%rbp), %rsi
	movq	%rsi, -112(%rbp)
	movq	-48(%rbp), %rsi
	subq	$3, %rsi
	movq	8(%rsi), %rsi
	movq	%rsi, -48(%rbp)
	jmp	.LBB14_196
.LBB14_170:                             # %if.else.464
                                        #   in Loop: Header=BB14_135 Depth=2
	movq	-40(%rbp), %rdi
	callq	VECTORP
	testb	$1, %al
	jne	.LBB14_171
	jmp	.LBB14_172
.LBB14_171:                             # %if.then.466
                                        #   in Loop: Header=BB14_135 Depth=2
	movq	-40(%rbp), %rdi
	movq	-64(%rbp), %rsi
	movq	-248(%rbp), %rdx
	callq	ASET
	movq	-64(%rbp), %rdx
	addq	$1, %rdx
	movq	%rdx, -64(%rbp)
	jmp	.LBB14_195
.LBB14_172:                             # %if.else.468
                                        #   in Loop: Header=BB14_135 Depth=2
	movq	-248(%rbp), %rdi
	callq	NATNUMP
	testb	$1, %al
	jne	.LBB14_173
	jmp	.LBB14_175
.LBB14_173:                             # %land.lhs.true.472
                                        #   in Loop: Header=BB14_135 Depth=2
	movq	-248(%rbp), %rax
	sarq	$2, %rax
	cmpq	$4194303, %rax          # imm = 0x3FFFFF
	jg	.LBB14_175
# BB#174:                               # %cond.true.476
                                        #   in Loop: Header=BB14_135 Depth=2
	jmp	.LBB14_176
.LBB14_175:                             # %cond.false.477
	movl	$260, %edi              # imm = 0x104
	callq	builtin_lisp_symbol
	movq	-248(%rbp), %rsi
	movq	%rax, %rdi
	callq	wrong_type_argument
	movq	%rax, -480(%rbp)        # 8-byte Spill
.LBB14_176:                             # %cond.end.479
                                        #   in Loop: Header=BB14_135 Depth=2
	movq	-248(%rbp), %rax
	sarq	$2, %rax
	movl	%eax, %ecx
	movl	%ecx, -272(%rbp)
	testb	$1, -113(%rbp)
	je	.LBB14_193
# BB#177:                               # %if.then.483
                                        #   in Loop: Header=BB14_135 Depth=2
	movb	$1, %al
	testb	$1, %al
	jne	.LBB14_178
	jmp	.LBB14_179
.LBB14_178:                             # %cond.true.484
                                        #   in Loop: Header=BB14_135 Depth=2
	movl	-272(%rbp), %eax
	addl	$0, %eax
	cmpl	$127, %eax
	jbe	.LBB14_180
	jmp	.LBB14_181
.LBB14_179:                             # %cond.false.488
                                        #   in Loop: Header=BB14_135 Depth=2
	movslq	-272(%rbp), %rax
	addq	$0, %rax
	cmpq	$127, %rax
	ja	.LBB14_181
.LBB14_180:                             # %cond.true.493
                                        #   in Loop: Header=BB14_135 Depth=2
	movl	-272(%rbp), %eax
	movb	%al, %cl
	movq	-40(%rbp), %rdi
	movb	%cl, -481(%rbp)         # 1-byte Spill
	callq	SDATA
	movl	$1, %edx
	movq	-72(%rbp), %rdi
	movb	-481(%rbp), %cl         # 1-byte Reload
	movb	%cl, (%rax,%rdi)
	movl	%edx, -488(%rbp)        # 4-byte Spill
	jmp	.LBB14_192
.LBB14_181:                             # %cond.false.498
                                        #   in Loop: Header=BB14_135 Depth=2
	movb	$1, %al
	testb	$1, %al
	jne	.LBB14_182
	jmp	.LBB14_183
.LBB14_182:                             # %cond.true.499
                                        #   in Loop: Header=BB14_135 Depth=2
	movl	-272(%rbp), %eax
	addl	$0, %eax
	cmpl	$2047, %eax             # imm = 0x7FF
	jbe	.LBB14_184
	jmp	.LBB14_185
.LBB14_183:                             # %cond.false.503
                                        #   in Loop: Header=BB14_135 Depth=2
	movslq	-272(%rbp), %rax
	addq	$0, %rax
	cmpq	$2047, %rax             # imm = 0x7FF
	ja	.LBB14_185
.LBB14_184:                             # %cond.true.508
                                        #   in Loop: Header=BB14_135 Depth=2
	movl	-272(%rbp), %eax
	sarl	$6, %eax
	orl	$192, %eax
	movb	%al, %cl
	movq	-40(%rbp), %rdi
	movb	%cl, -489(%rbp)         # 1-byte Spill
	callq	SDATA
	movq	-72(%rbp), %rdi
	movb	-489(%rbp), %cl         # 1-byte Reload
	movb	%cl, (%rax,%rdi)
	movl	-272(%rbp), %edx
	andl	$63, %edx
	orl	$128, %edx
	movb	%dl, %cl
	movq	-40(%rbp), %rdi
	movb	%cl, -490(%rbp)         # 1-byte Spill
	callq	SDATA
	movl	$2, %edx
	movq	-72(%rbp), %rdi
	movb	-490(%rbp), %cl         # 1-byte Reload
	movb	%cl, 1(%rax,%rdi)
	movl	%edx, -496(%rbp)        # 4-byte Spill
	jmp	.LBB14_191
.LBB14_185:                             # %cond.false.521
                                        #   in Loop: Header=BB14_135 Depth=2
	movb	$1, %al
	testb	$1, %al
	jne	.LBB14_186
	jmp	.LBB14_187
.LBB14_186:                             # %cond.true.522
                                        #   in Loop: Header=BB14_135 Depth=2
	movl	-272(%rbp), %eax
	addl	$0, %eax
	cmpl	$65535, %eax            # imm = 0xFFFF
	jbe	.LBB14_188
	jmp	.LBB14_189
.LBB14_187:                             # %cond.false.526
                                        #   in Loop: Header=BB14_135 Depth=2
	movslq	-272(%rbp), %rax
	addq	$0, %rax
	cmpq	$65535, %rax            # imm = 0xFFFF
	ja	.LBB14_189
.LBB14_188:                             # %cond.true.531
                                        #   in Loop: Header=BB14_135 Depth=2
	movl	-272(%rbp), %eax
	sarl	$12, %eax
	orl	$224, %eax
	movb	%al, %cl
	movq	-40(%rbp), %rdi
	movb	%cl, -497(%rbp)         # 1-byte Spill
	callq	SDATA
	movq	-72(%rbp), %rdi
	movb	-497(%rbp), %cl         # 1-byte Reload
	movb	%cl, (%rax,%rdi)
	movl	-272(%rbp), %edx
	sarl	$6, %edx
	andl	$63, %edx
	orl	$128, %edx
	movb	%dl, %cl
	movq	-40(%rbp), %rdi
	movb	%cl, -498(%rbp)         # 1-byte Spill
	callq	SDATA
	movq	-72(%rbp), %rdi
	movb	-498(%rbp), %cl         # 1-byte Reload
	movb	%cl, 1(%rax,%rdi)
	movl	-272(%rbp), %edx
	andl	$63, %edx
	orl	$128, %edx
	movb	%dl, %cl
	movq	-40(%rbp), %rdi
	movb	%cl, -499(%rbp)         # 1-byte Spill
	callq	SDATA
	movl	$3, %edx
	movq	-72(%rbp), %rdi
	movb	-499(%rbp), %cl         # 1-byte Reload
	movb	%cl, 2(%rax,%rdi)
	movl	%edx, -504(%rbp)        # 4-byte Spill
	jmp	.LBB14_190
.LBB14_189:                             # %cond.false.551
                                        #   in Loop: Header=BB14_135 Depth=2
	movl	-272(%rbp), %edi
	movq	-40(%rbp), %rax
	movl	%edi, -508(%rbp)        # 4-byte Spill
	movq	%rax, %rdi
	callq	SDATA
	addq	-72(%rbp), %rax
	movl	-508(%rbp), %edi        # 4-byte Reload
	movq	%rax, %rsi
	callq	char_string
	movl	%eax, -504(%rbp)        # 4-byte Spill
.LBB14_190:                             # %cond.end.555
                                        #   in Loop: Header=BB14_135 Depth=2
	movl	-504(%rbp), %eax        # 4-byte Reload
	movl	%eax, -496(%rbp)        # 4-byte Spill
.LBB14_191:                             # %cond.end.557
                                        #   in Loop: Header=BB14_135 Depth=2
	movl	-496(%rbp), %eax        # 4-byte Reload
	movl	%eax, -488(%rbp)        # 4-byte Spill
.LBB14_192:                             # %cond.end.559
                                        #   in Loop: Header=BB14_135 Depth=2
	movl	-488(%rbp), %eax        # 4-byte Reload
	movslq	%eax, %rcx
	addq	-72(%rbp), %rcx
	movq	%rcx, -72(%rbp)
	jmp	.LBB14_194
.LBB14_193:                             # %if.else.563
                                        #   in Loop: Header=BB14_135 Depth=2
	movq	-40(%rbp), %rdi
	movq	-72(%rbp), %rax
	movq	%rax, %rcx
	addq	$1, %rcx
	movq	%rcx, -72(%rbp)
	movl	-272(%rbp), %edx
	movb	%dl, %sil
	movb	%sil, -509(%rbp)        # 1-byte Spill
	movq	%rax, %rsi
	movb	-509(%rbp), %r8b        # 1-byte Reload
	movzbl	%r8b, %edx
	callq	SSET
.LBB14_194:                             # %if.end.566
                                        #   in Loop: Header=BB14_135 Depth=2
	movq	-64(%rbp), %rax
	addq	$1, %rax
	movq	%rax, -64(%rbp)
.LBB14_195:                             # %if.end.568
                                        #   in Loop: Header=BB14_135 Depth=2
	jmp	.LBB14_196
.LBB14_196:                             # %if.end.569
                                        #   in Loop: Header=BB14_135 Depth=2
	jmp	.LBB14_135
.LBB14_197:                             # %while.end
                                        #   in Loop: Header=BB14_120 Depth=1
	jmp	.LBB14_198
.LBB14_198:                             # %if.end.570
                                        #   in Loop: Header=BB14_120 Depth=1
	jmp	.LBB14_199
.LBB14_199:                             # %if.end.571
                                        #   in Loop: Header=BB14_120 Depth=1
	jmp	.LBB14_200
.LBB14_200:                             # %for.inc.572
                                        #   in Loop: Header=BB14_120 Depth=1
	movq	-96(%rbp), %rax
	addq	$1, %rax
	movq	%rax, -96(%rbp)
	jmp	.LBB14_120
.LBB14_201:                             # %for.end.574
	xorl	%edi, %edi
	movq	-112(%rbp), %rax
	movq	%rax, -520(%rbp)        # 8-byte Spill
	callq	builtin_lisp_symbol
	movq	-520(%rbp), %rcx        # 8-byte Reload
	cmpq	%rax, %rcx
	je	.LBB14_203
# BB#202:                               # %if.then.578
	movq	-112(%rbp), %rdi
	movq	-104(%rbp), %rsi
	callq	XSETCDR
.LBB14_203:                             # %if.end.579
	cmpq	$0, -136(%rbp)
	jle	.LBB14_211
# BB#204:                               # %if.then.582
	movq	$-1, -288(%rbp)
	movq	$0, -96(%rbp)
.LBB14_205:                             # %for.cond.583
                                        # =>This Inner Loop Header: Depth=1
	movq	-96(%rbp), %rax
	cmpq	-136(%rbp), %rax
	jge	.LBB14_210
# BB#206:                               # %for.body.586
                                        #   in Loop: Header=BB14_205 Depth=1
	movq	-96(%rbp), %rax
	imulq	$24, %rax, %rax
	addq	-128(%rbp), %rax
	movq	(%rax), %rax
	movq	-24(%rbp), %rcx
	movq	(%rcx,%rax,8), %rax
	movq	%rax, -56(%rbp)
	movq	-56(%rbp), %rdi
	movq	-56(%rbp), %rax
	movq	%rdi, -528(%rbp)        # 8-byte Spill
	movq	%rax, %rdi
	callq	SCHARS
	xorl	%edi, %edi
	shlq	$2, %rax
	addq	$2, %rax
	movq	%rax, -536(%rbp)        # 8-byte Spill
	callq	builtin_lisp_symbol
	movl	$2, %edi
	movl	%edi, %esi
	movq	-528(%rbp), %rdi        # 8-byte Reload
	movq	-536(%rbp), %rdx        # 8-byte Reload
	movq	%rax, %rcx
	callq	text_property_list
	movq	%rax, -280(%rbp)
	movq	-288(%rbp), %rax
	movq	-96(%rbp), %rcx
	imulq	$24, %rcx, %rcx
	addq	-128(%rbp), %rcx
	cmpq	16(%rcx), %rax
	jne	.LBB14_208
# BB#207:                               # %if.then.599
                                        #   in Loop: Header=BB14_205 Depth=1
	movq	-280(%rbp), %rdi
	callq	make_composition_value_copy
.LBB14_208:                             # %if.end.600
                                        #   in Loop: Header=BB14_205 Depth=1
	movq	-40(%rbp), %rdi
	movq	-280(%rbp), %rsi
	movq	-96(%rbp), %rax
	imulq	$24, %rax, %rax
	addq	-128(%rbp), %rax
	movq	16(%rax), %rax
	shlq	$2, %rax
	addq	$2, %rax
	movq	%rax, %rdx
	callq	add_text_properties_from_list
	movq	-96(%rbp), %rax
	imulq	$24, %rax, %rax
	addq	-128(%rbp), %rax
	movq	16(%rax), %rax
	movq	-56(%rbp), %rdi
	movq	%rax, -544(%rbp)        # 8-byte Spill
	callq	SCHARS
	movq	-544(%rbp), %rdx        # 8-byte Reload
	addq	%rax, %rdx
	movq	%rdx, -288(%rbp)
# BB#209:                               # %for.inc.609
                                        #   in Loop: Header=BB14_205 Depth=1
	movq	-96(%rbp), %rax
	addq	$1, %rax
	movq	%rax, -96(%rbp)
	jmp	.LBB14_205
.LBB14_210:                             # %for.end.611
	jmp	.LBB14_211
.LBB14_211:                             # %if.end.612
	jmp	.LBB14_212
.LBB14_212:                             # %do.body.613
	testb	$1, -153(%rbp)
	je	.LBB14_214
# BB#213:                               # %if.then.615
	xorl	%edi, %edi
	movb	$0, -153(%rbp)
	movq	-152(%rbp), %rax
	movq	%rax, -552(%rbp)        # 8-byte Spill
	callq	builtin_lisp_symbol
	movq	-552(%rbp), %rdi        # 8-byte Reload
	movq	%rax, %rsi
	callq	unbind_to
	movq	%rax, -560(%rbp)        # 8-byte Spill
.LBB14_214:                             # %if.end.618
	jmp	.LBB14_215
.LBB14_215:                             # %do.end.619
	movq	-40(%rbp), %rax
	movq	%rax, -8(%rbp)
.LBB14_216:                             # %return
	movq	-8(%rbp), %rax
	movq	%rbp, %rsp
	popq	%rbp
	retq
.Lfunc_end14:
	.size	concat, .Lfunc_end14-concat
	.cfi_endproc

	.globl	concat3
	.align	16, 0x90
	.type	concat3,@function
concat3:                                # @concat3
	.cfi_startproc
# BB#0:                                 # %entry
	pushq	%rbp
.Ltmp45:
	.cfi_def_cfa_offset 16
.Ltmp46:
	.cfi_offset %rbp, -16
	movq	%rsp, %rbp
.Ltmp47:
	.cfi_def_cfa_register %rbp
	subq	$48, %rsp
	movl	$3, %eax
	movl	%eax, %ecx
	movl	$4, %eax
	xorl	%r8d, %r8d
	leaq	-48(%rbp), %r9
	movq	%rdi, -8(%rbp)
	movq	%rsi, -16(%rbp)
	movq	%rdx, -24(%rbp)
	movq	-8(%rbp), %rdx
	movq	%rdx, -48(%rbp)
	movq	-16(%rbp), %rdx
	movq	%rdx, -40(%rbp)
	movq	-24(%rbp), %rdx
	movq	%rdx, -32(%rbp)
	movq	%rcx, %rdi
	movq	%r9, %rsi
	movl	%eax, %edx
	movl	%r8d, %ecx
	callq	concat
	addq	$48, %rsp
	popq	%rbp
	retq
.Lfunc_end15:
	.size	concat3, .Lfunc_end15-concat3
	.cfi_endproc

	.globl	Fappend
	.align	16, 0x90
	.type	Fappend,@function
Fappend:                                # @Fappend
	.cfi_startproc
# BB#0:                                 # %entry
	pushq	%rbp
.Ltmp48:
	.cfi_def_cfa_offset 16
.Ltmp49:
	.cfi_offset %rbp, -16
	movq	%rsp, %rbp
.Ltmp50:
	.cfi_def_cfa_register %rbp
	subq	$16, %rsp
	movl	$3, %edx
	movl	$1, %ecx
	movq	%rdi, -8(%rbp)
	movq	%rsi, -16(%rbp)
	movq	-8(%rbp), %rdi
	movq	-16(%rbp), %rsi
	callq	concat
	addq	$16, %rsp
	popq	%rbp
	retq
.Lfunc_end16:
	.size	Fappend, .Lfunc_end16-Fappend
	.cfi_endproc

	.globl	Fconcat
	.align	16, 0x90
	.type	Fconcat,@function
Fconcat:                                # @Fconcat
	.cfi_startproc
# BB#0:                                 # %entry
	pushq	%rbp
.Ltmp51:
	.cfi_def_cfa_offset 16
.Ltmp52:
	.cfi_offset %rbp, -16
	movq	%rsp, %rbp
.Ltmp53:
	.cfi_def_cfa_register %rbp
	subq	$16, %rsp
	movl	$4, %edx
	xorl	%ecx, %ecx
	movq	%rdi, -8(%rbp)
	movq	%rsi, -16(%rbp)
	movq	-8(%rbp), %rdi
	movq	-16(%rbp), %rsi
	callq	concat
	addq	$16, %rsp
	popq	%rbp
	retq
.Lfunc_end17:
	.size	Fconcat, .Lfunc_end17-Fconcat
	.cfi_endproc

	.globl	Fvconcat
	.align	16, 0x90
	.type	Fvconcat,@function
Fvconcat:                               # @Fvconcat
	.cfi_startproc
# BB#0:                                 # %entry
	pushq	%rbp
.Ltmp54:
	.cfi_def_cfa_offset 16
.Ltmp55:
	.cfi_offset %rbp, -16
	movq	%rsp, %rbp
.Ltmp56:
	.cfi_def_cfa_register %rbp
	subq	$16, %rsp
	movl	$5, %edx
	xorl	%ecx, %ecx
	movq	%rdi, -8(%rbp)
	movq	%rsi, -16(%rbp)
	movq	-8(%rbp), %rdi
	movq	-16(%rbp), %rsi
	callq	concat
	addq	$16, %rsp
	popq	%rbp
	retq
.Lfunc_end18:
	.size	Fvconcat, .Lfunc_end18-Fvconcat
	.cfi_endproc

	.globl	Fcopy_sequence
	.align	16, 0x90
	.type	Fcopy_sequence,@function
Fcopy_sequence:                         # @Fcopy_sequence
	.cfi_startproc
# BB#0:                                 # %entry
	pushq	%rbp
.Ltmp57:
	.cfi_def_cfa_offset 16
.Ltmp58:
	.cfi_offset %rbp, -16
	movq	%rsp, %rbp
.Ltmp59:
	.cfi_def_cfa_register %rbp
	subq	$64, %rsp
	xorl	%eax, %eax
	movq	%rdi, -16(%rbp)
	movq	-16(%rbp), %rdi
	movq	%rdi, -48(%rbp)         # 8-byte Spill
	movl	%eax, %edi
	callq	builtin_lisp_symbol
	movq	-48(%rbp), %rcx         # 8-byte Reload
	cmpq	%rax, %rcx
	jne	.LBB19_2
# BB#1:                                 # %if.then
	movq	-16(%rbp), %rax
	movq	%rax, -8(%rbp)
	jmp	.LBB19_11
.LBB19_2:                               # %if.end
	movq	-16(%rbp), %rdi
	callq	CHAR_TABLE_P
	testb	$1, %al
	jne	.LBB19_3
	jmp	.LBB19_4
.LBB19_3:                               # %if.then.2
	movq	-16(%rbp), %rdi
	callq	copy_char_table
	movq	%rax, -8(%rbp)
	jmp	.LBB19_11
.LBB19_4:                               # %if.end.4
	movq	-16(%rbp), %rdi
	callq	BOOL_VECTOR_P
	testb	$1, %al
	jne	.LBB19_5
	jmp	.LBB19_6
.LBB19_5:                               # %if.then.6
	movq	-16(%rbp), %rdi
	callq	bool_vector_size
	movq	%rax, -24(%rbp)
	movq	-24(%rbp), %rdi
	callq	bool_vector_bytes
	movq	%rax, -32(%rbp)
	movq	-24(%rbp), %rdi
	callq	make_uninit_bool_vector
	movq	%rax, -40(%rbp)
	movq	-40(%rbp), %rdi
	callq	bool_vector_data
	movq	-16(%rbp), %rdi
	movq	%rax, -56(%rbp)         # 8-byte Spill
	callq	bool_vector_data
	movq	-32(%rbp), %rdx
	movq	-56(%rbp), %rdi         # 8-byte Reload
	movq	%rax, %rsi
	callq	memcpy
	movq	-40(%rbp), %rax
	movq	%rax, -8(%rbp)
	jmp	.LBB19_11
.LBB19_6:                               # %if.end.12
	movq	-16(%rbp), %rax
	andq	$7, %rax
	movl	%eax, %ecx
	cmpl	$3, %ecx
	je	.LBB19_10
# BB#7:                                 # %land.lhs.true
	movq	-16(%rbp), %rdi
	callq	VECTORP
	testb	$1, %al
	jne	.LBB19_10
# BB#8:                                 # %land.lhs.true.16
	movq	-16(%rbp), %rdi
	callq	STRINGP
	testb	$1, %al
	jne	.LBB19_10
# BB#9:                                 # %if.then.18
	movl	$844, %edi              # imm = 0x34C
	callq	builtin_lisp_symbol
	movq	-16(%rbp), %rsi
	movq	%rax, %rdi
	callq	wrong_type_argument
	movq	%rax, -64(%rbp)         # 8-byte Spill
.LBB19_10:                              # %if.end.20
	movl	$1, %eax
	movl	%eax, %edi
	leaq	-16(%rbp), %rsi
	xorl	%ecx, %ecx
	movq	-16(%rbp), %rdx
	andq	$7, %rdx
	movl	%edx, %eax
	movl	%eax, %edx
	callq	concat
	movq	%rax, -8(%rbp)
.LBB19_11:                              # %return
	movq	-8(%rbp), %rax
	addq	$64, %rsp
	popq	%rbp
	retq
.Lfunc_end19:
	.size	Fcopy_sequence, .Lfunc_end19-Fcopy_sequence
	.cfi_endproc

	.globl	clear_string_char_byte_cache
	.align	16, 0x90
	.type	clear_string_char_byte_cache,@function
clear_string_char_byte_cache:           # @clear_string_char_byte_cache
	.cfi_startproc
# BB#0:                                 # %entry
	pushq	%rbp
.Ltmp60:
	.cfi_def_cfa_offset 16
.Ltmp61:
	.cfi_offset %rbp, -16
	movq	%rsp, %rbp
.Ltmp62:
	.cfi_def_cfa_register %rbp
	xorl	%edi, %edi
	callq	builtin_lisp_symbol
	movq	%rax, string_char_byte_cache_string
	popq	%rbp
	retq
.Lfunc_end20:
	.size	clear_string_char_byte_cache, .Lfunc_end20-clear_string_char_byte_cache
	.cfi_endproc

	.globl	string_byte_to_char
	.align	16, 0x90
	.type	string_byte_to_char,@function
string_byte_to_char:                    # @string_byte_to_char
	.cfi_startproc
# BB#0:                                 # %entry
	pushq	%rbp
.Ltmp63:
	.cfi_def_cfa_offset 16
.Ltmp64:
	.cfi_offset %rbp, -16
	movq	%rsp, %rbp
.Ltmp65:
	.cfi_def_cfa_register %rbp
	subq	$144, %rsp
	movq	%rdi, -16(%rbp)
	movq	%rsi, -24(%rbp)
	movq	$0, -56(%rbp)
	movq	$0, -48(%rbp)
	movq	-16(%rbp), %rdi
	callq	SCHARS
	movq	%rax, -64(%rbp)
	movq	-16(%rbp), %rdi
	callq	SBYTES
	movq	%rax, -72(%rbp)
	movq	-64(%rbp), %rax
	cmpq	-72(%rbp), %rax
	jne	.LBB21_2
# BB#1:                                 # %if.then
	movq	-24(%rbp), %rax
	movq	%rax, -8(%rbp)
	jmp	.LBB21_29
.LBB21_2:                               # %if.end
	movq	-16(%rbp), %rax
	cmpq	string_char_byte_cache_string, %rax
	jne	.LBB21_7
# BB#3:                                 # %if.then.3
	movq	string_char_byte_cache_bytepos, %rax
	cmpq	-24(%rbp), %rax
	jge	.LBB21_5
# BB#4:                                 # %if.then.5
	movq	string_char_byte_cache_charpos, %rax
	movq	%rax, -48(%rbp)
	movq	string_char_byte_cache_bytepos, %rax
	movq	%rax, -56(%rbp)
	jmp	.LBB21_6
.LBB21_5:                               # %if.else
	movq	string_char_byte_cache_charpos, %rax
	movq	%rax, -64(%rbp)
	movq	string_char_byte_cache_bytepos, %rax
	movq	%rax, -72(%rbp)
.LBB21_6:                               # %if.end.6
	jmp	.LBB21_7
.LBB21_7:                               # %if.end.7
	movq	-24(%rbp), %rax
	subq	-56(%rbp), %rax
	movq	-72(%rbp), %rcx
	subq	-24(%rbp), %rcx
	cmpq	%rcx, %rax
	jge	.LBB21_21
# BB#8:                                 # %if.then.10
	movq	-16(%rbp), %rdi
	callq	SDATA
	addq	-56(%rbp), %rax
	movq	%rax, -80(%rbp)
	movq	-16(%rbp), %rdi
	callq	SDATA
	addq	-24(%rbp), %rax
	movq	%rax, -88(%rbp)
.LBB21_9:                               # %while.cond
                                        # =>This Inner Loop Header: Depth=1
	movq	-80(%rbp), %rax
	cmpq	-88(%rbp), %rax
	jae	.LBB21_20
# BB#10:                                # %while.body
                                        #   in Loop: Header=BB21_9 Depth=1
	movq	-80(%rbp), %rax
	movzbl	(%rax), %ecx
	andl	$128, %ecx
	cmpl	$0, %ecx
	jne	.LBB21_12
# BB#11:                                # %cond.true
                                        #   in Loop: Header=BB21_9 Depth=1
	movl	$1, %eax
	movl	%eax, -108(%rbp)        # 4-byte Spill
	jmp	.LBB21_19
.LBB21_12:                              # %cond.false
                                        #   in Loop: Header=BB21_9 Depth=1
	movq	-80(%rbp), %rax
	movzbl	(%rax), %ecx
	andl	$32, %ecx
	cmpl	$0, %ecx
	jne	.LBB21_14
# BB#13:                                # %cond.true.18
                                        #   in Loop: Header=BB21_9 Depth=1
	movl	$2, %eax
	movl	%eax, -112(%rbp)        # 4-byte Spill
	jmp	.LBB21_18
.LBB21_14:                              # %cond.false.19
                                        #   in Loop: Header=BB21_9 Depth=1
	movq	-80(%rbp), %rax
	movzbl	(%rax), %ecx
	andl	$16, %ecx
	cmpl	$0, %ecx
	jne	.LBB21_16
# BB#15:                                # %cond.true.23
                                        #   in Loop: Header=BB21_9 Depth=1
	movl	$3, %eax
	movl	%eax, -116(%rbp)        # 4-byte Spill
	jmp	.LBB21_17
.LBB21_16:                              # %cond.false.24
                                        #   in Loop: Header=BB21_9 Depth=1
	movl	$5, %eax
	movl	$4, %ecx
	movq	-80(%rbp), %rdx
	movzbl	(%rdx), %esi
	andl	$8, %esi
	cmpl	$0, %esi
	setne	%dil
	xorb	$-1, %dil
	testb	$1, %dil
	cmovnel	%ecx, %eax
	movl	%eax, -116(%rbp)        # 4-byte Spill
.LBB21_17:                              # %cond.end
                                        #   in Loop: Header=BB21_9 Depth=1
	movl	-116(%rbp), %eax        # 4-byte Reload
	movl	%eax, -112(%rbp)        # 4-byte Spill
.LBB21_18:                              # %cond.end.29
                                        #   in Loop: Header=BB21_9 Depth=1
	movl	-112(%rbp), %eax        # 4-byte Reload
	movl	%eax, -108(%rbp)        # 4-byte Spill
.LBB21_19:                              # %cond.end.31
                                        #   in Loop: Header=BB21_9 Depth=1
	movl	-108(%rbp), %eax        # 4-byte Reload
	movq	-80(%rbp), %rcx
	movslq	%eax, %rdx
	addq	%rdx, %rcx
	movq	%rcx, -80(%rbp)
	movq	-48(%rbp), %rcx
	addq	$1, %rcx
	movq	%rcx, -48(%rbp)
	jmp	.LBB21_9
.LBB21_20:                              # %while.end
	movq	-48(%rbp), %rax
	movq	%rax, -32(%rbp)
	movq	-80(%rbp), %rax
	movq	-16(%rbp), %rdi
	movq	%rax, -128(%rbp)        # 8-byte Spill
	callq	SDATA
	movq	-128(%rbp), %rdi        # 8-byte Reload
	subq	%rax, %rdi
	movq	%rdi, -40(%rbp)
	jmp	.LBB21_28
.LBB21_21:                              # %if.else.35
	movq	-16(%rbp), %rdi
	callq	SDATA
	addq	-72(%rbp), %rax
	movq	%rax, -96(%rbp)
	movq	-16(%rbp), %rdi
	callq	SDATA
	addq	-24(%rbp), %rax
	movq	%rax, -104(%rbp)
.LBB21_22:                              # %while.cond.41
                                        # =>This Loop Header: Depth=1
                                        #     Child Loop BB21_24 Depth 2
	movq	-96(%rbp), %rax
	cmpq	-104(%rbp), %rax
	jbe	.LBB21_27
# BB#23:                                # %while.body.44
                                        #   in Loop: Header=BB21_22 Depth=1
	movq	-96(%rbp), %rax
	addq	$-1, %rax
	movq	%rax, -96(%rbp)
.LBB21_24:                              # %while.cond.45
                                        #   Parent Loop BB21_22 Depth=1
                                        # =>  This Inner Loop Header: Depth=2
	movq	-96(%rbp), %rax
	movzbl	(%rax), %ecx
	andl	$192, %ecx
	cmpl	$128, %ecx
	setne	%dl
	xorb	$-1, %dl
	testb	$1, %dl
	jne	.LBB21_25
	jmp	.LBB21_26
.LBB21_25:                              # %while.body.51
                                        #   in Loop: Header=BB21_24 Depth=2
	movq	-96(%rbp), %rax
	addq	$-1, %rax
	movq	%rax, -96(%rbp)
	jmp	.LBB21_24
.LBB21_26:                              # %while.end.53
                                        #   in Loop: Header=BB21_22 Depth=1
	movq	-64(%rbp), %rax
	addq	$-1, %rax
	movq	%rax, -64(%rbp)
	jmp	.LBB21_22
.LBB21_27:                              # %while.end.54
	movq	-64(%rbp), %rax
	movq	%rax, -32(%rbp)
	movq	-96(%rbp), %rax
	movq	-16(%rbp), %rdi
	movq	%rax, -136(%rbp)        # 8-byte Spill
	callq	SDATA
	movq	-136(%rbp), %rdi        # 8-byte Reload
	subq	%rax, %rdi
	movq	%rdi, -40(%rbp)
.LBB21_28:                              # %if.end.59
	movq	-40(%rbp), %rax
	movq	%rax, string_char_byte_cache_bytepos
	movq	-32(%rbp), %rax
	movq	%rax, string_char_byte_cache_charpos
	movq	-16(%rbp), %rax
	movq	%rax, string_char_byte_cache_string
	movq	-32(%rbp), %rax
	movq	%rax, -8(%rbp)
.LBB21_29:                              # %return
	movq	-8(%rbp), %rax
	addq	$144, %rsp
	popq	%rbp
	retq
.Lfunc_end21:
	.size	string_byte_to_char, .Lfunc_end21-string_byte_to_char
	.cfi_endproc

	.globl	string_to_multibyte
	.align	16, 0x90
	.type	string_to_multibyte,@function
string_to_multibyte:                    # @string_to_multibyte
	.cfi_startproc
# BB#0:                                 # %entry
	pushq	%rbp
.Ltmp66:
	.cfi_def_cfa_offset 16
.Ltmp67:
	.cfi_offset %rbp, -16
	movq	%rsp, %rbp
.Ltmp68:
	.cfi_def_cfa_register %rbp
	subq	$160, %rsp
	movq	%rdi, -16(%rbp)
	movq	$16384, -48(%rbp)       # imm = 0x4000
	callq	SPECPDL_INDEX
	movq	%rax, -56(%rbp)
	movb	$0, -57(%rbp)
	movq	-16(%rbp), %rdi
	callq	STRING_MULTIBYTE
	testb	$1, %al
	jne	.LBB22_1
	jmp	.LBB22_2
.LBB22_1:                               # %if.then
	movq	-16(%rbp), %rax
	movq	%rax, -8(%rbp)
	jmp	.LBB22_12
.LBB22_2:                               # %if.end
	movq	-16(%rbp), %rdi
	callq	SDATA
	movq	-16(%rbp), %rdi
	movq	%rax, -72(%rbp)         # 8-byte Spill
	callq	SBYTES
	movq	-72(%rbp), %rdi         # 8-byte Reload
	movq	%rax, %rsi
	callq	count_size_as_multibyte
	movq	%rax, -32(%rbp)
	movq	-32(%rbp), %rax
	movq	-16(%rbp), %rdi
	movq	%rax, -80(%rbp)         # 8-byte Spill
	callq	SBYTES
	movq	-80(%rbp), %rsi         # 8-byte Reload
	cmpq	%rax, %rsi
	jne	.LBB22_4
# BB#3:                                 # %if.then.6
	movq	-16(%rbp), %rdi
	callq	SSDATA
	movq	-32(%rbp), %rsi
	movq	-32(%rbp), %rdx
	movq	%rax, %rdi
	callq	make_multibyte_string
	movq	%rax, -8(%rbp)
	jmp	.LBB22_12
.LBB22_4:                               # %if.end.9
	movq	-32(%rbp), %rax
	cmpq	-48(%rbp), %rax
	jg	.LBB22_6
# BB#5:                                 # %cond.true
	movq	-32(%rbp), %rax
	movq	-48(%rbp), %rcx
	subq	%rax, %rcx
	movq	%rcx, -48(%rbp)
	movq	-32(%rbp), %rax
	addq	$15, %rax
	andq	$-16, %rax
	movq	%rsp, %rcx
	subq	%rax, %rcx
	movq	%rcx, %rsp
	movq	%rcx, -88(%rbp)         # 8-byte Spill
	jmp	.LBB22_7
.LBB22_6:                               # %cond.false
	movb	$1, -57(%rbp)
	movq	-32(%rbp), %rdi
	callq	record_xmalloc
	movq	%rax, -88(%rbp)         # 8-byte Spill
.LBB22_7:                               # %cond.end
	movq	-88(%rbp), %rax         # 8-byte Reload
	movq	%rax, -24(%rbp)
	movq	-24(%rbp), %rdi
	movq	-16(%rbp), %rax
	movq	%rdi, -96(%rbp)         # 8-byte Spill
	movq	%rax, %rdi
	callq	SDATA
	movq	-16(%rbp), %rdi
	movq	%rax, -104(%rbp)        # 8-byte Spill
	callq	SBYTES
	movq	-96(%rbp), %rdi         # 8-byte Reload
	movq	-104(%rbp), %rsi        # 8-byte Reload
	movq	%rax, %rdx
	callq	memcpy
	movq	-24(%rbp), %rdi
	movq	-32(%rbp), %rsi
	movq	-16(%rbp), %rax
	movq	%rdi, -112(%rbp)        # 8-byte Spill
	movq	%rax, %rdi
	movq	%rsi, -120(%rbp)        # 8-byte Spill
	callq	SBYTES
	movq	-112(%rbp), %rdi        # 8-byte Reload
	movq	-120(%rbp), %rsi        # 8-byte Reload
	movq	%rax, %rdx
	callq	str_to_multibyte
	movq	-24(%rbp), %rdi
	movq	-16(%rbp), %rdx
	movq	%rdi, -128(%rbp)        # 8-byte Spill
	movq	%rdx, %rdi
	movq	%rax, -136(%rbp)        # 8-byte Spill
	callq	SCHARS
	movq	-32(%rbp), %rdx
	movq	-128(%rbp), %rdi        # 8-byte Reload
	movq	%rax, %rsi
	callq	make_multibyte_string
	movq	%rax, -40(%rbp)
# BB#8:                                 # %do.body
	testb	$1, -57(%rbp)
	je	.LBB22_10
# BB#9:                                 # %if.then.18
	xorl	%edi, %edi
	movb	$0, -57(%rbp)
	movq	-56(%rbp), %rax
	movq	%rax, -144(%rbp)        # 8-byte Spill
	callq	builtin_lisp_symbol
	movq	-144(%rbp), %rdi        # 8-byte Reload
	movq	%rax, %rsi
	callq	unbind_to
	movq	%rax, -152(%rbp)        # 8-byte Spill
.LBB22_10:                              # %if.end.21
	jmp	.LBB22_11
.LBB22_11:                              # %do.end
	movq	-40(%rbp), %rax
	movq	%rax, -8(%rbp)
.LBB22_12:                              # %return
	movq	-8(%rbp), %rax
	movq	%rbp, %rsp
	popq	%rbp
	retq
.Lfunc_end22:
	.size	string_to_multibyte, .Lfunc_end22-string_to_multibyte
	.cfi_endproc

	.globl	string_make_unibyte
	.align	16, 0x90
	.type	string_make_unibyte,@function
string_make_unibyte:                    # @string_make_unibyte
	.cfi_startproc
# BB#0:                                 # %entry
	pushq	%rbp
.Ltmp69:
	.cfi_def_cfa_offset 16
.Ltmp70:
	.cfi_offset %rbp, -16
	movq	%rsp, %rbp
.Ltmp71:
	.cfi_def_cfa_register %rbp
	subq	$112, %rsp
	movq	%rdi, -16(%rbp)
	movq	$16384, -48(%rbp)       # imm = 0x4000
	callq	SPECPDL_INDEX
	movq	%rax, -56(%rbp)
	movb	$0, -57(%rbp)
	movq	-16(%rbp), %rdi
	callq	STRING_MULTIBYTE
	testb	$1, %al
	jne	.LBB23_2
# BB#1:                                 # %if.then
	movq	-16(%rbp), %rax
	movq	%rax, -8(%rbp)
	jmp	.LBB23_10
.LBB23_2:                               # %if.end
	movq	-16(%rbp), %rdi
	callq	SCHARS
	movq	%rax, -24(%rbp)
	movq	-24(%rbp), %rax
	cmpq	-48(%rbp), %rax
	jg	.LBB23_4
# BB#3:                                 # %cond.true
	movq	-24(%rbp), %rax
	movq	-48(%rbp), %rcx
	subq	%rax, %rcx
	movq	%rcx, -48(%rbp)
	movq	-24(%rbp), %rax
	addq	$15, %rax
	andq	$-16, %rax
	movq	%rsp, %rcx
	subq	%rax, %rcx
	movq	%rcx, %rsp
	movq	%rcx, -72(%rbp)         # 8-byte Spill
	jmp	.LBB23_5
.LBB23_4:                               # %cond.false
	movb	$1, -57(%rbp)
	movq	-24(%rbp), %rdi
	callq	record_xmalloc
	movq	%rax, -72(%rbp)         # 8-byte Spill
.LBB23_5:                               # %cond.end
	movq	-72(%rbp), %rax         # 8-byte Reload
	movq	%rax, -32(%rbp)
	movq	-16(%rbp), %rdi
	callq	SDATA
	movq	-32(%rbp), %rsi
	movq	-16(%rbp), %rdi
	movq	%rax, -80(%rbp)         # 8-byte Spill
	movq	%rsi, -88(%rbp)         # 8-byte Spill
	callq	SBYTES
	movl	$1, %ecx
	xorl	%r8d, %r8d
	movq	-80(%rbp), %rdi         # 8-byte Reload
	movq	-88(%rbp), %rsi         # 8-byte Reload
	movq	%rax, %rdx
	callq	copy_text
	movq	-32(%rbp), %rdi
	movq	-24(%rbp), %rsi
	movq	%rax, -96(%rbp)         # 8-byte Spill
	callq	make_unibyte_string
	movq	%rax, -40(%rbp)
# BB#6:                                 # %do.body
	testb	$1, -57(%rbp)
	je	.LBB23_8
# BB#7:                                 # %if.then.8
	xorl	%edi, %edi
	movb	$0, -57(%rbp)
	movq	-56(%rbp), %rax
	movq	%rax, -104(%rbp)        # 8-byte Spill
	callq	builtin_lisp_symbol
	movq	-104(%rbp), %rdi        # 8-byte Reload
	movq	%rax, %rsi
	callq	unbind_to
	movq	%rax, -112(%rbp)        # 8-byte Spill
.LBB23_8:                               # %if.end.11
	jmp	.LBB23_9
.LBB23_9:                               # %do.end
	movq	-40(%rbp), %rax
	movq	%rax, -8(%rbp)
.LBB23_10:                              # %return
	movq	-8(%rbp), %rax
	movq	%rbp, %rsp
	popq	%rbp
	retq
.Lfunc_end23:
	.size	string_make_unibyte, .Lfunc_end23-string_make_unibyte
	.cfi_endproc

	.globl	Fstring_make_multibyte
	.align	16, 0x90
	.type	Fstring_make_multibyte,@function
Fstring_make_multibyte:                 # @Fstring_make_multibyte
	.cfi_startproc
# BB#0:                                 # %entry
	pushq	%rbp
.Ltmp72:
	.cfi_def_cfa_offset 16
.Ltmp73:
	.cfi_offset %rbp, -16
	movq	%rsp, %rbp
.Ltmp74:
	.cfi_def_cfa_register %rbp
	subq	$16, %rsp
	movq	%rdi, -8(%rbp)
	movq	-8(%rbp), %rdi
	callq	CHECK_STRING
	movq	-8(%rbp), %rdi
	callq	string_make_multibyte
	addq	$16, %rsp
	popq	%rbp
	retq
.Lfunc_end24:
	.size	Fstring_make_multibyte, .Lfunc_end24-Fstring_make_multibyte
	.cfi_endproc

	.align	16, 0x90
	.type	string_make_multibyte,@function
string_make_multibyte:                  # @string_make_multibyte
	.cfi_startproc
# BB#0:                                 # %entry
	pushq	%rbp
.Ltmp75:
	.cfi_def_cfa_offset 16
.Ltmp76:
	.cfi_offset %rbp, -16
	movq	%rsp, %rbp
.Ltmp77:
	.cfi_def_cfa_register %rbp
	subq	$144, %rsp
	movq	%rdi, -16(%rbp)
	movq	$16384, -48(%rbp)       # imm = 0x4000
	callq	SPECPDL_INDEX
	movq	%rax, -56(%rbp)
	movb	$0, -57(%rbp)
	movq	-16(%rbp), %rdi
	callq	STRING_MULTIBYTE
	testb	$1, %al
	jne	.LBB25_1
	jmp	.LBB25_2
.LBB25_1:                               # %if.then
	movq	-16(%rbp), %rax
	movq	%rax, -8(%rbp)
	jmp	.LBB25_12
.LBB25_2:                               # %if.end
	movq	-16(%rbp), %rdi
	callq	SDATA
	movq	-16(%rbp), %rdi
	movq	%rax, -72(%rbp)         # 8-byte Spill
	callq	SCHARS
	movq	-72(%rbp), %rdi         # 8-byte Reload
	movq	%rax, %rsi
	callq	count_size_as_multibyte
	movq	%rax, -32(%rbp)
	movq	-32(%rbp), %rax
	movq	-16(%rbp), %rdi
	movq	%rax, -80(%rbp)         # 8-byte Spill
	callq	SBYTES
	movq	-80(%rbp), %rsi         # 8-byte Reload
	cmpq	%rax, %rsi
	jne	.LBB25_4
# BB#3:                                 # %if.then.6
	movq	-16(%rbp), %rax
	movq	%rax, -8(%rbp)
	jmp	.LBB25_12
.LBB25_4:                               # %if.end.7
	movq	-32(%rbp), %rax
	cmpq	-48(%rbp), %rax
	jg	.LBB25_6
# BB#5:                                 # %cond.true
	movq	-32(%rbp), %rax
	movq	-48(%rbp), %rcx
	subq	%rax, %rcx
	movq	%rcx, -48(%rbp)
	movq	-32(%rbp), %rax
	addq	$15, %rax
	andq	$-16, %rax
	movq	%rsp, %rcx
	subq	%rax, %rcx
	movq	%rcx, %rsp
	movq	%rcx, -88(%rbp)         # 8-byte Spill
	jmp	.LBB25_7
.LBB25_6:                               # %cond.false
	movb	$1, -57(%rbp)
	movq	-32(%rbp), %rdi
	callq	record_xmalloc
	movq	%rax, -88(%rbp)         # 8-byte Spill
.LBB25_7:                               # %cond.end
	movq	-88(%rbp), %rax         # 8-byte Reload
	movq	%rax, -24(%rbp)
	movq	-16(%rbp), %rdi
	callq	SDATA
	movq	-24(%rbp), %rsi
	movq	-16(%rbp), %rdi
	movq	%rax, -96(%rbp)         # 8-byte Spill
	movq	%rsi, -104(%rbp)        # 8-byte Spill
	callq	SBYTES
	xorl	%ecx, %ecx
	movl	$1, %r8d
	movq	-96(%rbp), %rdi         # 8-byte Reload
	movq	-104(%rbp), %rsi        # 8-byte Reload
	movq	%rax, %rdx
	callq	copy_text
	movq	-24(%rbp), %rdi
	movq	-16(%rbp), %rdx
	movq	%rdi, -112(%rbp)        # 8-byte Spill
	movq	%rdx, %rdi
	movq	%rax, -120(%rbp)        # 8-byte Spill
	callq	SCHARS
	movq	-32(%rbp), %rdx
	movq	-112(%rbp), %rdi        # 8-byte Reload
	movq	%rax, %rsi
	callq	make_multibyte_string
	movq	%rax, -40(%rbp)
# BB#8:                                 # %do.body
	testb	$1, -57(%rbp)
	je	.LBB25_10
# BB#9:                                 # %if.then.15
	xorl	%edi, %edi
	movb	$0, -57(%rbp)
	movq	-56(%rbp), %rax
	movq	%rax, -128(%rbp)        # 8-byte Spill
	callq	builtin_lisp_symbol
	movq	-128(%rbp), %rdi        # 8-byte Reload
	movq	%rax, %rsi
	callq	unbind_to
	movq	%rax, -136(%rbp)        # 8-byte Spill
.LBB25_10:                              # %if.end.18
	jmp	.LBB25_11
.LBB25_11:                              # %do.end
	movq	-40(%rbp), %rax
	movq	%rax, -8(%rbp)
.LBB25_12:                              # %return
	movq	-8(%rbp), %rax
	movq	%rbp, %rsp
	popq	%rbp
	retq
.Lfunc_end25:
	.size	string_make_multibyte, .Lfunc_end25-string_make_multibyte
	.cfi_endproc

	.globl	Fstring_make_unibyte
	.align	16, 0x90
	.type	Fstring_make_unibyte,@function
Fstring_make_unibyte:                   # @Fstring_make_unibyte
	.cfi_startproc
# BB#0:                                 # %entry
	pushq	%rbp
.Ltmp78:
	.cfi_def_cfa_offset 16
.Ltmp79:
	.cfi_offset %rbp, -16
	movq	%rsp, %rbp
.Ltmp80:
	.cfi_def_cfa_register %rbp
	subq	$16, %rsp
	movq	%rdi, -8(%rbp)
	movq	-8(%rbp), %rdi
	callq	CHECK_STRING
	movq	-8(%rbp), %rdi
	callq	string_make_unibyte
	addq	$16, %rsp
	popq	%rbp
	retq
.Lfunc_end26:
	.size	Fstring_make_unibyte, .Lfunc_end26-Fstring_make_unibyte
	.cfi_endproc

	.globl	Fstring_as_unibyte
	.align	16, 0x90
	.type	Fstring_as_unibyte,@function
Fstring_as_unibyte:                     # @Fstring_as_unibyte
	.cfi_startproc
# BB#0:                                 # %entry
	pushq	%rbp
.Ltmp81:
	.cfi_def_cfa_offset 16
.Ltmp82:
	.cfi_offset %rbp, -16
	movq	%rsp, %rbp
.Ltmp83:
	.cfi_def_cfa_register %rbp
	subq	$32, %rsp
	movq	%rdi, -8(%rbp)
	movq	-8(%rbp), %rdi
	callq	CHECK_STRING
	movq	-8(%rbp), %rdi
	callq	STRING_MULTIBYTE
	testb	$1, %al
	jne	.LBB27_1
	jmp	.LBB27_2
.LBB27_1:                               # %if.then
	movq	-8(%rbp), %rdi
	callq	xlispstrdup
	movq	%rax, -16(%rbp)
	movq	-16(%rbp), %rdi
	movq	-8(%rbp), %rax
	movq	%rdi, -32(%rbp)         # 8-byte Spill
	movq	%rax, %rdi
	callq	SBYTES
	movq	-32(%rbp), %rdi         # 8-byte Reload
	movq	%rax, %rsi
	callq	str_as_unibyte
	movq	%rax, -24(%rbp)
	movq	-16(%rbp), %rdi
	movq	-24(%rbp), %rsi
	callq	make_unibyte_string
	movq	%rax, -8(%rbp)
	movq	-16(%rbp), %rdi
	callq	xfree
.LBB27_2:                               # %if.end
	movq	-8(%rbp), %rax
	addq	$32, %rsp
	popq	%rbp
	retq
.Lfunc_end27:
	.size	Fstring_as_unibyte, .Lfunc_end27-Fstring_as_unibyte
	.cfi_endproc

	.globl	Fstring_as_multibyte
	.align	16, 0x90
	.type	Fstring_as_multibyte,@function
Fstring_as_multibyte:                   # @Fstring_as_multibyte
	.cfi_startproc
# BB#0:                                 # %entry
	pushq	%rbp
.Ltmp84:
	.cfi_def_cfa_offset 16
.Ltmp85:
	.cfi_offset %rbp, -16
	movq	%rsp, %rbp
.Ltmp86:
	.cfi_def_cfa_register %rbp
	subq	$96, %rsp
	movq	%rdi, -8(%rbp)
	movq	-8(%rbp), %rdi
	callq	CHECK_STRING
	movq	-8(%rbp), %rdi
	callq	STRING_MULTIBYTE
	testb	$1, %al
	jne	.LBB28_4
# BB#1:                                 # %if.then
	movq	-8(%rbp), %rdi
	callq	SDATA
	movq	-8(%rbp), %rdi
	movq	%rax, -40(%rbp)         # 8-byte Spill
	callq	SBYTES
	leaq	-24(%rbp), %rdx
	leaq	-32(%rbp), %rcx
	movq	-40(%rbp), %rdi         # 8-byte Reload
	movq	%rax, %rsi
	callq	parse_str_as_multibyte
	movq	-24(%rbp), %rdi
	movq	-32(%rbp), %rsi
	callq	make_uninit_multibyte_string
	movq	%rax, -16(%rbp)
	movq	-16(%rbp), %rdi
	callq	SDATA
	movq	-8(%rbp), %rdi
	movq	%rax, -48(%rbp)         # 8-byte Spill
	callq	SDATA
	movq	-8(%rbp), %rdi
	movq	%rax, -56(%rbp)         # 8-byte Spill
	callq	SBYTES
	movq	-48(%rbp), %rdi         # 8-byte Reload
	movq	-56(%rbp), %rsi         # 8-byte Reload
	movq	%rax, %rdx
	callq	memcpy
	movq	-32(%rbp), %rax
	movq	-8(%rbp), %rdi
	movq	%rax, -64(%rbp)         # 8-byte Spill
	callq	SBYTES
	movq	-64(%rbp), %rcx         # 8-byte Reload
	cmpq	%rax, %rcx
	je	.LBB28_3
# BB#2:                                 # %if.then.8
	movq	-16(%rbp), %rdi
	callq	SDATA
	movq	-32(%rbp), %rsi
	movq	-8(%rbp), %rdi
	movq	%rax, -72(%rbp)         # 8-byte Spill
	movq	%rsi, -80(%rbp)         # 8-byte Spill
	callq	SBYTES
	xorl	%ecx, %ecx
                                        # kill: RCX<def> ECX<kill>
	movq	-72(%rbp), %rdi         # 8-byte Reload
	movq	-80(%rbp), %rsi         # 8-byte Reload
	movq	%rax, %rdx
	callq	str_as_multibyte
	movq	%rax, -88(%rbp)         # 8-byte Spill
.LBB28_3:                               # %if.end
	xorl	%eax, %eax
	movl	%eax, %esi
	movq	-16(%rbp), %rcx
	movq	%rcx, -8(%rbp)
	movq	-8(%rbp), %rdi
	callq	set_string_intervals
.LBB28_4:                               # %if.end.12
	movq	-8(%rbp), %rax
	addq	$96, %rsp
	popq	%rbp
	retq
.Lfunc_end28:
	.size	Fstring_as_multibyte, .Lfunc_end28-Fstring_as_multibyte
	.cfi_endproc

	.globl	Fstring_to_multibyte
	.align	16, 0x90
	.type	Fstring_to_multibyte,@function
Fstring_to_multibyte:                   # @Fstring_to_multibyte
	.cfi_startproc
# BB#0:                                 # %entry
	pushq	%rbp
.Ltmp87:
	.cfi_def_cfa_offset 16
.Ltmp88:
	.cfi_offset %rbp, -16
	movq	%rsp, %rbp
.Ltmp89:
	.cfi_def_cfa_register %rbp
	subq	$16, %rsp
	movq	%rdi, -8(%rbp)
	movq	-8(%rbp), %rdi
	callq	CHECK_STRING
	movq	-8(%rbp), %rdi
	callq	string_to_multibyte
	addq	$16, %rsp
	popq	%rbp
	retq
.Lfunc_end29:
	.size	Fstring_to_multibyte, .Lfunc_end29-Fstring_to_multibyte
	.cfi_endproc

	.globl	Fstring_to_unibyte
	.align	16, 0x90
	.type	Fstring_to_unibyte,@function
Fstring_to_unibyte:                     # @Fstring_to_unibyte
	.cfi_startproc
# BB#0:                                 # %entry
	pushq	%rbp
.Ltmp90:
	.cfi_def_cfa_offset 16
.Ltmp91:
	.cfi_offset %rbp, -16
	movq	%rsp, %rbp
.Ltmp92:
	.cfi_def_cfa_register %rbp
	subq	$32, %rsp
	movq	%rdi, -8(%rbp)
	movq	-8(%rbp), %rdi
	callq	CHECK_STRING
	movq	-8(%rbp), %rdi
	callq	STRING_MULTIBYTE
	testb	$1, %al
	jne	.LBB30_1
	jmp	.LBB30_4
.LBB30_1:                               # %if.then
	movq	-8(%rbp), %rdi
	callq	SCHARS
	movq	%rax, -16(%rbp)
	movq	-16(%rbp), %rdi
	callq	xmalloc
	movq	%rax, -24(%rbp)
	movq	-8(%rbp), %rdi
	callq	SDATA
	movq	-24(%rbp), %rsi
	movq	-16(%rbp), %rdx
	movq	%rax, %rdi
	callq	str_to_unibyte
	movq	%rax, -32(%rbp)
	movq	-32(%rbp), %rax
	cmpq	-16(%rbp), %rax
	jge	.LBB30_3
# BB#2:                                 # %if.then.5
	movabsq	$.L.str.1, %rdi
	movq	-32(%rbp), %rsi
	movb	$0, %al
	callq	error
.LBB30_3:                               # %if.end
	movq	-24(%rbp), %rdi
	movq	-16(%rbp), %rsi
	callq	make_unibyte_string
	movq	%rax, -8(%rbp)
	movq	-24(%rbp), %rdi
	callq	xfree
.LBB30_4:                               # %if.end.7
	movq	-8(%rbp), %rax
	addq	$32, %rsp
	popq	%rbp
	retq
.Lfunc_end30:
	.size	Fstring_to_unibyte, .Lfunc_end30-Fstring_to_unibyte
	.cfi_endproc

	.globl	Fcopy_alist
	.align	16, 0x90
	.type	Fcopy_alist,@function
Fcopy_alist:                            # @Fcopy_alist
	.cfi_startproc
# BB#0:                                 # %entry
	pushq	%rbp
.Ltmp93:
	.cfi_def_cfa_offset 16
.Ltmp94:
	.cfi_offset %rbp, -16
	movq	%rsp, %rbp
.Ltmp95:
	.cfi_def_cfa_register %rbp
	subq	$48, %rsp
	movq	%rdi, -16(%rbp)
	movq	-16(%rbp), %rdi
	callq	CHECK_LIST
	xorl	%edi, %edi
	movq	-16(%rbp), %rax
	movq	%rax, -40(%rbp)         # 8-byte Spill
	callq	builtin_lisp_symbol
	movq	-40(%rbp), %rcx         # 8-byte Reload
	cmpq	%rax, %rcx
	jne	.LBB31_2
# BB#1:                                 # %if.then
	movq	-16(%rbp), %rax
	movq	%rax, -8(%rbp)
	jmp	.LBB31_9
.LBB31_2:                               # %if.end
	movl	$1, %eax
	movl	%eax, %edi
	leaq	-16(%rbp), %rsi
	movl	$3, %edx
	xorl	%ecx, %ecx
	callq	concat
	movq	%rax, -16(%rbp)
	movq	-16(%rbp), %rax
	movq	%rax, -24(%rbp)
.LBB31_3:                               # %for.cond
                                        # =>This Inner Loop Header: Depth=1
	movq	-24(%rbp), %rax
	andq	$7, %rax
	movl	%eax, %ecx
	cmpl	$3, %ecx
	jne	.LBB31_8
# BB#4:                                 # %for.body
                                        #   in Loop: Header=BB31_3 Depth=1
	movq	-24(%rbp), %rax
	subq	$3, %rax
	movq	(%rax), %rax
	movq	%rax, -32(%rbp)
	movq	-32(%rbp), %rax
	andq	$7, %rax
	movl	%eax, %ecx
	cmpl	$3, %ecx
	jne	.LBB31_6
# BB#5:                                 # %if.then.9
                                        #   in Loop: Header=BB31_3 Depth=1
	movq	-24(%rbp), %rdi
	movq	-32(%rbp), %rax
	subq	$3, %rax
	movq	(%rax), %rax
	movq	-32(%rbp), %rcx
	subq	$3, %rcx
	movq	8(%rcx), %rsi
	movq	%rdi, -48(%rbp)         # 8-byte Spill
	movq	%rax, %rdi
	callq	Fcons
	movq	-48(%rbp), %rdi         # 8-byte Reload
	movq	%rax, %rsi
	callq	XSETCAR
.LBB31_6:                               # %if.end.14
                                        #   in Loop: Header=BB31_3 Depth=1
	jmp	.LBB31_7
.LBB31_7:                               # %for.inc
                                        #   in Loop: Header=BB31_3 Depth=1
	movq	-24(%rbp), %rax
	subq	$3, %rax
	movq	8(%rax), %rax
	movq	%rax, -24(%rbp)
	jmp	.LBB31_3
.LBB31_8:                               # %for.end
	movq	-16(%rbp), %rax
	movq	%rax, -8(%rbp)
.LBB31_9:                               # %return
	movq	-8(%rbp), %rax
	addq	$48, %rsp
	popq	%rbp
	retq
.Lfunc_end31:
	.size	Fcopy_alist, .Lfunc_end31-Fcopy_alist
	.cfi_endproc

	.globl	Fsubstring
	.align	16, 0x90
	.type	Fsubstring,@function
Fsubstring:                             # @Fsubstring
	.cfi_startproc
# BB#0:                                 # %entry
	pushq	%rbp
.Ltmp96:
	.cfi_def_cfa_offset 16
.Ltmp97:
	.cfi_offset %rbp, -16
	movq	%rsp, %rbp
.Ltmp98:
	.cfi_def_cfa_register %rbp
	subq	$176, %rsp
	movq	%rdi, -8(%rbp)
	movq	%rsi, -16(%rbp)
	movq	%rdx, -24(%rbp)
	movq	-8(%rbp), %rdi
	callq	CHECK_VECTOR_OR_STRING
	leaq	-48(%rbp), %r8
	leaq	-56(%rbp), %r9
	movq	%rax, -40(%rbp)
	movq	-8(%rbp), %rdi
	movq	-16(%rbp), %rsi
	movq	-24(%rbp), %rdx
	movq	-40(%rbp), %rcx
	callq	validate_subarray
	movq	-8(%rbp), %rdi
	callq	STRINGP
	testb	$1, %al
	jne	.LBB32_1
	jmp	.LBB32_8
.LBB32_1:                               # %if.then
	cmpq	$0, -48(%rbp)
	jne	.LBB32_3
# BB#2:                                 # %cond.true
	xorl	%eax, %eax
	movl	%eax, %ecx
	movq	%rcx, -80(%rbp)         # 8-byte Spill
	jmp	.LBB32_4
.LBB32_3:                               # %cond.false
	movq	-8(%rbp), %rdi
	movq	-48(%rbp), %rsi
	callq	string_char_to_byte
	movq	%rax, -80(%rbp)         # 8-byte Spill
.LBB32_4:                               # %cond.end
	movq	-80(%rbp), %rax         # 8-byte Reload
	movq	%rax, -64(%rbp)
	movq	-56(%rbp), %rax
	cmpq	-40(%rbp), %rax
	jne	.LBB32_6
# BB#5:                                 # %cond.true.3
	movq	-8(%rbp), %rdi
	callq	SBYTES
	movq	%rax, -88(%rbp)         # 8-byte Spill
	jmp	.LBB32_7
.LBB32_6:                               # %cond.false.5
	movq	-8(%rbp), %rdi
	movq	-56(%rbp), %rsi
	callq	string_char_to_byte
	movq	%rax, -88(%rbp)         # 8-byte Spill
.LBB32_7:                               # %cond.end.7
	movq	-88(%rbp), %rax         # 8-byte Reload
	movq	%rax, -72(%rbp)
	movq	-8(%rbp), %rdi
	callq	SSDATA
	addq	-64(%rbp), %rax
	movq	-56(%rbp), %rdi
	subq	-48(%rbp), %rdi
	movq	-72(%rbp), %rcx
	subq	-64(%rbp), %rcx
	movq	-8(%rbp), %rdx
	movq	%rdi, -96(%rbp)         # 8-byte Spill
	movq	%rdx, %rdi
	movq	%rax, -104(%rbp)        # 8-byte Spill
	movq	%rcx, -112(%rbp)        # 8-byte Spill
	callq	STRING_MULTIBYTE
	movzbl	%al, %esi
	andl	$1, %esi
	movq	-104(%rbp), %rdi        # 8-byte Reload
	movq	-96(%rbp), %rcx         # 8-byte Reload
	movl	%esi, -116(%rbp)        # 4-byte Spill
	movq	%rcx, %rsi
	movq	-112(%rbp), %rdx        # 8-byte Reload
	movl	-116(%rbp), %ecx        # 4-byte Reload
	callq	make_specified_string
	xorl	%edi, %edi
	movq	%rax, -32(%rbp)
	movq	-48(%rbp), %rax
	shlq	$2, %rax
	addq	$2, %rax
	movq	-56(%rbp), %rdx
	shlq	$2, %rdx
	addq	$2, %rdx
	movq	-8(%rbp), %rsi
	movq	-32(%rbp), %r8
	movq	%r8, -128(%rbp)         # 8-byte Spill
	movq	%rax, -136(%rbp)        # 8-byte Spill
	movq	%rdx, -144(%rbp)        # 8-byte Spill
	movq	%rsi, -152(%rbp)        # 8-byte Spill
	callq	builtin_lisp_symbol
	movl	$2, %ecx
                                        # kill: RCX<def> ECX<kill>
	movq	-136(%rbp), %rdi        # 8-byte Reload
	movq	-144(%rbp), %rsi        # 8-byte Reload
	movq	-152(%rbp), %rdx        # 8-byte Reload
	movq	-128(%rbp), %r8         # 8-byte Reload
	movq	%rax, %r9
	callq	copy_text_properties
	movq	%rax, -160(%rbp)        # 8-byte Spill
	jmp	.LBB32_9
.LBB32_8:                               # %if.else
	movq	-56(%rbp), %rax
	subq	-48(%rbp), %rax
	movq	-8(%rbp), %rdi
	movq	-48(%rbp), %rsi
	movq	%rax, -168(%rbp)        # 8-byte Spill
	callq	aref_addr
	movq	-168(%rbp), %rdi        # 8-byte Reload
	movq	%rax, %rsi
	callq	Fvector
	movq	%rax, -32(%rbp)
.LBB32_9:                               # %if.end
	movq	-32(%rbp), %rax
	addq	$176, %rsp
	popq	%rbp
	retq
.Lfunc_end32:
	.size	Fsubstring, .Lfunc_end32-Fsubstring
	.cfi_endproc

	.globl	Fsubstring_no_properties
	.align	16, 0x90
	.type	Fsubstring_no_properties,@function
Fsubstring_no_properties:               # @Fsubstring_no_properties
	.cfi_startproc
# BB#0:                                 # %entry
	pushq	%rbp
.Ltmp99:
	.cfi_def_cfa_offset 16
.Ltmp100:
	.cfi_offset %rbp, -16
	movq	%rsp, %rbp
.Ltmp101:
	.cfi_def_cfa_register %rbp
	subq	$112, %rsp
	movq	%rdi, -8(%rbp)
	movq	%rsi, -16(%rbp)
	movq	%rdx, -24(%rbp)
	movq	-8(%rbp), %rdi
	callq	CHECK_STRING
	movq	-8(%rbp), %rdi
	callq	SCHARS
	leaq	-32(%rbp), %r8
	leaq	-40(%rbp), %r9
	movq	%rax, -64(%rbp)
	movq	-8(%rbp), %rdi
	movq	-16(%rbp), %rsi
	movq	-24(%rbp), %rdx
	movq	-64(%rbp), %rcx
	callq	validate_subarray
	cmpq	$0, -32(%rbp)
	jne	.LBB33_2
# BB#1:                                 # %cond.true
	xorl	%eax, %eax
	movl	%eax, %ecx
	movq	%rcx, -72(%rbp)         # 8-byte Spill
	jmp	.LBB33_3
.LBB33_2:                               # %cond.false
	movq	-8(%rbp), %rdi
	movq	-32(%rbp), %rsi
	callq	string_char_to_byte
	movq	%rax, -72(%rbp)         # 8-byte Spill
.LBB33_3:                               # %cond.end
	movq	-72(%rbp), %rax         # 8-byte Reload
	movq	%rax, -48(%rbp)
	movq	-40(%rbp), %rax
	cmpq	-64(%rbp), %rax
	jne	.LBB33_5
# BB#4:                                 # %cond.true.2
	movq	-8(%rbp), %rdi
	callq	SBYTES
	movq	%rax, -80(%rbp)         # 8-byte Spill
	jmp	.LBB33_6
.LBB33_5:                               # %cond.false.4
	movq	-8(%rbp), %rdi
	movq	-40(%rbp), %rsi
	callq	string_char_to_byte
	movq	%rax, -80(%rbp)         # 8-byte Spill
.LBB33_6:                               # %cond.end.6
	movq	-80(%rbp), %rax         # 8-byte Reload
	movq	%rax, -56(%rbp)
	movq	-8(%rbp), %rdi
	callq	SSDATA
	addq	-48(%rbp), %rax
	movq	-40(%rbp), %rdi
	subq	-32(%rbp), %rdi
	movq	-56(%rbp), %rcx
	subq	-48(%rbp), %rcx
	movq	-8(%rbp), %rdx
	movq	%rdi, -88(%rbp)         # 8-byte Spill
	movq	%rdx, %rdi
	movq	%rax, -96(%rbp)         # 8-byte Spill
	movq	%rcx, -104(%rbp)        # 8-byte Spill
	callq	STRING_MULTIBYTE
	movzbl	%al, %esi
	andl	$1, %esi
	movq	-96(%rbp), %rdi         # 8-byte Reload
	movq	-88(%rbp), %rcx         # 8-byte Reload
	movl	%esi, -108(%rbp)        # 4-byte Spill
	movq	%rcx, %rsi
	movq	-104(%rbp), %rdx        # 8-byte Reload
	movl	-108(%rbp), %ecx        # 4-byte Reload
	callq	make_specified_string
	addq	$112, %rsp
	popq	%rbp
	retq
.Lfunc_end33:
	.size	Fsubstring_no_properties, .Lfunc_end33-Fsubstring_no_properties
	.cfi_endproc

	.globl	substring_both
	.align	16, 0x90
	.type	substring_both,@function
substring_both:                         # @substring_both
	.cfi_startproc
# BB#0:                                 # %entry
	pushq	%rbp
.Ltmp102:
	.cfi_def_cfa_offset 16
.Ltmp103:
	.cfi_offset %rbp, -16
	movq	%rsp, %rbp
.Ltmp104:
	.cfi_def_cfa_register %rbp
	subq	$144, %rsp
	movq	%rdi, -8(%rbp)
	movq	%rsi, -16(%rbp)
	movq	%rdx, -24(%rbp)
	movq	%rcx, -32(%rbp)
	movq	%r8, -40(%rbp)
	movq	-8(%rbp), %rdi
	callq	CHECK_VECTOR_OR_STRING
	xorl	%r9d, %r9d
	movl	%r9d, %ecx
	movq	%rax, -56(%rbp)
	cmpq	-16(%rbp), %rcx
	jg	.LBB34_3
# BB#1:                                 # %land.lhs.true
	movq	-16(%rbp), %rax
	cmpq	-32(%rbp), %rax
	jg	.LBB34_3
# BB#2:                                 # %land.lhs.true.2
	movq	-32(%rbp), %rax
	cmpq	-56(%rbp), %rax
	jle	.LBB34_4
.LBB34_3:                               # %if.then
	movq	-8(%rbp), %rdi
	movq	-16(%rbp), %rax
	shlq	$2, %rax
	addq	$2, %rax
	movq	-32(%rbp), %rcx
	shlq	$2, %rcx
	addq	$2, %rcx
	movq	%rax, %rsi
	movq	%rcx, %rdx
	callq	args_out_of_range_3
.LBB34_4:                               # %if.end
	movq	-8(%rbp), %rdi
	callq	STRINGP
	testb	$1, %al
	jne	.LBB34_5
	jmp	.LBB34_6
.LBB34_5:                               # %if.then.7
	movq	-8(%rbp), %rdi
	callq	SSDATA
	addq	-24(%rbp), %rax
	movq	-32(%rbp), %rdi
	subq	-16(%rbp), %rdi
	movq	-40(%rbp), %rcx
	subq	-24(%rbp), %rcx
	movq	-8(%rbp), %rdx
	movq	%rdi, -64(%rbp)         # 8-byte Spill
	movq	%rdx, %rdi
	movq	%rax, -72(%rbp)         # 8-byte Spill
	movq	%rcx, -80(%rbp)         # 8-byte Spill
	callq	STRING_MULTIBYTE
	movzbl	%al, %esi
	andl	$1, %esi
	movq	-72(%rbp), %rdi         # 8-byte Reload
	movq	-64(%rbp), %rcx         # 8-byte Reload
	movl	%esi, -84(%rbp)         # 4-byte Spill
	movq	%rcx, %rsi
	movq	-80(%rbp), %rdx         # 8-byte Reload
	movl	-84(%rbp), %ecx         # 4-byte Reload
	callq	make_specified_string
	xorl	%edi, %edi
	movq	%rax, -48(%rbp)
	movq	-16(%rbp), %rax
	shlq	$2, %rax
	addq	$2, %rax
	movq	-32(%rbp), %rdx
	shlq	$2, %rdx
	addq	$2, %rdx
	movq	-8(%rbp), %rsi
	movq	-48(%rbp), %r8
	movq	%r8, -96(%rbp)          # 8-byte Spill
	movq	%rax, -104(%rbp)        # 8-byte Spill
	movq	%rdx, -112(%rbp)        # 8-byte Spill
	movq	%rsi, -120(%rbp)        # 8-byte Spill
	callq	builtin_lisp_symbol
	movl	$2, %ecx
                                        # kill: RCX<def> ECX<kill>
	movq	-104(%rbp), %rdi        # 8-byte Reload
	movq	-112(%rbp), %rsi        # 8-byte Reload
	movq	-120(%rbp), %rdx        # 8-byte Reload
	movq	-96(%rbp), %r8          # 8-byte Reload
	movq	%rax, %r9
	callq	copy_text_properties
	movq	%rax, -128(%rbp)        # 8-byte Spill
	jmp	.LBB34_7
.LBB34_6:                               # %if.else
	movq	-32(%rbp), %rax
	subq	-16(%rbp), %rax
	movq	-8(%rbp), %rdi
	movq	-16(%rbp), %rsi
	movq	%rax, -136(%rbp)        # 8-byte Spill
	callq	aref_addr
	movq	-136(%rbp), %rdi        # 8-byte Reload
	movq	%rax, %rsi
	callq	Fvector
	movq	%rax, -48(%rbp)
.LBB34_7:                               # %if.end.21
	movq	-48(%rbp), %rax
	addq	$144, %rsp
	popq	%rbp
	retq
.Lfunc_end34:
	.size	substring_both, .Lfunc_end34-substring_both
	.cfi_endproc

	.globl	Fnthcdr
	.align	16, 0x90
	.type	Fnthcdr,@function
Fnthcdr:                                # @Fnthcdr
	.cfi_startproc
# BB#0:                                 # %entry
	pushq	%rbp
.Ltmp105:
	.cfi_def_cfa_offset 16
.Ltmp106:
	.cfi_offset %rbp, -16
	movq	%rsp, %rbp
.Ltmp107:
	.cfi_def_cfa_register %rbp
	subq	$80, %rsp
	movq	%rdi, -8(%rbp)
	movq	%rsi, -16(%rbp)
	movq	-8(%rbp), %rsi
	andq	$7, %rsi
	movl	%esi, %eax
	andl	$-5, %eax
	cmpl	$2, %eax
	jne	.LBB35_2
# BB#1:                                 # %cond.true
	jmp	.LBB35_3
.LBB35_2:                               # %cond.false
	movl	$559, %edi              # imm = 0x22F
	callq	builtin_lisp_symbol
	movq	-8(%rbp), %rsi
	movq	%rax, %rdi
	callq	wrong_type_argument
	movq	%rax, -40(%rbp)         # 8-byte Spill
.LBB35_3:                               # %cond.end
	movq	-8(%rbp), %rax
	sarq	$2, %rax
	movq	%rax, -32(%rbp)
	movq	$0, -24(%rbp)
.LBB35_4:                               # %for.cond
                                        # =>This Inner Loop Header: Depth=1
	xorl	%eax, %eax
	movb	%al, %cl
	movq	-24(%rbp), %rdx
	cmpq	-32(%rbp), %rdx
	movb	%cl, -41(%rbp)          # 1-byte Spill
	jge	.LBB35_6
# BB#5:                                 # %land.rhs
                                        #   in Loop: Header=BB35_4 Depth=1
	xorl	%edi, %edi
	movq	-16(%rbp), %rax
	movq	%rax, -56(%rbp)         # 8-byte Spill
	callq	builtin_lisp_symbol
	movq	-56(%rbp), %rcx         # 8-byte Reload
	cmpq	%rax, %rcx
	sete	%dl
	xorb	$-1, %dl
	movb	%dl, -41(%rbp)          # 1-byte Spill
.LBB35_6:                               # %land.end
                                        #   in Loop: Header=BB35_4 Depth=1
	movb	-41(%rbp), %al          # 1-byte Reload
	testb	$1, %al
	jne	.LBB35_7
	jmp	.LBB35_20
.LBB35_7:                               # %for.body
                                        #   in Loop: Header=BB35_4 Depth=1
	jmp	.LBB35_8
.LBB35_8:                               # %do.body
                                        #   in Loop: Header=BB35_4 Depth=1
	xorl	%edi, %edi
	movq	globals+1928, %rax
	movq	%rax, -64(%rbp)         # 8-byte Spill
	callq	builtin_lisp_symbol
	movq	-64(%rbp), %rcx         # 8-byte Reload
	cmpq	%rax, %rcx
	je	.LBB35_11
# BB#9:                                 # %land.lhs.true
                                        #   in Loop: Header=BB35_4 Depth=1
	xorl	%edi, %edi
	movq	globals+1104, %rax
	movq	%rax, -72(%rbp)         # 8-byte Spill
	callq	builtin_lisp_symbol
	movq	-72(%rbp), %rcx         # 8-byte Reload
	cmpq	%rax, %rcx
	jne	.LBB35_11
# BB#10:                                # %if.then
                                        #   in Loop: Header=BB35_4 Depth=1
	callq	process_quit_flag
	jmp	.LBB35_14
.LBB35_11:                              # %if.else
                                        #   in Loop: Header=BB35_4 Depth=1
	movb	pending_signals, %al
	testb	$1, %al
	je	.LBB35_13
# BB#12:                                # %if.then.14
                                        #   in Loop: Header=BB35_4 Depth=1
	callq	process_pending_signals
.LBB35_13:                              # %if.end
                                        #   in Loop: Header=BB35_4 Depth=1
	jmp	.LBB35_14
.LBB35_14:                              # %if.end.15
                                        #   in Loop: Header=BB35_4 Depth=1
	jmp	.LBB35_15
.LBB35_15:                              # %do.end
                                        #   in Loop: Header=BB35_4 Depth=1
	movq	-16(%rbp), %rax
	andq	$7, %rax
	movl	%eax, %ecx
	cmpl	$3, %ecx
	jne	.LBB35_17
# BB#16:                                # %cond.true.20
                                        #   in Loop: Header=BB35_4 Depth=1
	jmp	.LBB35_18
.LBB35_17:                              # %cond.false.21
	movl	$626, %edi              # imm = 0x272
	callq	builtin_lisp_symbol
	movq	-16(%rbp), %rsi
	movq	%rax, %rdi
	callq	wrong_type_argument
	movq	%rax, -80(%rbp)         # 8-byte Spill
.LBB35_18:                              # %cond.end.23
                                        #   in Loop: Header=BB35_4 Depth=1
	movq	-16(%rbp), %rax
	subq	$3, %rax
	movq	8(%rax), %rax
	movq	%rax, -16(%rbp)
# BB#19:                                # %for.inc
                                        #   in Loop: Header=BB35_4 Depth=1
	movq	-24(%rbp), %rax
	addq	$1, %rax
	movq	%rax, -24(%rbp)
	jmp	.LBB35_4
.LBB35_20:                              # %for.end
	movq	-16(%rbp), %rax
	addq	$80, %rsp
	popq	%rbp
	retq
.Lfunc_end35:
	.size	Fnthcdr, .Lfunc_end35-Fnthcdr
	.cfi_endproc

	.globl	Fnth
	.align	16, 0x90
	.type	Fnth,@function
Fnth:                                   # @Fnth
	.cfi_startproc
# BB#0:                                 # %entry
	pushq	%rbp
.Ltmp108:
	.cfi_def_cfa_offset 16
.Ltmp109:
	.cfi_offset %rbp, -16
	movq	%rsp, %rbp
.Ltmp110:
	.cfi_def_cfa_register %rbp
	subq	$16, %rsp
	movq	%rdi, -8(%rbp)
	movq	%rsi, -16(%rbp)
	movq	-8(%rbp), %rdi
	movq	-16(%rbp), %rsi
	callq	Fnthcdr
	movq	%rax, %rdi
	callq	Fcar
	addq	$16, %rsp
	popq	%rbp
	retq
.Lfunc_end36:
	.size	Fnth, .Lfunc_end36-Fnth
	.cfi_endproc

	.globl	Felt
	.align	16, 0x90
	.type	Felt,@function
Felt:                                   # @Felt
	.cfi_startproc
# BB#0:                                 # %entry
	pushq	%rbp
.Ltmp111:
	.cfi_def_cfa_offset 16
.Ltmp112:
	.cfi_offset %rbp, -16
	movq	%rsp, %rbp
.Ltmp113:
	.cfi_def_cfa_register %rbp
	subq	$48, %rsp
	movq	%rdi, -16(%rbp)
	movq	%rsi, -24(%rbp)
	movq	-24(%rbp), %rsi
	andq	$7, %rsi
	movl	%esi, %eax
	andl	$-5, %eax
	cmpl	$2, %eax
	jne	.LBB37_2
# BB#1:                                 # %cond.true
	jmp	.LBB37_3
.LBB37_2:                               # %cond.false
	movl	$559, %edi              # imm = 0x22F
	callq	builtin_lisp_symbol
	movq	-24(%rbp), %rsi
	movq	%rax, %rdi
	callq	wrong_type_argument
	movq	%rax, -32(%rbp)         # 8-byte Spill
.LBB37_3:                               # %cond.end
	movq	-16(%rbp), %rax
	andq	$7, %rax
	movl	%eax, %ecx
	cmpl	$3, %ecx
	je	.LBB37_5
# BB#4:                                 # %lor.lhs.false
	xorl	%edi, %edi
	movq	-16(%rbp), %rax
	movq	%rax, -40(%rbp)         # 8-byte Spill
	callq	builtin_lisp_symbol
	movq	-40(%rbp), %rcx         # 8-byte Reload
	cmpq	%rax, %rcx
	jne	.LBB37_6
.LBB37_5:                               # %if.then
	movq	-24(%rbp), %rdi
	movq	-16(%rbp), %rsi
	callq	Fnthcdr
	movq	%rax, %rdi
	callq	Fcar
	movq	%rax, -8(%rbp)
	jmp	.LBB37_7
.LBB37_6:                               # %if.end
	movl	$844, %edi              # imm = 0x34C
	movq	-16(%rbp), %rax
	movq	%rax, -48(%rbp)         # 8-byte Spill
	callq	builtin_lisp_symbol
	movq	-48(%rbp), %rdi         # 8-byte Reload
	movq	%rax, %rsi
	callq	CHECK_ARRAY
	movq	-16(%rbp), %rdi
	movq	-24(%rbp), %rsi
	callq	Faref
	movq	%rax, -8(%rbp)
.LBB37_7:                               # %return
	movq	-8(%rbp), %rax
	addq	$48, %rsp
	popq	%rbp
	retq
.Lfunc_end37:
	.size	Felt, .Lfunc_end37-Felt
	.cfi_endproc

	.globl	Fmember
	.align	16, 0x90
	.type	Fmember,@function
Fmember:                                # @Fmember
	.cfi_startproc
# BB#0:                                 # %entry
	pushq	%rbp
.Ltmp114:
	.cfi_def_cfa_offset 16
.Ltmp115:
	.cfi_offset %rbp, -16
	movq	%rsp, %rbp
.Ltmp116:
	.cfi_def_cfa_register %rbp
	subq	$80, %rsp
	movq	%rdi, -16(%rbp)
	movq	%rsi, -24(%rbp)
	movq	-24(%rbp), %rsi
	movq	%rsi, -32(%rbp)
.LBB38_1:                               # %for.cond
                                        # =>This Inner Loop Header: Depth=1
	movq	-32(%rbp), %rax
	andq	$7, %rax
	movl	%eax, %ecx
	cmpl	$3, %ecx
	jne	.LBB38_17
# BB#2:                                 # %for.body
                                        #   in Loop: Header=BB38_1 Depth=1
	movq	-32(%rbp), %rax
	andq	$7, %rax
	movl	%eax, %ecx
	cmpl	$3, %ecx
	jne	.LBB38_4
# BB#3:                                 # %cond.true
                                        #   in Loop: Header=BB38_1 Depth=1
	jmp	.LBB38_5
.LBB38_4:                               # %cond.false
	movl	$626, %edi              # imm = 0x272
	callq	builtin_lisp_symbol
	movq	-24(%rbp), %rsi
	movq	%rax, %rdi
	callq	wrong_type_argument
	movq	%rax, -48(%rbp)         # 8-byte Spill
.LBB38_5:                               # %cond.end
                                        #   in Loop: Header=BB38_1 Depth=1
	movq	-32(%rbp), %rax
	subq	$3, %rax
	movq	(%rax), %rax
	movq	%rax, -40(%rbp)
	movq	-16(%rbp), %rdi
	movq	-40(%rbp), %rsi
	callq	Fequal
	xorl	%edi, %edi
	movq	%rax, -56(%rbp)         # 8-byte Spill
	callq	builtin_lisp_symbol
	movq	-56(%rbp), %rsi         # 8-byte Reload
	cmpq	%rax, %rsi
	je	.LBB38_7
# BB#6:                                 # %if.then
	movq	-32(%rbp), %rax
	movq	%rax, -8(%rbp)
	jmp	.LBB38_18
.LBB38_7:                               # %if.end
                                        #   in Loop: Header=BB38_1 Depth=1
	jmp	.LBB38_8
.LBB38_8:                               # %do.body
                                        #   in Loop: Header=BB38_1 Depth=1
	xorl	%edi, %edi
	movq	globals+1928, %rax
	movq	%rax, -64(%rbp)         # 8-byte Spill
	callq	builtin_lisp_symbol
	movq	-64(%rbp), %rcx         # 8-byte Reload
	cmpq	%rax, %rcx
	je	.LBB38_11
# BB#9:                                 # %land.lhs.true
                                        #   in Loop: Header=BB38_1 Depth=1
	xorl	%edi, %edi
	movq	globals+1104, %rax
	movq	%rax, -72(%rbp)         # 8-byte Spill
	callq	builtin_lisp_symbol
	movq	-72(%rbp), %rcx         # 8-byte Reload
	cmpq	%rax, %rcx
	jne	.LBB38_11
# BB#10:                                # %if.then.16
                                        #   in Loop: Header=BB38_1 Depth=1
	callq	process_quit_flag
	jmp	.LBB38_14
.LBB38_11:                              # %if.else
                                        #   in Loop: Header=BB38_1 Depth=1
	movb	pending_signals, %al
	testb	$1, %al
	je	.LBB38_13
# BB#12:                                # %if.then.17
                                        #   in Loop: Header=BB38_1 Depth=1
	callq	process_pending_signals
.LBB38_13:                              # %if.end.18
                                        #   in Loop: Header=BB38_1 Depth=1
	jmp	.LBB38_14
.LBB38_14:                              # %if.end.19
                                        #   in Loop: Header=BB38_1 Depth=1
	jmp	.LBB38_15
.LBB38_15:                              # %do.end
                                        #   in Loop: Header=BB38_1 Depth=1
	jmp	.LBB38_16
.LBB38_16:                              # %for.inc
                                        #   in Loop: Header=BB38_1 Depth=1
	movq	-32(%rbp), %rax
	subq	$3, %rax
	movq	8(%rax), %rax
	movq	%rax, -32(%rbp)
	jmp	.LBB38_1
.LBB38_17:                              # %for.end
	xorl	%edi, %edi
	callq	builtin_lisp_symbol
	movq	%rax, -8(%rbp)
.LBB38_18:                              # %return
	movq	-8(%rbp), %rax
	addq	$80, %rsp
	popq	%rbp
	retq
.Lfunc_end38:
	.size	Fmember, .Lfunc_end38-Fmember
	.cfi_endproc

	.globl	Fequal
	.align	16, 0x90
	.type	Fequal,@function
Fequal:                                 # @Fequal
	.cfi_startproc
# BB#0:                                 # %entry
	pushq	%rbp
.Ltmp117:
	.cfi_def_cfa_offset 16
.Ltmp118:
	.cfi_offset %rbp, -16
	movq	%rsp, %rbp
.Ltmp119:
	.cfi_def_cfa_register %rbp
	subq	$48, %rsp
	xorl	%eax, %eax
	movq	%rdi, -8(%rbp)
	movq	%rsi, -16(%rbp)
	movq	-8(%rbp), %rdi
	movq	-16(%rbp), %rsi
	movq	%rdi, -24(%rbp)         # 8-byte Spill
	movl	%eax, %edi
	movq	%rsi, -32(%rbp)         # 8-byte Spill
	callq	builtin_lisp_symbol
	xorl	%edi, %edi
	movq	-24(%rbp), %rsi         # 8-byte Reload
	movl	%edi, -36(%rbp)         # 4-byte Spill
	movq	%rsi, %rdi
	movq	-32(%rbp), %rsi         # 8-byte Reload
	movl	-36(%rbp), %edx         # 4-byte Reload
	movl	-36(%rbp), %ecx         # 4-byte Reload
	movq	%rax, %r8
	callq	internal_equal
	testb	$1, %al
	jne	.LBB39_1
	jmp	.LBB39_2
.LBB39_1:                               # %cond.true
	movl	$901, %edi              # imm = 0x385
	callq	builtin_lisp_symbol
	movq	%rax, -48(%rbp)         # 8-byte Spill
	jmp	.LBB39_3
.LBB39_2:                               # %cond.false
	xorl	%edi, %edi
	callq	builtin_lisp_symbol
	movq	%rax, -48(%rbp)         # 8-byte Spill
.LBB39_3:                               # %cond.end
	movq	-48(%rbp), %rax         # 8-byte Reload
	addq	$48, %rsp
	popq	%rbp
	retq
.Lfunc_end39:
	.size	Fequal, .Lfunc_end39-Fequal
	.cfi_endproc

	.globl	Fmemq
	.align	16, 0x90
	.type	Fmemq,@function
Fmemq:                                  # @Fmemq
	.cfi_startproc
# BB#0:                                 # %entry
	pushq	%rbp
.Ltmp120:
	.cfi_def_cfa_offset 16
.Ltmp121:
	.cfi_offset %rbp, -16
	movq	%rsp, %rbp
.Ltmp122:
	.cfi_def_cfa_register %rbp
	subq	$32, %rsp
	movq	%rdi, -8(%rbp)
	movq	%rsi, -16(%rbp)
.LBB40_1:                               # %while.body
                                        # =>This Inner Loop Header: Depth=1
	movq	-16(%rbp), %rax
	andq	$7, %rax
	movl	%eax, %ecx
	cmpl	$3, %ecx
	jne	.LBB40_3
# BB#2:                                 # %lor.lhs.false
                                        #   in Loop: Header=BB40_1 Depth=1
	movq	-16(%rbp), %rax
	subq	$3, %rax
	movq	(%rax), %rax
	cmpq	-8(%rbp), %rax
	jne	.LBB40_4
.LBB40_3:                               # %if.then
	jmp	.LBB40_19
.LBB40_4:                               # %if.end
                                        #   in Loop: Header=BB40_1 Depth=1
	movq	-16(%rbp), %rax
	subq	$3, %rax
	movq	8(%rax), %rax
	movq	%rax, -16(%rbp)
	movq	-16(%rbp), %rax
	andq	$7, %rax
	movl	%eax, %ecx
	cmpl	$3, %ecx
	jne	.LBB40_6
# BB#5:                                 # %lor.lhs.false.9
                                        #   in Loop: Header=BB40_1 Depth=1
	movq	-16(%rbp), %rax
	subq	$3, %rax
	movq	(%rax), %rax
	cmpq	-8(%rbp), %rax
	jne	.LBB40_7
.LBB40_6:                               # %if.then.14
	jmp	.LBB40_19
.LBB40_7:                               # %if.end.15
                                        #   in Loop: Header=BB40_1 Depth=1
	movq	-16(%rbp), %rax
	subq	$3, %rax
	movq	8(%rax), %rax
	movq	%rax, -16(%rbp)
	movq	-16(%rbp), %rax
	andq	$7, %rax
	movl	%eax, %ecx
	cmpl	$3, %ecx
	jne	.LBB40_9
# BB#8:                                 # %lor.lhs.false.23
                                        #   in Loop: Header=BB40_1 Depth=1
	movq	-16(%rbp), %rax
	subq	$3, %rax
	movq	(%rax), %rax
	cmpq	-8(%rbp), %rax
	jne	.LBB40_10
.LBB40_9:                               # %if.then.28
	jmp	.LBB40_19
.LBB40_10:                              # %if.end.29
                                        #   in Loop: Header=BB40_1 Depth=1
	movq	-16(%rbp), %rax
	subq	$3, %rax
	movq	8(%rax), %rax
	movq	%rax, -16(%rbp)
# BB#11:                                # %do.body
                                        #   in Loop: Header=BB40_1 Depth=1
	xorl	%edi, %edi
	movq	globals+1928, %rax
	movq	%rax, -24(%rbp)         # 8-byte Spill
	callq	builtin_lisp_symbol
	movq	-24(%rbp), %rcx         # 8-byte Reload
	cmpq	%rax, %rcx
	je	.LBB40_14
# BB#12:                                # %land.lhs.true
                                        #   in Loop: Header=BB40_1 Depth=1
	xorl	%edi, %edi
	movq	globals+1104, %rax
	movq	%rax, -32(%rbp)         # 8-byte Spill
	callq	builtin_lisp_symbol
	movq	-32(%rbp), %rcx         # 8-byte Reload
	cmpq	%rax, %rcx
	jne	.LBB40_14
# BB#13:                                # %if.then.38
                                        #   in Loop: Header=BB40_1 Depth=1
	callq	process_quit_flag
	jmp	.LBB40_17
.LBB40_14:                              # %if.else
                                        #   in Loop: Header=BB40_1 Depth=1
	movb	pending_signals, %al
	testb	$1, %al
	je	.LBB40_16
# BB#15:                                # %if.then.39
                                        #   in Loop: Header=BB40_1 Depth=1
	callq	process_pending_signals
.LBB40_16:                              # %if.end.40
                                        #   in Loop: Header=BB40_1 Depth=1
	jmp	.LBB40_17
.LBB40_17:                              # %if.end.41
                                        #   in Loop: Header=BB40_1 Depth=1
	jmp	.LBB40_18
.LBB40_18:                              # %do.end
                                        #   in Loop: Header=BB40_1 Depth=1
	jmp	.LBB40_1
.LBB40_19:                              # %while.end
	movq	-16(%rbp), %rdi
	callq	CHECK_LIST
	movq	-16(%rbp), %rax
	addq	$32, %rsp
	popq	%rbp
	retq
.Lfunc_end40:
	.size	Fmemq, .Lfunc_end40-Fmemq
	.cfi_endproc

	.globl	Fmemql
	.align	16, 0x90
	.type	Fmemql,@function
Fmemql:                                 # @Fmemql
	.cfi_startproc
# BB#0:                                 # %entry
	pushq	%rbp
.Ltmp123:
	.cfi_def_cfa_offset 16
.Ltmp124:
	.cfi_offset %rbp, -16
	movq	%rsp, %rbp
.Ltmp125:
	.cfi_def_cfa_register %rbp
	subq	$96, %rsp
	movq	%rdi, -16(%rbp)
	movq	%rsi, -24(%rbp)
	movq	-16(%rbp), %rsi
	andq	$7, %rsi
	movl	%esi, %eax
	cmpl	$7, %eax
	je	.LBB41_2
# BB#1:                                 # %if.then
	movq	-16(%rbp), %rdi
	movq	-24(%rbp), %rsi
	callq	Fmemq
	movq	%rax, -8(%rbp)
	jmp	.LBB41_21
.LBB41_2:                               # %if.end
	movq	-24(%rbp), %rax
	movq	%rax, -32(%rbp)
.LBB41_3:                               # %for.cond
                                        # =>This Inner Loop Header: Depth=1
	movq	-32(%rbp), %rax
	andq	$7, %rax
	movl	%eax, %ecx
	cmpl	$3, %ecx
	jne	.LBB41_20
# BB#4:                                 # %for.body
                                        #   in Loop: Header=BB41_3 Depth=1
	movq	-32(%rbp), %rax
	andq	$7, %rax
	movl	%eax, %ecx
	cmpl	$3, %ecx
	jne	.LBB41_6
# BB#5:                                 # %cond.true
                                        #   in Loop: Header=BB41_3 Depth=1
	jmp	.LBB41_7
.LBB41_6:                               # %cond.false
	movl	$626, %edi              # imm = 0x272
	callq	builtin_lisp_symbol
	movq	-24(%rbp), %rsi
	movq	%rax, %rdi
	callq	wrong_type_argument
	movq	%rax, -48(%rbp)         # 8-byte Spill
.LBB41_7:                               # %cond.end
                                        #   in Loop: Header=BB41_3 Depth=1
	movq	-32(%rbp), %rax
	subq	$3, %rax
	movq	(%rax), %rax
	movq	%rax, -40(%rbp)
	movq	-40(%rbp), %rax
	andq	$7, %rax
	movl	%eax, %ecx
	cmpl	$7, %ecx
	jne	.LBB41_10
# BB#8:                                 # %land.lhs.true
                                        #   in Loop: Header=BB41_3 Depth=1
	xorl	%edi, %edi
	movq	-16(%rbp), %rax
	movq	-40(%rbp), %rsi
	movq	%rsi, -56(%rbp)         # 8-byte Spill
	movq	%rax, -64(%rbp)         # 8-byte Spill
	callq	builtin_lisp_symbol
	xorl	%edi, %edi
	movq	-64(%rbp), %rsi         # 8-byte Reload
	movl	%edi, -68(%rbp)         # 4-byte Spill
	movq	%rsi, %rdi
	movq	-56(%rbp), %rsi         # 8-byte Reload
	movl	-68(%rbp), %edx         # 4-byte Reload
	movl	-68(%rbp), %ecx         # 4-byte Reload
	movq	%rax, %r8
	callq	internal_equal
	testb	$1, %al
	jne	.LBB41_9
	jmp	.LBB41_10
.LBB41_9:                               # %if.then.18
	movq	-32(%rbp), %rax
	movq	%rax, -8(%rbp)
	jmp	.LBB41_21
.LBB41_10:                              # %if.end.19
                                        #   in Loop: Header=BB41_3 Depth=1
	jmp	.LBB41_11
.LBB41_11:                              # %do.body
                                        #   in Loop: Header=BB41_3 Depth=1
	xorl	%edi, %edi
	movq	globals+1928, %rax
	movq	%rax, -80(%rbp)         # 8-byte Spill
	callq	builtin_lisp_symbol
	movq	-80(%rbp), %rcx         # 8-byte Reload
	cmpq	%rax, %rcx
	je	.LBB41_14
# BB#12:                                # %land.lhs.true.23
                                        #   in Loop: Header=BB41_3 Depth=1
	xorl	%edi, %edi
	movq	globals+1104, %rax
	movq	%rax, -88(%rbp)         # 8-byte Spill
	callq	builtin_lisp_symbol
	movq	-88(%rbp), %rcx         # 8-byte Reload
	cmpq	%rax, %rcx
	jne	.LBB41_14
# BB#13:                                # %if.then.27
                                        #   in Loop: Header=BB41_3 Depth=1
	callq	process_quit_flag
	jmp	.LBB41_17
.LBB41_14:                              # %if.else
                                        #   in Loop: Header=BB41_3 Depth=1
	movb	pending_signals, %al
	testb	$1, %al
	je	.LBB41_16
# BB#15:                                # %if.then.28
                                        #   in Loop: Header=BB41_3 Depth=1
	callq	process_pending_signals
.LBB41_16:                              # %if.end.29
                                        #   in Loop: Header=BB41_3 Depth=1
	jmp	.LBB41_17
.LBB41_17:                              # %if.end.30
                                        #   in Loop: Header=BB41_3 Depth=1
	jmp	.LBB41_18
.LBB41_18:                              # %do.end
                                        #   in Loop: Header=BB41_3 Depth=1
	jmp	.LBB41_19
.LBB41_19:                              # %for.inc
                                        #   in Loop: Header=BB41_3 Depth=1
	movq	-32(%rbp), %rax
	subq	$3, %rax
	movq	8(%rax), %rax
	movq	%rax, -32(%rbp)
	jmp	.LBB41_3
.LBB41_20:                              # %for.end
	xorl	%edi, %edi
	callq	builtin_lisp_symbol
	movq	%rax, -8(%rbp)
.LBB41_21:                              # %return
	movq	-8(%rbp), %rax
	addq	$96, %rsp
	popq	%rbp
	retq
.Lfunc_end41:
	.size	Fmemql, .Lfunc_end41-Fmemql
	.cfi_endproc

	.align	16, 0x90
	.type	internal_equal,@function
internal_equal:                         # @internal_equal
	.cfi_startproc
# BB#0:                                 # %entry
	pushq	%rbp
.Ltmp126:
	.cfi_def_cfa_offset 16
.Ltmp127:
	.cfi_offset %rbp, -16
	movq	%rsp, %rbp
.Ltmp128:
	.cfi_def_cfa_register %rbp
	subq	$384, %rsp              # imm = 0x180
	movb	%cl, %al
	movq	%rdi, -16(%rbp)
	movq	%rsi, -24(%rbp)
	movl	%edx, -28(%rbp)
	andb	$1, %al
	movb	%al, -29(%rbp)
	movq	%r8, -40(%rbp)
	cmpl	$10, -28(%rbp)
	jle	.LBB42_15
# BB#1:                                 # %if.then
	cmpl	$200, -28(%rbp)
	jle	.LBB42_3
# BB#2:                                 # %if.then.2
	movabsq	$.L.str.27, %rdi
	movb	$0, %al
	callq	error
.LBB42_3:                               # %if.end
	xorl	%edi, %edi
	movq	-40(%rbp), %rax
	movq	%rax, -152(%rbp)        # 8-byte Spill
	callq	builtin_lisp_symbol
	movq	-152(%rbp), %rcx        # 8-byte Reload
	cmpq	%rax, %rcx
	jne	.LBB42_5
# BB#4:                                 # %if.then.4
	movl	$129, %edi
	callq	builtin_lisp_symbol
	movl	$369, %edi              # imm = 0x171
	movq	%rax, -56(%rbp)
	callq	builtin_lisp_symbol
	movl	$2, %edi
                                        # kill: RDI<def> EDI<kill>
	leaq	-56(%rbp), %rsi
	movq	%rax, -48(%rbp)
	callq	Fmake_hash_table
	movq	%rax, -40(%rbp)
.LBB42_5:                               # %if.end.8
	movl	-16(%rbp), %eax
	andl	$7, %eax
	movl	%eax, %ecx
	subl	$1, %ecx
	movl	%eax, -156(%rbp)        # 4-byte Spill
	movl	%ecx, -160(%rbp)        # 4-byte Spill
	je	.LBB42_6
	jmp	.LBB42_86
.LBB42_86:                              # %if.end.8
	movl	-156(%rbp), %eax        # 4-byte Reload
	subl	$3, %eax
	movl	%eax, -164(%rbp)        # 4-byte Spill
	je	.LBB42_6
	jmp	.LBB42_87
.LBB42_87:                              # %if.end.8
	movl	-156(%rbp), %eax        # 4-byte Reload
	subl	$5, %eax
	movl	%eax, -168(%rbp)        # 4-byte Spill
	jne	.LBB42_13
	jmp	.LBB42_6
.LBB42_6:                               # %sw.bb
	movq	-40(%rbp), %rdi
	callq	XHASH_TABLE
	leaq	-72(%rbp), %rdx
	movq	%rax, -64(%rbp)
	movq	-64(%rbp), %rdi
	movq	-16(%rbp), %rsi
	callq	hash_lookup
	movq	%rax, -80(%rbp)
	cmpq	$0, -80(%rbp)
	jl	.LBB42_11
# BB#7:                                 # %if.then.13
	movq	-64(%rbp), %rdi
	movq	-80(%rbp), %rsi
	callq	HASH_VALUE
	movq	%rax, -88(%rbp)
	movq	-24(%rbp), %rdi
	movq	-88(%rbp), %rsi
	callq	Fmemq
	xorl	%edi, %edi
	movq	%rax, -176(%rbp)        # 8-byte Spill
	callq	builtin_lisp_symbol
	movq	-176(%rbp), %rsi        # 8-byte Reload
	cmpq	%rax, %rsi
	je	.LBB42_9
# BB#8:                                 # %if.then.19
	movb	$1, -1(%rbp)
	jmp	.LBB42_85
.LBB42_9:                               # %if.else
	movq	-64(%rbp), %rdi
	movq	-80(%rbp), %rsi
	movq	-24(%rbp), %rax
	movq	-88(%rbp), %rcx
	movq	%rdi, -184(%rbp)        # 8-byte Spill
	movq	%rax, %rdi
	movq	%rsi, -192(%rbp)        # 8-byte Spill
	movq	%rcx, %rsi
	callq	Fcons
	movq	-184(%rbp), %rdi        # 8-byte Reload
	movq	-192(%rbp), %rsi        # 8-byte Reload
	movq	%rax, %rdx
	callq	set_hash_value_slot
# BB#10:                                # %if.end.21
	jmp	.LBB42_12
.LBB42_11:                              # %if.else.22
	xorl	%edi, %edi
	movq	-64(%rbp), %rax
	movq	-16(%rbp), %rsi
	movq	-24(%rbp), %rcx
	movq	%rcx, -200(%rbp)        # 8-byte Spill
	movq	%rax, -208(%rbp)        # 8-byte Spill
	movq	%rsi, -216(%rbp)        # 8-byte Spill
	callq	builtin_lisp_symbol
	movq	-200(%rbp), %rdi        # 8-byte Reload
	movq	%rax, %rsi
	callq	Fcons
	movq	-72(%rbp), %rcx
	movq	-208(%rbp), %rdi        # 8-byte Reload
	movq	-216(%rbp), %rsi        # 8-byte Reload
	movq	%rax, %rdx
	callq	hash_put
	movq	%rax, -224(%rbp)        # 8-byte Spill
.LBB42_12:                              # %if.end.26
	jmp	.LBB42_13
.LBB42_13:                              # %sw.default
	jmp	.LBB42_14
.LBB42_14:                              # %sw.epilog
	jmp	.LBB42_15
.LBB42_15:                              # %if.end.27
	jmp	.LBB42_16
.LBB42_16:                              # %tail_recurse
                                        # =>This Inner Loop Header: Depth=1
	jmp	.LBB42_17
.LBB42_17:                              # %do.body
                                        #   in Loop: Header=BB42_16 Depth=1
	xorl	%edi, %edi
	movq	globals+1928, %rax
	movq	%rax, -232(%rbp)        # 8-byte Spill
	callq	builtin_lisp_symbol
	movq	-232(%rbp), %rcx        # 8-byte Reload
	cmpq	%rax, %rcx
	je	.LBB42_20
# BB#18:                                # %land.lhs.true
                                        #   in Loop: Header=BB42_16 Depth=1
	xorl	%edi, %edi
	movq	globals+1104, %rax
	movq	%rax, -240(%rbp)        # 8-byte Spill
	callq	builtin_lisp_symbol
	movq	-240(%rbp), %rcx        # 8-byte Reload
	cmpq	%rax, %rcx
	jne	.LBB42_20
# BB#19:                                # %if.then.34
                                        #   in Loop: Header=BB42_16 Depth=1
	callq	process_quit_flag
	jmp	.LBB42_23
.LBB42_20:                              # %if.else.35
                                        #   in Loop: Header=BB42_16 Depth=1
	movb	pending_signals, %al
	testb	$1, %al
	je	.LBB42_22
# BB#21:                                # %if.then.36
                                        #   in Loop: Header=BB42_16 Depth=1
	callq	process_pending_signals
.LBB42_22:                              # %if.end.37
                                        #   in Loop: Header=BB42_16 Depth=1
	jmp	.LBB42_23
.LBB42_23:                              # %if.end.38
                                        #   in Loop: Header=BB42_16 Depth=1
	jmp	.LBB42_24
.LBB42_24:                              # %do.end
                                        #   in Loop: Header=BB42_16 Depth=1
	movq	-16(%rbp), %rax
	cmpq	-24(%rbp), %rax
	jne	.LBB42_26
# BB#25:                                # %if.then.41
	movb	$1, -1(%rbp)
	jmp	.LBB42_85
.LBB42_26:                              # %if.end.42
                                        #   in Loop: Header=BB42_16 Depth=1
	movq	-16(%rbp), %rax
	andq	$7, %rax
	movl	%eax, %ecx
	movq	-24(%rbp), %rax
	andq	$7, %rax
	movl	%eax, %edx
	cmpl	%edx, %ecx
	je	.LBB42_28
# BB#27:                                # %if.then.49
	movb	$0, -1(%rbp)
	jmp	.LBB42_85
.LBB42_28:                              # %if.end.50
                                        #   in Loop: Header=BB42_16 Depth=1
	movl	-16(%rbp), %eax
	andl	$7, %eax
	decl	%eax
	movl	%eax, %ecx
	subl	$6, %eax
	movq	%rcx, -248(%rbp)        # 8-byte Spill
	movl	%eax, -252(%rbp)        # 4-byte Spill
	ja	.LBB42_83
# BB#88:                                # %if.end.50
                                        #   in Loop: Header=BB42_16 Depth=1
	movq	-248(%rbp), %rax        # 8-byte Reload
	movq	.LJTI42_0(,%rax,8), %rcx
	jmpq	*%rcx
.LBB42_29:                              # %sw.bb.53
	movq	-16(%rbp), %rdi
	callq	extract_float
	movsd	%xmm0, -96(%rbp)
	movq	-24(%rbp), %rdi
	callq	extract_float
	movb	$1, %al
	movsd	%xmm0, -104(%rbp)
	movsd	-96(%rbp), %xmm0        # xmm0 = mem[0],zero
	ucomisd	-104(%rbp), %xmm0
	movb	%al, -253(%rbp)         # 1-byte Spill
	jne	.LBB42_30
	jp	.LBB42_30
	jmp	.LBB42_33
.LBB42_30:                              # %lor.rhs
	xorl	%eax, %eax
	movb	%al, %cl
	movsd	-96(%rbp), %xmm0        # xmm0 = mem[0],zero
	ucomisd	-96(%rbp), %xmm0
	movb	%cl, -254(%rbp)         # 1-byte Spill
	jne	.LBB42_31
	jp	.LBB42_31
	jmp	.LBB42_32
.LBB42_31:                              # %land.rhs
	movsd	-104(%rbp), %xmm0       # xmm0 = mem[0],zero
	ucomisd	-104(%rbp), %xmm0
	setne	%al
	setp	%cl
	orb	%cl, %al
	movb	%al, -254(%rbp)         # 1-byte Spill
.LBB42_32:                              # %land.end
	movb	-254(%rbp), %al         # 1-byte Reload
	movb	%al, -253(%rbp)         # 1-byte Spill
.LBB42_33:                              # %lor.end
	movb	-253(%rbp), %al         # 1-byte Reload
	andb	$1, %al
	movb	%al, -1(%rbp)
	jmp	.LBB42_85
.LBB42_34:                              # %sw.bb.62
                                        #   in Loop: Header=BB42_16 Depth=1
	movq	-16(%rbp), %rax
	subq	$3, %rax
	movq	(%rax), %rdi
	movq	-24(%rbp), %rax
	subq	$3, %rax
	movq	(%rax), %rsi
	movl	-28(%rbp), %ecx
	addl	$1, %ecx
	movb	-29(%rbp), %dl
	movq	-40(%rbp), %r8
	andb	$1, %dl
	movb	%dl, -255(%rbp)         # 1-byte Spill
	movl	%ecx, %edx
	movb	-255(%rbp), %r9b        # 1-byte Reload
	movzbl	%r9b, %ecx
	callq	internal_equal
	testb	$1, %al
	jne	.LBB42_36
# BB#35:                                # %if.then.67
	movb	$0, -1(%rbp)
	jmp	.LBB42_85
.LBB42_36:                              # %if.end.68
                                        #   in Loop: Header=BB42_16 Depth=1
	movq	-16(%rbp), %rax
	subq	$3, %rax
	movq	8(%rax), %rax
	movq	%rax, -16(%rbp)
	movq	-24(%rbp), %rax
	subq	$3, %rax
	movq	8(%rax), %rax
	movq	%rax, -24(%rbp)
	jmp	.LBB42_16
.LBB42_37:                              # %sw.bb.73
                                        #   in Loop: Header=BB42_16 Depth=1
	movq	-16(%rbp), %rdi
	callq	XMISCTYPE
	movq	-24(%rbp), %rdi
	movl	%eax, -260(%rbp)        # 4-byte Spill
	callq	XMISCTYPE
	movl	-260(%rbp), %ecx        # 4-byte Reload
	cmpl	%eax, %ecx
	je	.LBB42_39
# BB#38:                                # %if.then.78
	movb	$0, -1(%rbp)
	jmp	.LBB42_85
.LBB42_39:                              # %if.end.79
                                        #   in Loop: Header=BB42_16 Depth=1
	movq	-16(%rbp), %rdi
	callq	OVERLAYP
	testb	$1, %al
	jne	.LBB42_40
	jmp	.LBB42_44
.LBB42_40:                              # %if.then.81
                                        #   in Loop: Header=BB42_16 Depth=1
	movq	-16(%rbp), %rdi
	callq	XOVERLAY
	movq	16(%rax), %rdi
	movq	-24(%rbp), %rax
	movq	%rdi, -272(%rbp)        # 8-byte Spill
	movq	%rax, %rdi
	callq	XOVERLAY
	movq	16(%rax), %rsi
	movl	-28(%rbp), %ecx
	addl	$1, %ecx
	movb	-29(%rbp), %dl
	movq	-40(%rbp), %r8
	andb	$1, %dl
	movq	-272(%rbp), %rdi        # 8-byte Reload
	movb	%dl, -273(%rbp)         # 1-byte Spill
	movl	%ecx, %edx
	movb	-273(%rbp), %r9b        # 1-byte Reload
	movzbl	%r9b, %ecx
	callq	internal_equal
	testb	$1, %al
	jne	.LBB42_41
	jmp	.LBB42_42
.LBB42_41:                              # %lor.lhs.false
                                        #   in Loop: Header=BB42_16 Depth=1
	movq	-16(%rbp), %rdi
	callq	XOVERLAY
	movq	24(%rax), %rdi
	movq	-24(%rbp), %rax
	movq	%rdi, -288(%rbp)        # 8-byte Spill
	movq	%rax, %rdi
	callq	XOVERLAY
	movq	24(%rax), %rsi
	movl	-28(%rbp), %ecx
	addl	$1, %ecx
	movb	-29(%rbp), %dl
	movq	-40(%rbp), %r8
	andb	$1, %dl
	movq	-288(%rbp), %rdi        # 8-byte Reload
	movb	%dl, -289(%rbp)         # 1-byte Spill
	movl	%ecx, %edx
	movb	-289(%rbp), %r9b        # 1-byte Reload
	movzbl	%r9b, %ecx
	callq	internal_equal
	testb	$1, %al
	jne	.LBB42_43
.LBB42_42:                              # %if.then.94
	movb	$0, -1(%rbp)
	jmp	.LBB42_85
.LBB42_43:                              # %if.end.95
                                        #   in Loop: Header=BB42_16 Depth=1
	movq	-16(%rbp), %rdi
	callq	XOVERLAY
	movq	32(%rax), %rax
	movq	%rax, -16(%rbp)
	movq	-24(%rbp), %rdi
	callq	XOVERLAY
	movq	32(%rax), %rax
	movq	%rax, -24(%rbp)
	jmp	.LBB42_16
.LBB42_44:                              # %if.end.99
	movq	-16(%rbp), %rax
	andq	$7, %rax
	movl	%eax, %ecx
	cmpl	$1, %ecx
	jne	.LBB42_51
# BB#45:                                # %land.lhs.true.104
	movq	-16(%rbp), %rdi
	callq	XMISCTYPE
	cmpl	$24236, %eax            # imm = 0x5EAC
	jne	.LBB42_51
# BB#46:                                # %if.then.108
	movq	-16(%rbp), %rdi
	callq	XMARKER
	movq	8(%rax), %rax
	movq	-24(%rbp), %rdi
	movq	%rax, -304(%rbp)        # 8-byte Spill
	callq	XMARKER
	xorl	%ecx, %ecx
	movb	%cl, %dl
	movq	-304(%rbp), %rdi        # 8-byte Reload
	cmpq	8(%rax), %rdi
	movb	%dl, -305(%rbp)         # 1-byte Spill
	jne	.LBB42_50
# BB#47:                                # %land.rhs.114
	movq	-16(%rbp), %rdi
	callq	XMARKER
	movb	$1, %cl
	cmpq	$0, 8(%rax)
	movb	%cl, -306(%rbp)         # 1-byte Spill
	je	.LBB42_49
# BB#48:                                # %lor.rhs.119
	movq	-16(%rbp), %rdi
	callq	XMARKER
	movq	32(%rax), %rax
	movq	-24(%rbp), %rdi
	movq	%rax, -320(%rbp)        # 8-byte Spill
	callq	XMARKER
	movq	-320(%rbp), %rdi        # 8-byte Reload
	cmpq	32(%rax), %rdi
	sete	%cl
	movb	%cl, -306(%rbp)         # 1-byte Spill
.LBB42_49:                              # %lor.end.125
	movb	-306(%rbp), %al         # 1-byte Reload
	movb	%al, -305(%rbp)         # 1-byte Spill
.LBB42_50:                              # %land.end.126
	movb	-305(%rbp), %al         # 1-byte Reload
	andb	$1, %al
	movb	%al, -1(%rbp)
	jmp	.LBB42_85
.LBB42_51:                              # %if.end.127
	jmp	.LBB42_84
.LBB42_52:                              # %sw.bb.128
	movq	-16(%rbp), %rdi
	callq	ASIZE
	movq	%rax, -120(%rbp)
	movq	-24(%rbp), %rdi
	callq	ASIZE
	cmpq	-120(%rbp), %rax
	je	.LBB42_54
# BB#53:                                # %if.then.134
	movb	$0, -1(%rbp)
	jmp	.LBB42_85
.LBB42_54:                              # %if.end.135
	movq	-16(%rbp), %rdi
	callq	BOOL_VECTOR_P
	testb	$1, %al
	jne	.LBB42_55
	jmp	.LBB42_60
.LBB42_55:                              # %if.then.137
	movq	-16(%rbp), %rdi
	callq	bool_vector_size
	movq	%rax, -128(%rbp)
	movq	-128(%rbp), %rax
	movq	-24(%rbp), %rdi
	movq	%rax, -328(%rbp)        # 8-byte Spill
	callq	bool_vector_size
	movq	-328(%rbp), %rdi        # 8-byte Reload
	cmpq	%rax, %rdi
	je	.LBB42_57
# BB#56:                                # %if.then.143
	movb	$0, -1(%rbp)
	jmp	.LBB42_85
.LBB42_57:                              # %if.end.144
	movq	-16(%rbp), %rdi
	callq	bool_vector_data
	movq	-24(%rbp), %rdi
	movq	%rax, -336(%rbp)        # 8-byte Spill
	callq	bool_vector_data
	movq	-128(%rbp), %rdi
	movq	%rax, -344(%rbp)        # 8-byte Spill
	callq	bool_vector_bytes
	movq	-336(%rbp), %rdi        # 8-byte Reload
	movq	-344(%rbp), %rsi        # 8-byte Reload
	movq	%rax, %rdx
	callq	memcmp
	cmpl	$0, %eax
	je	.LBB42_59
# BB#58:                                # %if.then.150
	movb	$0, -1(%rbp)
	jmp	.LBB42_85
.LBB42_59:                              # %if.end.151
	movb	$1, -1(%rbp)
	jmp	.LBB42_85
.LBB42_60:                              # %if.end.152
	movq	-16(%rbp), %rdi
	callq	WINDOW_CONFIGURATIONP
	testb	$1, %al
	jne	.LBB42_61
	jmp	.LBB42_62
.LBB42_61:                              # %if.then.154
	xorl	%edx, %edx
	movq	-16(%rbp), %rdi
	movq	-24(%rbp), %rsi
	callq	compare_window_configurations
	andb	$1, %al
	movb	%al, -1(%rbp)
	jmp	.LBB42_85
.LBB42_62:                              # %if.end.156
	movabsq	$4611686018427387904, %rax # imm = 0x4000000000000000
	andq	-120(%rbp), %rax
	cmpq	$0, %rax
	je	.LBB42_66
# BB#63:                                # %if.then.159
	movq	-120(%rbp), %rax
	andq	$1056964608, %rax       # imm = 0x3F000000
	sarq	$24, %rax
	cmpq	$14, %rax
	jge	.LBB42_65
# BB#64:                                # %if.then.163
	movb	$0, -1(%rbp)
	jmp	.LBB42_85
.LBB42_65:                              # %if.end.164
	movq	-120(%rbp), %rax
	andq	$4095, %rax             # imm = 0xFFF
	movq	%rax, -120(%rbp)
.LBB42_66:                              # %if.end.166
	movl	$0, -108(%rbp)
.LBB42_67:                              # %for.cond
                                        # =>This Inner Loop Header: Depth=1
	movslq	-108(%rbp), %rax
	cmpq	-120(%rbp), %rax
	jge	.LBB42_72
# BB#68:                                # %for.body
                                        #   in Loop: Header=BB42_67 Depth=1
	movq	-16(%rbp), %rdi
	movslq	-108(%rbp), %rsi
	callq	AREF
	movq	%rax, -136(%rbp)
	movq	-24(%rbp), %rdi
	movslq	-108(%rbp), %rsi
	callq	AREF
	movq	%rax, -144(%rbp)
	movq	-136(%rbp), %rdi
	movq	-144(%rbp), %rsi
	movl	-28(%rbp), %ecx
	addl	$1, %ecx
	movb	-29(%rbp), %dl
	movq	-40(%rbp), %r8
	andb	$1, %dl
	movb	%dl, -345(%rbp)         # 1-byte Spill
	movl	%ecx, %edx
	movb	-345(%rbp), %r9b        # 1-byte Reload
	movzbl	%r9b, %ecx
	callq	internal_equal
	testb	$1, %al
	jne	.LBB42_70
# BB#69:                                # %if.then.177
	movb	$0, -1(%rbp)
	jmp	.LBB42_85
.LBB42_70:                              # %if.end.178
                                        #   in Loop: Header=BB42_67 Depth=1
	jmp	.LBB42_71
.LBB42_71:                              # %for.inc
                                        #   in Loop: Header=BB42_67 Depth=1
	movl	-108(%rbp), %eax
	addl	$1, %eax
	movl	%eax, -108(%rbp)
	jmp	.LBB42_67
.LBB42_72:                              # %for.end
	movb	$1, -1(%rbp)
	jmp	.LBB42_85
.LBB42_73:                              # %sw.bb.179
	movq	-16(%rbp), %rdi
	callq	SCHARS
	movq	-24(%rbp), %rdi
	movq	%rax, -360(%rbp)        # 8-byte Spill
	callq	SCHARS
	movq	-360(%rbp), %rdi        # 8-byte Reload
	cmpq	%rax, %rdi
	je	.LBB42_75
# BB#74:                                # %if.then.184
	movb	$0, -1(%rbp)
	jmp	.LBB42_85
.LBB42_75:                              # %if.end.185
	movq	-16(%rbp), %rdi
	callq	SBYTES
	movq	-24(%rbp), %rdi
	movq	%rax, -368(%rbp)        # 8-byte Spill
	callq	SBYTES
	movq	-368(%rbp), %rdi        # 8-byte Reload
	cmpq	%rax, %rdi
	je	.LBB42_77
# BB#76:                                # %if.then.190
	movb	$0, -1(%rbp)
	jmp	.LBB42_85
.LBB42_77:                              # %if.end.191
	movq	-16(%rbp), %rdi
	callq	SDATA
	movq	-24(%rbp), %rdi
	movq	%rax, -376(%rbp)        # 8-byte Spill
	callq	SDATA
	movq	-16(%rbp), %rdi
	movq	%rax, -384(%rbp)        # 8-byte Spill
	callq	SBYTES
	movq	-376(%rbp), %rdi        # 8-byte Reload
	movq	-384(%rbp), %rsi        # 8-byte Reload
	movq	%rax, %rdx
	callq	memcmp
	cmpl	$0, %eax
	je	.LBB42_79
# BB#78:                                # %if.then.197
	movb	$0, -1(%rbp)
	jmp	.LBB42_85
.LBB42_79:                              # %if.end.198
	testb	$1, -29(%rbp)
	je	.LBB42_82
# BB#80:                                # %land.lhs.true.201
	movq	-16(%rbp), %rdi
	movq	-24(%rbp), %rsi
	callq	compare_string_intervals
	testb	$1, %al
	jne	.LBB42_82
# BB#81:                                # %if.then.203
	movb	$0, -1(%rbp)
	jmp	.LBB42_85
.LBB42_82:                              # %if.end.204
	movb	$1, -1(%rbp)
	jmp	.LBB42_85
.LBB42_83:                              # %sw.default.205
	jmp	.LBB42_84
.LBB42_84:                              # %sw.epilog.206
	movb	$0, -1(%rbp)
.LBB42_85:                              # %return
	movb	-1(%rbp), %al
	andb	$1, %al
	movzbl	%al, %eax
	addq	$384, %rsp              # imm = 0x180
	popq	%rbp
	retq
.Lfunc_end42:
	.size	internal_equal, .Lfunc_end42-internal_equal
	.cfi_endproc
	.section	.rodata,"a",@progbits
	.align	8
.LJTI42_0:
	.quad	.LBB42_37
	.quad	.LBB42_83
	.quad	.LBB42_34
	.quad	.LBB42_73
	.quad	.LBB42_52
	.quad	.LBB42_83
	.quad	.LBB42_29

	.text
	.globl	Fassq
	.align	16, 0x90
	.type	Fassq,@function
Fassq:                                  # @Fassq
	.cfi_startproc
# BB#0:                                 # %entry
	pushq	%rbp
.Ltmp129:
	.cfi_def_cfa_offset 16
.Ltmp130:
	.cfi_offset %rbp, -16
	movq	%rsp, %rbp
.Ltmp131:
	.cfi_def_cfa_register %rbp
	subq	$32, %rsp
	movq	%rdi, -8(%rbp)
	movq	%rsi, -16(%rbp)
.LBB43_1:                               # %while.body
                                        # =>This Inner Loop Header: Depth=1
	movq	-16(%rbp), %rax
	andq	$7, %rax
	movl	%eax, %ecx
	cmpl	$3, %ecx
	jne	.LBB43_4
# BB#2:                                 # %lor.lhs.false
                                        #   in Loop: Header=BB43_1 Depth=1
	movq	-16(%rbp), %rax
	subq	$3, %rax
	movq	(%rax), %rax
	andq	$7, %rax
	movl	%eax, %ecx
	cmpl	$3, %ecx
	jne	.LBB43_5
# BB#3:                                 # %land.lhs.true
                                        #   in Loop: Header=BB43_1 Depth=1
	movq	-16(%rbp), %rax
	subq	$3, %rax
	movq	(%rax), %rax
	subq	$3, %rax
	movq	(%rax), %rax
	cmpq	-8(%rbp), %rax
	jne	.LBB43_5
.LBB43_4:                               # %if.then
	jmp	.LBB43_22
.LBB43_5:                               # %if.end
                                        #   in Loop: Header=BB43_1 Depth=1
	movq	-16(%rbp), %rax
	subq	$3, %rax
	movq	8(%rax), %rax
	movq	%rax, -16(%rbp)
	movq	-16(%rbp), %rax
	andq	$7, %rax
	movl	%eax, %ecx
	cmpl	$3, %ecx
	jne	.LBB43_8
# BB#6:                                 # %lor.lhs.false.17
                                        #   in Loop: Header=BB43_1 Depth=1
	movq	-16(%rbp), %rax
	subq	$3, %rax
	movq	(%rax), %rax
	andq	$7, %rax
	movl	%eax, %ecx
	cmpl	$3, %ecx
	jne	.LBB43_9
# BB#7:                                 # %land.lhs.true.24
                                        #   in Loop: Header=BB43_1 Depth=1
	movq	-16(%rbp), %rax
	subq	$3, %rax
	movq	(%rax), %rax
	subq	$3, %rax
	movq	(%rax), %rax
	cmpq	-8(%rbp), %rax
	jne	.LBB43_9
.LBB43_8:                               # %if.then.31
	jmp	.LBB43_22
.LBB43_9:                               # %if.end.32
                                        #   in Loop: Header=BB43_1 Depth=1
	movq	-16(%rbp), %rax
	subq	$3, %rax
	movq	8(%rax), %rax
	movq	%rax, -16(%rbp)
	movq	-16(%rbp), %rax
	andq	$7, %rax
	movl	%eax, %ecx
	cmpl	$3, %ecx
	jne	.LBB43_12
# BB#10:                                # %lor.lhs.false.40
                                        #   in Loop: Header=BB43_1 Depth=1
	movq	-16(%rbp), %rax
	subq	$3, %rax
	movq	(%rax), %rax
	andq	$7, %rax
	movl	%eax, %ecx
	cmpl	$3, %ecx
	jne	.LBB43_13
# BB#11:                                # %land.lhs.true.47
                                        #   in Loop: Header=BB43_1 Depth=1
	movq	-16(%rbp), %rax
	subq	$3, %rax
	movq	(%rax), %rax
	subq	$3, %rax
	movq	(%rax), %rax
	cmpq	-8(%rbp), %rax
	jne	.LBB43_13
.LBB43_12:                              # %if.then.54
	jmp	.LBB43_22
.LBB43_13:                              # %if.end.55
                                        #   in Loop: Header=BB43_1 Depth=1
	movq	-16(%rbp), %rax
	subq	$3, %rax
	movq	8(%rax), %rax
	movq	%rax, -16(%rbp)
# BB#14:                                # %do.body
                                        #   in Loop: Header=BB43_1 Depth=1
	xorl	%edi, %edi
	movq	globals+1928, %rax
	movq	%rax, -24(%rbp)         # 8-byte Spill
	callq	builtin_lisp_symbol
	movq	-24(%rbp), %rcx         # 8-byte Reload
	cmpq	%rax, %rcx
	je	.LBB43_17
# BB#15:                                # %land.lhs.true.61
                                        #   in Loop: Header=BB43_1 Depth=1
	xorl	%edi, %edi
	movq	globals+1104, %rax
	movq	%rax, -32(%rbp)         # 8-byte Spill
	callq	builtin_lisp_symbol
	movq	-32(%rbp), %rcx         # 8-byte Reload
	cmpq	%rax, %rcx
	jne	.LBB43_17
# BB#16:                                # %if.then.65
                                        #   in Loop: Header=BB43_1 Depth=1
	callq	process_quit_flag
	jmp	.LBB43_20
.LBB43_17:                              # %if.else
                                        #   in Loop: Header=BB43_1 Depth=1
	movb	pending_signals, %al
	testb	$1, %al
	je	.LBB43_19
# BB#18:                                # %if.then.66
                                        #   in Loop: Header=BB43_1 Depth=1
	callq	process_pending_signals
.LBB43_19:                              # %if.end.67
                                        #   in Loop: Header=BB43_1 Depth=1
	jmp	.LBB43_20
.LBB43_20:                              # %if.end.68
                                        #   in Loop: Header=BB43_1 Depth=1
	jmp	.LBB43_21
.LBB43_21:                              # %do.end
                                        #   in Loop: Header=BB43_1 Depth=1
	jmp	.LBB43_1
.LBB43_22:                              # %while.end
	movq	-16(%rbp), %rdi
	callq	CAR
	addq	$32, %rsp
	popq	%rbp
	retq
.Lfunc_end43:
	.size	Fassq, .Lfunc_end43-Fassq
	.cfi_endproc

	.globl	assq_no_quit
	.align	16, 0x90
	.type	assq_no_quit,@function
assq_no_quit:                           # @assq_no_quit
	.cfi_startproc
# BB#0:                                 # %entry
	pushq	%rbp
.Ltmp132:
	.cfi_def_cfa_offset 16
.Ltmp133:
	.cfi_offset %rbp, -16
	movq	%rsp, %rbp
.Ltmp134:
	.cfi_def_cfa_register %rbp
	subq	$32, %rsp
	movq	%rdi, -8(%rbp)
	movq	%rsi, -16(%rbp)
.LBB44_1:                               # %while.cond
                                        # =>This Inner Loop Header: Depth=1
	xorl	%eax, %eax
	movb	%al, %cl
	movq	-16(%rbp), %rdx
	andq	$7, %rdx
	movl	%edx, %eax
	cmpl	$3, %eax
	movb	%cl, -17(%rbp)          # 1-byte Spill
	jne	.LBB44_5
# BB#2:                                 # %land.rhs
                                        #   in Loop: Header=BB44_1 Depth=1
	movb	$1, %al
	movq	-16(%rbp), %rcx
	subq	$3, %rcx
	movq	(%rcx), %rcx
	andq	$7, %rcx
	movl	%ecx, %edx
	cmpl	$3, %edx
	movb	%al, -18(%rbp)          # 1-byte Spill
	jne	.LBB44_4
# BB#3:                                 # %lor.rhs
                                        #   in Loop: Header=BB44_1 Depth=1
	movq	-16(%rbp), %rax
	subq	$3, %rax
	movq	(%rax), %rax
	subq	$3, %rax
	movq	(%rax), %rax
	cmpq	-8(%rbp), %rax
	sete	%cl
	xorb	$-1, %cl
	movb	%cl, -18(%rbp)          # 1-byte Spill
.LBB44_4:                               # %lor.end
                                        #   in Loop: Header=BB44_1 Depth=1
	movb	-18(%rbp), %al          # 1-byte Reload
	movb	%al, -17(%rbp)          # 1-byte Spill
.LBB44_5:                               # %land.end
                                        #   in Loop: Header=BB44_1 Depth=1
	movb	-17(%rbp), %al          # 1-byte Reload
	testb	$1, %al
	jne	.LBB44_6
	jmp	.LBB44_7
.LBB44_6:                               # %while.body
                                        #   in Loop: Header=BB44_1 Depth=1
	movq	-16(%rbp), %rax
	subq	$3, %rax
	movq	8(%rax), %rax
	movq	%rax, -16(%rbp)
	jmp	.LBB44_1
.LBB44_7:                               # %while.end
	movq	-16(%rbp), %rdi
	callq	CAR_SAFE
	addq	$32, %rsp
	popq	%rbp
	retq
.Lfunc_end44:
	.size	assq_no_quit, .Lfunc_end44-assq_no_quit
	.cfi_endproc

	.globl	Fassoc
	.align	16, 0x90
	.type	Fassoc,@function
Fassoc:                                 # @Fassoc
	.cfi_startproc
# BB#0:                                 # %entry
	pushq	%rbp
.Ltmp135:
	.cfi_def_cfa_offset 16
.Ltmp136:
	.cfi_offset %rbp, -16
	movq	%rsp, %rbp
.Ltmp137:
	.cfi_def_cfa_register %rbp
	subq	$96, %rsp
	movq	%rdi, -8(%rbp)
	movq	%rsi, -16(%rbp)
.LBB45_1:                               # %while.body
                                        # =>This Inner Loop Header: Depth=1
	movq	-16(%rbp), %rax
	andq	$7, %rax
	movl	%eax, %ecx
	cmpl	$3, %ecx
	jne	.LBB45_6
# BB#2:                                 # %lor.lhs.false
                                        #   in Loop: Header=BB45_1 Depth=1
	movq	-16(%rbp), %rax
	subq	$3, %rax
	movq	(%rax), %rax
	andq	$7, %rax
	movl	%eax, %ecx
	cmpl	$3, %ecx
	jne	.LBB45_7
# BB#3:                                 # %land.lhs.true
                                        #   in Loop: Header=BB45_1 Depth=1
	movb	$1, %al
	movq	-16(%rbp), %rcx
	subq	$3, %rcx
	movq	(%rcx), %rcx
	subq	$3, %rcx
	movq	(%rcx), %rcx
	movq	%rcx, -24(%rbp)
	movq	-24(%rbp), %rcx
	cmpq	-8(%rbp), %rcx
	movb	%al, -25(%rbp)          # 1-byte Spill
	je	.LBB45_5
# BB#4:                                 # %lor.rhs
                                        #   in Loop: Header=BB45_1 Depth=1
	movq	-24(%rbp), %rdi
	movq	-8(%rbp), %rsi
	callq	Fequal
	xorl	%edi, %edi
	movq	%rax, -40(%rbp)         # 8-byte Spill
	callq	builtin_lisp_symbol
	movq	-40(%rbp), %rsi         # 8-byte Reload
	cmpq	%rax, %rsi
	sete	%cl
	xorb	$-1, %cl
	movb	%cl, -25(%rbp)          # 1-byte Spill
.LBB45_5:                               # %lor.end
                                        #   in Loop: Header=BB45_1 Depth=1
	movb	-25(%rbp), %al          # 1-byte Reload
	testb	$1, %al
	jne	.LBB45_6
	jmp	.LBB45_7
.LBB45_6:                               # %if.then
	jmp	.LBB45_28
.LBB45_7:                               # %if.end
                                        #   in Loop: Header=BB45_1 Depth=1
	movq	-16(%rbp), %rax
	subq	$3, %rax
	movq	8(%rax), %rax
	movq	%rax, -16(%rbp)
	movq	-16(%rbp), %rax
	andq	$7, %rax
	movl	%eax, %ecx
	cmpl	$3, %ecx
	jne	.LBB45_12
# BB#8:                                 # %lor.lhs.false.21
                                        #   in Loop: Header=BB45_1 Depth=1
	movq	-16(%rbp), %rax
	subq	$3, %rax
	movq	(%rax), %rax
	andq	$7, %rax
	movl	%eax, %ecx
	cmpl	$3, %ecx
	jne	.LBB45_13
# BB#9:                                 # %land.lhs.true.28
                                        #   in Loop: Header=BB45_1 Depth=1
	movb	$1, %al
	movq	-16(%rbp), %rcx
	subq	$3, %rcx
	movq	(%rcx), %rcx
	subq	$3, %rcx
	movq	(%rcx), %rcx
	movq	%rcx, -24(%rbp)
	movq	-24(%rbp), %rcx
	cmpq	-8(%rbp), %rcx
	movb	%al, -41(%rbp)          # 1-byte Spill
	je	.LBB45_11
# BB#10:                                # %lor.rhs.35
                                        #   in Loop: Header=BB45_1 Depth=1
	movq	-24(%rbp), %rdi
	movq	-8(%rbp), %rsi
	callq	Fequal
	xorl	%edi, %edi
	movq	%rax, -56(%rbp)         # 8-byte Spill
	callq	builtin_lisp_symbol
	movq	-56(%rbp), %rsi         # 8-byte Reload
	cmpq	%rax, %rsi
	sete	%cl
	xorb	$-1, %cl
	movb	%cl, -41(%rbp)          # 1-byte Spill
.LBB45_11:                              # %lor.end.41
                                        #   in Loop: Header=BB45_1 Depth=1
	movb	-41(%rbp), %al          # 1-byte Reload
	testb	$1, %al
	jne	.LBB45_12
	jmp	.LBB45_13
.LBB45_12:                              # %if.then.42
	jmp	.LBB45_28
.LBB45_13:                              # %if.end.43
                                        #   in Loop: Header=BB45_1 Depth=1
	movq	-16(%rbp), %rax
	subq	$3, %rax
	movq	8(%rax), %rax
	movq	%rax, -16(%rbp)
	movq	-16(%rbp), %rax
	andq	$7, %rax
	movl	%eax, %ecx
	cmpl	$3, %ecx
	jne	.LBB45_18
# BB#14:                                # %lor.lhs.false.51
                                        #   in Loop: Header=BB45_1 Depth=1
	movq	-16(%rbp), %rax
	subq	$3, %rax
	movq	(%rax), %rax
	andq	$7, %rax
	movl	%eax, %ecx
	cmpl	$3, %ecx
	jne	.LBB45_19
# BB#15:                                # %land.lhs.true.58
                                        #   in Loop: Header=BB45_1 Depth=1
	movb	$1, %al
	movq	-16(%rbp), %rcx
	subq	$3, %rcx
	movq	(%rcx), %rcx
	subq	$3, %rcx
	movq	(%rcx), %rcx
	movq	%rcx, -24(%rbp)
	movq	-24(%rbp), %rcx
	cmpq	-8(%rbp), %rcx
	movb	%al, -57(%rbp)          # 1-byte Spill
	je	.LBB45_17
# BB#16:                                # %lor.rhs.65
                                        #   in Loop: Header=BB45_1 Depth=1
	movq	-24(%rbp), %rdi
	movq	-8(%rbp), %rsi
	callq	Fequal
	xorl	%edi, %edi
	movq	%rax, -72(%rbp)         # 8-byte Spill
	callq	builtin_lisp_symbol
	movq	-72(%rbp), %rsi         # 8-byte Reload
	cmpq	%rax, %rsi
	sete	%cl
	xorb	$-1, %cl
	movb	%cl, -57(%rbp)          # 1-byte Spill
.LBB45_17:                              # %lor.end.71
                                        #   in Loop: Header=BB45_1 Depth=1
	movb	-57(%rbp), %al          # 1-byte Reload
	testb	$1, %al
	jne	.LBB45_18
	jmp	.LBB45_19
.LBB45_18:                              # %if.then.72
	jmp	.LBB45_28
.LBB45_19:                              # %if.end.73
                                        #   in Loop: Header=BB45_1 Depth=1
	movq	-16(%rbp), %rax
	subq	$3, %rax
	movq	8(%rax), %rax
	movq	%rax, -16(%rbp)
# BB#20:                                # %do.body
                                        #   in Loop: Header=BB45_1 Depth=1
	xorl	%edi, %edi
	movq	globals+1928, %rax
	movq	%rax, -80(%rbp)         # 8-byte Spill
	callq	builtin_lisp_symbol
	movq	-80(%rbp), %rcx         # 8-byte Reload
	cmpq	%rax, %rcx
	je	.LBB45_23
# BB#21:                                # %land.lhs.true.80
                                        #   in Loop: Header=BB45_1 Depth=1
	xorl	%edi, %edi
	movq	globals+1104, %rax
	movq	%rax, -88(%rbp)         # 8-byte Spill
	callq	builtin_lisp_symbol
	movq	-88(%rbp), %rcx         # 8-byte Reload
	cmpq	%rax, %rcx
	jne	.LBB45_23
# BB#22:                                # %if.then.84
                                        #   in Loop: Header=BB45_1 Depth=1
	callq	process_quit_flag
	jmp	.LBB45_26
.LBB45_23:                              # %if.else
                                        #   in Loop: Header=BB45_1 Depth=1
	movb	pending_signals, %al
	testb	$1, %al
	je	.LBB45_25
# BB#24:                                # %if.then.85
                                        #   in Loop: Header=BB45_1 Depth=1
	callq	process_pending_signals
.LBB45_25:                              # %if.end.86
                                        #   in Loop: Header=BB45_1 Depth=1
	jmp	.LBB45_26
.LBB45_26:                              # %if.end.87
                                        #   in Loop: Header=BB45_1 Depth=1
	jmp	.LBB45_27
.LBB45_27:                              # %do.end
                                        #   in Loop: Header=BB45_1 Depth=1
	jmp	.LBB45_1
.LBB45_28:                              # %while.end
	movq	-16(%rbp), %rdi
	callq	CAR
	addq	$96, %rsp
	popq	%rbp
	retq
.Lfunc_end45:
	.size	Fassoc, .Lfunc_end45-Fassoc
	.cfi_endproc

	.globl	assoc_no_quit
	.align	16, 0x90
	.type	assoc_no_quit,@function
assoc_no_quit:                          # @assoc_no_quit
	.cfi_startproc
# BB#0:                                 # %entry
	pushq	%rbp
.Ltmp138:
	.cfi_def_cfa_offset 16
.Ltmp139:
	.cfi_offset %rbp, -16
	movq	%rsp, %rbp
.Ltmp140:
	.cfi_def_cfa_register %rbp
	subq	$48, %rsp
	movq	%rdi, -8(%rbp)
	movq	%rsi, -16(%rbp)
.LBB46_1:                               # %while.cond
                                        # =>This Inner Loop Header: Depth=1
	xorl	%eax, %eax
	movb	%al, %cl
	movq	-16(%rbp), %rdx
	andq	$7, %rdx
	movl	%edx, %eax
	cmpl	$3, %eax
	movb	%cl, -17(%rbp)          # 1-byte Spill
	jne	.LBB46_7
# BB#2:                                 # %land.rhs
                                        #   in Loop: Header=BB46_1 Depth=1
	movb	$1, %al
	movq	-16(%rbp), %rcx
	subq	$3, %rcx
	movq	(%rcx), %rcx
	andq	$7, %rcx
	movl	%ecx, %edx
	cmpl	$3, %edx
	movb	%al, -18(%rbp)          # 1-byte Spill
	jne	.LBB46_6
# BB#3:                                 # %lor.rhs
                                        #   in Loop: Header=BB46_1 Depth=1
	xorl	%eax, %eax
	movb	%al, %cl
	movq	-16(%rbp), %rdx
	subq	$3, %rdx
	movq	(%rdx), %rdx
	subq	$3, %rdx
	movq	(%rdx), %rdx
	cmpq	-8(%rbp), %rdx
	movb	%cl, -19(%rbp)          # 1-byte Spill
	je	.LBB46_5
# BB#4:                                 # %land.rhs.12
                                        #   in Loop: Header=BB46_1 Depth=1
	movq	-16(%rbp), %rax
	subq	$3, %rax
	movq	(%rax), %rax
	subq	$3, %rax
	movq	(%rax), %rdi
	movq	-8(%rbp), %rsi
	callq	Fequal
	xorl	%edi, %edi
	movq	%rax, -32(%rbp)         # 8-byte Spill
	callq	builtin_lisp_symbol
	movq	-32(%rbp), %rsi         # 8-byte Reload
	cmpq	%rax, %rsi
	sete	%cl
	movb	%cl, -19(%rbp)          # 1-byte Spill
.LBB46_5:                               # %land.end
                                        #   in Loop: Header=BB46_1 Depth=1
	movb	-19(%rbp), %al          # 1-byte Reload
	movb	%al, -18(%rbp)          # 1-byte Spill
.LBB46_6:                               # %lor.end
                                        #   in Loop: Header=BB46_1 Depth=1
	movb	-18(%rbp), %al          # 1-byte Reload
	movb	%al, -17(%rbp)          # 1-byte Spill
.LBB46_7:                               # %land.end.20
                                        #   in Loop: Header=BB46_1 Depth=1
	movb	-17(%rbp), %al          # 1-byte Reload
	testb	$1, %al
	jne	.LBB46_8
	jmp	.LBB46_9
.LBB46_8:                               # %while.body
                                        #   in Loop: Header=BB46_1 Depth=1
	movq	-16(%rbp), %rax
	subq	$3, %rax
	movq	8(%rax), %rax
	movq	%rax, -16(%rbp)
	jmp	.LBB46_1
.LBB46_9:                               # %while.end
	movq	-16(%rbp), %rax
	andq	$7, %rax
	movl	%eax, %ecx
	cmpl	$3, %ecx
	jne	.LBB46_11
# BB#10:                                # %cond.true
	movq	-16(%rbp), %rax
	subq	$3, %rax
	movq	(%rax), %rax
	movq	%rax, -40(%rbp)         # 8-byte Spill
	jmp	.LBB46_12
.LBB46_11:                              # %cond.false
	xorl	%edi, %edi
	callq	builtin_lisp_symbol
	movq	%rax, -40(%rbp)         # 8-byte Spill
.LBB46_12:                              # %cond.end
	movq	-40(%rbp), %rax         # 8-byte Reload
	addq	$48, %rsp
	popq	%rbp
	retq
.Lfunc_end46:
	.size	assoc_no_quit, .Lfunc_end46-assoc_no_quit
	.cfi_endproc

	.globl	Frassq
	.align	16, 0x90
	.type	Frassq,@function
Frassq:                                 # @Frassq
	.cfi_startproc
# BB#0:                                 # %entry
	pushq	%rbp
.Ltmp141:
	.cfi_def_cfa_offset 16
.Ltmp142:
	.cfi_offset %rbp, -16
	movq	%rsp, %rbp
.Ltmp143:
	.cfi_def_cfa_register %rbp
	subq	$32, %rsp
	movq	%rdi, -8(%rbp)
	movq	%rsi, -16(%rbp)
.LBB47_1:                               # %while.body
                                        # =>This Inner Loop Header: Depth=1
	movq	-16(%rbp), %rax
	andq	$7, %rax
	movl	%eax, %ecx
	cmpl	$3, %ecx
	jne	.LBB47_4
# BB#2:                                 # %lor.lhs.false
                                        #   in Loop: Header=BB47_1 Depth=1
	movq	-16(%rbp), %rax
	subq	$3, %rax
	movq	(%rax), %rax
	andq	$7, %rax
	movl	%eax, %ecx
	cmpl	$3, %ecx
	jne	.LBB47_5
# BB#3:                                 # %land.lhs.true
                                        #   in Loop: Header=BB47_1 Depth=1
	movq	-16(%rbp), %rax
	subq	$3, %rax
	movq	(%rax), %rax
	subq	$3, %rax
	movq	8(%rax), %rax
	cmpq	-8(%rbp), %rax
	jne	.LBB47_5
.LBB47_4:                               # %if.then
	jmp	.LBB47_22
.LBB47_5:                               # %if.end
                                        #   in Loop: Header=BB47_1 Depth=1
	movq	-16(%rbp), %rax
	subq	$3, %rax
	movq	8(%rax), %rax
	movq	%rax, -16(%rbp)
	movq	-16(%rbp), %rax
	andq	$7, %rax
	movl	%eax, %ecx
	cmpl	$3, %ecx
	jne	.LBB47_8
# BB#6:                                 # %lor.lhs.false.18
                                        #   in Loop: Header=BB47_1 Depth=1
	movq	-16(%rbp), %rax
	subq	$3, %rax
	movq	(%rax), %rax
	andq	$7, %rax
	movl	%eax, %ecx
	cmpl	$3, %ecx
	jne	.LBB47_9
# BB#7:                                 # %land.lhs.true.25
                                        #   in Loop: Header=BB47_1 Depth=1
	movq	-16(%rbp), %rax
	subq	$3, %rax
	movq	(%rax), %rax
	subq	$3, %rax
	movq	8(%rax), %rax
	cmpq	-8(%rbp), %rax
	jne	.LBB47_9
.LBB47_8:                               # %if.then.33
	jmp	.LBB47_22
.LBB47_9:                               # %if.end.34
                                        #   in Loop: Header=BB47_1 Depth=1
	movq	-16(%rbp), %rax
	subq	$3, %rax
	movq	8(%rax), %rax
	movq	%rax, -16(%rbp)
	movq	-16(%rbp), %rax
	andq	$7, %rax
	movl	%eax, %ecx
	cmpl	$3, %ecx
	jne	.LBB47_12
# BB#10:                                # %lor.lhs.false.42
                                        #   in Loop: Header=BB47_1 Depth=1
	movq	-16(%rbp), %rax
	subq	$3, %rax
	movq	(%rax), %rax
	andq	$7, %rax
	movl	%eax, %ecx
	cmpl	$3, %ecx
	jne	.LBB47_13
# BB#11:                                # %land.lhs.true.49
                                        #   in Loop: Header=BB47_1 Depth=1
	movq	-16(%rbp), %rax
	subq	$3, %rax
	movq	(%rax), %rax
	subq	$3, %rax
	movq	8(%rax), %rax
	cmpq	-8(%rbp), %rax
	jne	.LBB47_13
.LBB47_12:                              # %if.then.57
	jmp	.LBB47_22
.LBB47_13:                              # %if.end.58
                                        #   in Loop: Header=BB47_1 Depth=1
	movq	-16(%rbp), %rax
	subq	$3, %rax
	movq	8(%rax), %rax
	movq	%rax, -16(%rbp)
# BB#14:                                # %do.body
                                        #   in Loop: Header=BB47_1 Depth=1
	xorl	%edi, %edi
	movq	globals+1928, %rax
	movq	%rax, -24(%rbp)         # 8-byte Spill
	callq	builtin_lisp_symbol
	movq	-24(%rbp), %rcx         # 8-byte Reload
	cmpq	%rax, %rcx
	je	.LBB47_17
# BB#15:                                # %land.lhs.true.64
                                        #   in Loop: Header=BB47_1 Depth=1
	xorl	%edi, %edi
	movq	globals+1104, %rax
	movq	%rax, -32(%rbp)         # 8-byte Spill
	callq	builtin_lisp_symbol
	movq	-32(%rbp), %rcx         # 8-byte Reload
	cmpq	%rax, %rcx
	jne	.LBB47_17
# BB#16:                                # %if.then.68
                                        #   in Loop: Header=BB47_1 Depth=1
	callq	process_quit_flag
	jmp	.LBB47_20
.LBB47_17:                              # %if.else
                                        #   in Loop: Header=BB47_1 Depth=1
	movb	pending_signals, %al
	testb	$1, %al
	je	.LBB47_19
# BB#18:                                # %if.then.69
                                        #   in Loop: Header=BB47_1 Depth=1
	callq	process_pending_signals
.LBB47_19:                              # %if.end.70
                                        #   in Loop: Header=BB47_1 Depth=1
	jmp	.LBB47_20
.LBB47_20:                              # %if.end.71
                                        #   in Loop: Header=BB47_1 Depth=1
	jmp	.LBB47_21
.LBB47_21:                              # %do.end
                                        #   in Loop: Header=BB47_1 Depth=1
	jmp	.LBB47_1
.LBB47_22:                              # %while.end
	movq	-16(%rbp), %rdi
	callq	CAR
	addq	$32, %rsp
	popq	%rbp
	retq
.Lfunc_end47:
	.size	Frassq, .Lfunc_end47-Frassq
	.cfi_endproc

	.globl	Frassoc
	.align	16, 0x90
	.type	Frassoc,@function
Frassoc:                                # @Frassoc
	.cfi_startproc
# BB#0:                                 # %entry
	pushq	%rbp
.Ltmp144:
	.cfi_def_cfa_offset 16
.Ltmp145:
	.cfi_offset %rbp, -16
	movq	%rsp, %rbp
.Ltmp146:
	.cfi_def_cfa_register %rbp
	subq	$96, %rsp
	movq	%rdi, -8(%rbp)
	movq	%rsi, -16(%rbp)
.LBB48_1:                               # %while.body
                                        # =>This Inner Loop Header: Depth=1
	movq	-16(%rbp), %rax
	andq	$7, %rax
	movl	%eax, %ecx
	cmpl	$3, %ecx
	jne	.LBB48_6
# BB#2:                                 # %lor.lhs.false
                                        #   in Loop: Header=BB48_1 Depth=1
	movq	-16(%rbp), %rax
	subq	$3, %rax
	movq	(%rax), %rax
	andq	$7, %rax
	movl	%eax, %ecx
	cmpl	$3, %ecx
	jne	.LBB48_7
# BB#3:                                 # %land.lhs.true
                                        #   in Loop: Header=BB48_1 Depth=1
	movb	$1, %al
	movq	-16(%rbp), %rcx
	subq	$3, %rcx
	movq	(%rcx), %rcx
	subq	$3, %rcx
	movq	8(%rcx), %rcx
	movq	%rcx, -24(%rbp)
	movq	-24(%rbp), %rcx
	cmpq	-8(%rbp), %rcx
	movb	%al, -25(%rbp)          # 1-byte Spill
	je	.LBB48_5
# BB#4:                                 # %lor.rhs
                                        #   in Loop: Header=BB48_1 Depth=1
	movq	-24(%rbp), %rdi
	movq	-8(%rbp), %rsi
	callq	Fequal
	xorl	%edi, %edi
	movq	%rax, -40(%rbp)         # 8-byte Spill
	callq	builtin_lisp_symbol
	movq	-40(%rbp), %rsi         # 8-byte Reload
	cmpq	%rax, %rsi
	sete	%cl
	xorb	$-1, %cl
	movb	%cl, -25(%rbp)          # 1-byte Spill
.LBB48_5:                               # %lor.end
                                        #   in Loop: Header=BB48_1 Depth=1
	movb	-25(%rbp), %al          # 1-byte Reload
	testb	$1, %al
	jne	.LBB48_6
	jmp	.LBB48_7
.LBB48_6:                               # %if.then
	jmp	.LBB48_28
.LBB48_7:                               # %if.end
                                        #   in Loop: Header=BB48_1 Depth=1
	movq	-16(%rbp), %rax
	subq	$3, %rax
	movq	8(%rax), %rax
	movq	%rax, -16(%rbp)
	movq	-16(%rbp), %rax
	andq	$7, %rax
	movl	%eax, %ecx
	cmpl	$3, %ecx
	jne	.LBB48_12
# BB#8:                                 # %lor.lhs.false.22
                                        #   in Loop: Header=BB48_1 Depth=1
	movq	-16(%rbp), %rax
	subq	$3, %rax
	movq	(%rax), %rax
	andq	$7, %rax
	movl	%eax, %ecx
	cmpl	$3, %ecx
	jne	.LBB48_13
# BB#9:                                 # %land.lhs.true.29
                                        #   in Loop: Header=BB48_1 Depth=1
	movb	$1, %al
	movq	-16(%rbp), %rcx
	subq	$3, %rcx
	movq	(%rcx), %rcx
	subq	$3, %rcx
	movq	8(%rcx), %rcx
	movq	%rcx, -24(%rbp)
	movq	-24(%rbp), %rcx
	cmpq	-8(%rbp), %rcx
	movb	%al, -41(%rbp)          # 1-byte Spill
	je	.LBB48_11
# BB#10:                                # %lor.rhs.37
                                        #   in Loop: Header=BB48_1 Depth=1
	movq	-24(%rbp), %rdi
	movq	-8(%rbp), %rsi
	callq	Fequal
	xorl	%edi, %edi
	movq	%rax, -56(%rbp)         # 8-byte Spill
	callq	builtin_lisp_symbol
	movq	-56(%rbp), %rsi         # 8-byte Reload
	cmpq	%rax, %rsi
	sete	%cl
	xorb	$-1, %cl
	movb	%cl, -41(%rbp)          # 1-byte Spill
.LBB48_11:                              # %lor.end.43
                                        #   in Loop: Header=BB48_1 Depth=1
	movb	-41(%rbp), %al          # 1-byte Reload
	testb	$1, %al
	jne	.LBB48_12
	jmp	.LBB48_13
.LBB48_12:                              # %if.then.44
	jmp	.LBB48_28
.LBB48_13:                              # %if.end.45
                                        #   in Loop: Header=BB48_1 Depth=1
	movq	-16(%rbp), %rax
	subq	$3, %rax
	movq	8(%rax), %rax
	movq	%rax, -16(%rbp)
	movq	-16(%rbp), %rax
	andq	$7, %rax
	movl	%eax, %ecx
	cmpl	$3, %ecx
	jne	.LBB48_18
# BB#14:                                # %lor.lhs.false.53
                                        #   in Loop: Header=BB48_1 Depth=1
	movq	-16(%rbp), %rax
	subq	$3, %rax
	movq	(%rax), %rax
	andq	$7, %rax
	movl	%eax, %ecx
	cmpl	$3, %ecx
	jne	.LBB48_19
# BB#15:                                # %land.lhs.true.60
                                        #   in Loop: Header=BB48_1 Depth=1
	movb	$1, %al
	movq	-16(%rbp), %rcx
	subq	$3, %rcx
	movq	(%rcx), %rcx
	subq	$3, %rcx
	movq	8(%rcx), %rcx
	movq	%rcx, -24(%rbp)
	movq	-24(%rbp), %rcx
	cmpq	-8(%rbp), %rcx
	movb	%al, -57(%rbp)          # 1-byte Spill
	je	.LBB48_17
# BB#16:                                # %lor.rhs.68
                                        #   in Loop: Header=BB48_1 Depth=1
	movq	-24(%rbp), %rdi
	movq	-8(%rbp), %rsi
	callq	Fequal
	xorl	%edi, %edi
	movq	%rax, -72(%rbp)         # 8-byte Spill
	callq	builtin_lisp_symbol
	movq	-72(%rbp), %rsi         # 8-byte Reload
	cmpq	%rax, %rsi
	sete	%cl
	xorb	$-1, %cl
	movb	%cl, -57(%rbp)          # 1-byte Spill
.LBB48_17:                              # %lor.end.74
                                        #   in Loop: Header=BB48_1 Depth=1
	movb	-57(%rbp), %al          # 1-byte Reload
	testb	$1, %al
	jne	.LBB48_18
	jmp	.LBB48_19
.LBB48_18:                              # %if.then.75
	jmp	.LBB48_28
.LBB48_19:                              # %if.end.76
                                        #   in Loop: Header=BB48_1 Depth=1
	movq	-16(%rbp), %rax
	subq	$3, %rax
	movq	8(%rax), %rax
	movq	%rax, -16(%rbp)
# BB#20:                                # %do.body
                                        #   in Loop: Header=BB48_1 Depth=1
	xorl	%edi, %edi
	movq	globals+1928, %rax
	movq	%rax, -80(%rbp)         # 8-byte Spill
	callq	builtin_lisp_symbol
	movq	-80(%rbp), %rcx         # 8-byte Reload
	cmpq	%rax, %rcx
	je	.LBB48_23
# BB#21:                                # %land.lhs.true.83
                                        #   in Loop: Header=BB48_1 Depth=1
	xorl	%edi, %edi
	movq	globals+1104, %rax
	movq	%rax, -88(%rbp)         # 8-byte Spill
	callq	builtin_lisp_symbol
	movq	-88(%rbp), %rcx         # 8-byte Reload
	cmpq	%rax, %rcx
	jne	.LBB48_23
# BB#22:                                # %if.then.87
                                        #   in Loop: Header=BB48_1 Depth=1
	callq	process_quit_flag
	jmp	.LBB48_26
.LBB48_23:                              # %if.else
                                        #   in Loop: Header=BB48_1 Depth=1
	movb	pending_signals, %al
	testb	$1, %al
	je	.LBB48_25
# BB#24:                                # %if.then.88
                                        #   in Loop: Header=BB48_1 Depth=1
	callq	process_pending_signals
.LBB48_25:                              # %if.end.89
                                        #   in Loop: Header=BB48_1 Depth=1
	jmp	.LBB48_26
.LBB48_26:                              # %if.end.90
                                        #   in Loop: Header=BB48_1 Depth=1
	jmp	.LBB48_27
.LBB48_27:                              # %do.end
                                        #   in Loop: Header=BB48_1 Depth=1
	jmp	.LBB48_1
.LBB48_28:                              # %while.end
	movq	-16(%rbp), %rdi
	callq	CAR
	addq	$96, %rsp
	popq	%rbp
	retq
.Lfunc_end48:
	.size	Frassoc, .Lfunc_end48-Frassoc
	.cfi_endproc

	.globl	Fdelq
	.align	16, 0x90
	.type	Fdelq,@function
Fdelq:                                  # @Fdelq
	.cfi_startproc
# BB#0:                                 # %entry
	pushq	%rbp
.Ltmp147:
	.cfi_def_cfa_offset 16
.Ltmp148:
	.cfi_offset %rbp, -16
	movq	%rsp, %rbp
.Ltmp149:
	.cfi_def_cfa_register %rbp
	subq	$80, %rsp
	xorl	%eax, %eax
	movq	%rdi, -8(%rbp)
	movq	%rsi, -16(%rbp)
	movl	%eax, %edi
	callq	builtin_lisp_symbol
	movq	%rax, -40(%rbp)
	movq	-16(%rbp), %rax
	movq	%rax, -24(%rbp)
	movq	%rax, -32(%rbp)
	movb	$1, -41(%rbp)
.LBB49_1:                               # %for.cond
                                        # =>This Inner Loop Header: Depth=1
	movq	-24(%rbp), %rax
	andq	$7, %rax
	movl	%eax, %ecx
	cmpl	$3, %ecx
	jne	.LBB49_16
# BB#2:                                 # %for.body
                                        #   in Loop: Header=BB49_1 Depth=1
	movq	-24(%rbp), %rax
	subq	$3, %rax
	movq	(%rax), %rax
	movq	%rax, -56(%rbp)
	movq	-8(%rbp), %rax
	cmpq	-56(%rbp), %rax
	jne	.LBB49_7
# BB#3:                                 # %if.then
                                        #   in Loop: Header=BB49_1 Depth=1
	xorl	%edi, %edi
	movq	-40(%rbp), %rax
	movq	%rax, -64(%rbp)         # 8-byte Spill
	callq	builtin_lisp_symbol
	movq	-64(%rbp), %rcx         # 8-byte Reload
	cmpq	%rax, %rcx
	jne	.LBB49_5
# BB#4:                                 # %if.then.7
                                        #   in Loop: Header=BB49_1 Depth=1
	movq	-24(%rbp), %rax
	subq	$3, %rax
	movq	8(%rax), %rax
	movq	%rax, -16(%rbp)
	jmp	.LBB49_6
.LBB49_5:                               # %if.else
                                        #   in Loop: Header=BB49_1 Depth=1
	movq	-40(%rbp), %rdi
	movq	-24(%rbp), %rax
	subq	$3, %rax
	movq	8(%rax), %rsi
	callq	Fsetcdr
	movq	%rax, -72(%rbp)         # 8-byte Spill
.LBB49_6:                               # %if.end
                                        #   in Loop: Header=BB49_1 Depth=1
	jmp	.LBB49_8
.LBB49_7:                               # %if.else.13
                                        #   in Loop: Header=BB49_1 Depth=1
	movq	-24(%rbp), %rax
	movq	%rax, -40(%rbp)
.LBB49_8:                               # %if.end.14
                                        #   in Loop: Header=BB49_1 Depth=1
	jmp	.LBB49_9
.LBB49_9:                               # %for.inc
                                        #   in Loop: Header=BB49_1 Depth=1
	movq	-24(%rbp), %rax
	subq	$3, %rax
	movq	8(%rax), %rax
	movq	%rax, -24(%rbp)
	movb	-41(%rbp), %cl
	xorb	$-1, %cl
	andb	$1, %cl
	movb	%cl, -41(%rbp)
	testb	$1, -41(%rbp)
	je	.LBB49_14
# BB#10:                                # %cond.true
                                        #   in Loop: Header=BB49_1 Depth=1
	movq	-24(%rbp), %rax
	cmpq	-32(%rbp), %rax
	jne	.LBB49_12
# BB#11:                                # %cond.true.22
	movl	$265, %edi              # imm = 0x109
	callq	builtin_lisp_symbol
	movq	-16(%rbp), %rsi
	movq	%rax, %rdi
	callq	xsignal1
.LBB49_12:                              # %cond.false
                                        #   in Loop: Header=BB49_1 Depth=1
	jmp	.LBB49_13
.LBB49_13:                              # %cond.end
                                        #   in Loop: Header=BB49_1 Depth=1
	jmp	.LBB49_15
.LBB49_14:                              # %cond.false.24
                                        #   in Loop: Header=BB49_1 Depth=1
	movq	-32(%rbp), %rax
	subq	$3, %rax
	movq	8(%rax), %rax
	movq	%rax, -32(%rbp)
.LBB49_15:                              # %cond.end.28
                                        #   in Loop: Header=BB49_1 Depth=1
	jmp	.LBB49_1
.LBB49_16:                              # %for.end
	movq	-16(%rbp), %rax
	addq	$80, %rsp
	popq	%rbp
	retq
.Lfunc_end49:
	.size	Fdelq, .Lfunc_end49-Fdelq
	.cfi_endproc

	.globl	Fdelete
	.align	16, 0x90
	.type	Fdelete,@function
Fdelete:                                # @Fdelete
	.cfi_startproc
# BB#0:                                 # %entry
	pushq	%rbp
.Ltmp150:
	.cfi_def_cfa_offset 16
.Ltmp151:
	.cfi_offset %rbp, -16
	movq	%rsp, %rbp
.Ltmp152:
	.cfi_def_cfa_register %rbp
	subq	$368, %rsp              # imm = 0x170
	movq	%rdi, -8(%rbp)
	movq	%rsi, -16(%rbp)
	movq	-16(%rbp), %rdi
	callq	VECTORP
	testb	$1, %al
	jne	.LBB50_1
	jmp	.LBB50_16
.LBB50_1:                               # %if.then
	movq	$0, -32(%rbp)
	movq	$0, -24(%rbp)
.LBB50_2:                               # %for.cond
                                        # =>This Inner Loop Header: Depth=1
	movq	-24(%rbp), %rax
	movq	-16(%rbp), %rdi
	movq	%rax, -144(%rbp)        # 8-byte Spill
	callq	ASIZE
	movq	-144(%rbp), %rdi        # 8-byte Reload
	cmpq	%rax, %rdi
	jge	.LBB50_7
# BB#3:                                 # %for.body
                                        #   in Loop: Header=BB50_2 Depth=1
	movq	-16(%rbp), %rdi
	movq	-24(%rbp), %rsi
	callq	AREF
	movq	-8(%rbp), %rsi
	movq	%rax, %rdi
	callq	Fequal
	xorl	%edi, %edi
	movq	%rax, -152(%rbp)        # 8-byte Spill
	callq	builtin_lisp_symbol
	movq	-152(%rbp), %rsi        # 8-byte Reload
	cmpq	%rax, %rsi
	jne	.LBB50_5
# BB#4:                                 # %if.then.6
                                        #   in Loop: Header=BB50_2 Depth=1
	movq	-32(%rbp), %rax
	addq	$1, %rax
	movq	%rax, -32(%rbp)
.LBB50_5:                               # %if.end
                                        #   in Loop: Header=BB50_2 Depth=1
	jmp	.LBB50_6
.LBB50_6:                               # %for.inc
                                        #   in Loop: Header=BB50_2 Depth=1
	movq	-24(%rbp), %rax
	addq	$1, %rax
	movq	%rax, -24(%rbp)
	jmp	.LBB50_2
.LBB50_7:                               # %for.end
	movq	-32(%rbp), %rax
	movq	-16(%rbp), %rdi
	movq	%rax, -160(%rbp)        # 8-byte Spill
	callq	ASIZE
	movq	-160(%rbp), %rdi        # 8-byte Reload
	cmpq	%rax, %rdi
	je	.LBB50_15
# BB#8:                                 # %if.then.10
	movq	-32(%rbp), %rdi
	callq	allocate_vector
	movq	%rax, -40(%rbp)
	movq	$0, -32(%rbp)
	movq	$0, -24(%rbp)
.LBB50_9:                               # %for.cond.12
                                        # =>This Inner Loop Header: Depth=1
	movq	-24(%rbp), %rax
	movq	-16(%rbp), %rdi
	movq	%rax, -168(%rbp)        # 8-byte Spill
	callq	ASIZE
	movq	-168(%rbp), %rdi        # 8-byte Reload
	cmpq	%rax, %rdi
	jge	.LBB50_14
# BB#10:                                # %for.body.15
                                        #   in Loop: Header=BB50_9 Depth=1
	movq	-16(%rbp), %rdi
	movq	-24(%rbp), %rsi
	callq	AREF
	movq	-8(%rbp), %rsi
	movq	%rax, %rdi
	callq	Fequal
	xorl	%edi, %edi
	movq	%rax, -176(%rbp)        # 8-byte Spill
	callq	builtin_lisp_symbol
	movq	-176(%rbp), %rsi        # 8-byte Reload
	cmpq	%rax, %rsi
	jne	.LBB50_12
# BB#11:                                # %if.then.20
                                        #   in Loop: Header=BB50_9 Depth=1
	movq	-16(%rbp), %rdi
	movq	-24(%rbp), %rsi
	callq	AREF
	movq	-32(%rbp), %rsi
	movq	%rsi, %rdi
	addq	$1, %rdi
	movq	%rdi, -32(%rbp)
	movq	-40(%rbp), %rdi
	movq	%rax, 8(%rdi,%rsi,8)
.LBB50_12:                              # %if.end.23
                                        #   in Loop: Header=BB50_9 Depth=1
	jmp	.LBB50_13
.LBB50_13:                              # %for.inc.24
                                        #   in Loop: Header=BB50_9 Depth=1
	movq	-24(%rbp), %rax
	addq	$1, %rax
	movq	%rax, -24(%rbp)
	jmp	.LBB50_9
.LBB50_14:                              # %for.end.26
	movl	$5, %esi
	movq	-40(%rbp), %rax
	movq	%rax, %rdi
	callq	make_lisp_ptr
	movq	%rax, -16(%rbp)
.LBB50_15:                              # %if.end.28
	jmp	.LBB50_115
.LBB50_16:                              # %if.else
	movq	-16(%rbp), %rdi
	callq	STRINGP
	testb	$1, %al
	jne	.LBB50_17
	jmp	.LBB50_92
.LBB50_17:                              # %if.then.30
	movq	$0, -56(%rbp)
	movq	$0, -72(%rbp)
	movq	$0, -64(%rbp)
	movq	$0, -48(%rbp)
.LBB50_18:                              # %for.cond.32
                                        # =>This Inner Loop Header: Depth=1
	movq	-48(%rbp), %rax
	movq	-16(%rbp), %rdi
	movq	%rax, -184(%rbp)        # 8-byte Spill
	callq	SCHARS
	movq	-184(%rbp), %rdi        # 8-byte Reload
	cmpq	%rax, %rdi
	jge	.LBB50_48
# BB#19:                                # %for.body.35
                                        #   in Loop: Header=BB50_18 Depth=1
	movq	-16(%rbp), %rdi
	callq	STRING_MULTIBYTE
	testb	$1, %al
	jne	.LBB50_20
	jmp	.LBB50_42
.LBB50_20:                              # %if.then.37
                                        #   in Loop: Header=BB50_18 Depth=1
	movq	-16(%rbp), %rdi
	callq	SDATA
	movq	-56(%rbp), %rdi
	movzbl	(%rax,%rdi), %ecx
	andl	$128, %ecx
	cmpl	$0, %ecx
	jne	.LBB50_22
# BB#21:                                # %cond.true
                                        #   in Loop: Header=BB50_18 Depth=1
	movq	-16(%rbp), %rdi
	callq	SDATA
	movq	-56(%rbp), %rdi
	movzbl	(%rax,%rdi), %ecx
	movl	%ecx, -188(%rbp)        # 4-byte Spill
	jmp	.LBB50_29
.LBB50_22:                              # %cond.false
                                        #   in Loop: Header=BB50_18 Depth=1
	movq	-16(%rbp), %rdi
	callq	SDATA
	movq	-56(%rbp), %rdi
	movzbl	(%rax,%rdi), %ecx
	andl	$32, %ecx
	cmpl	$0, %ecx
	jne	.LBB50_24
# BB#23:                                # %cond.true.50
                                        #   in Loop: Header=BB50_18 Depth=1
	movq	-16(%rbp), %rdi
	callq	SDATA
	movq	-56(%rbp), %rdi
	movzbl	(%rax,%rdi), %ecx
	andl	$31, %ecx
	shll	$6, %ecx
	movq	-16(%rbp), %rdi
	movl	%ecx, -192(%rbp)        # 4-byte Spill
	callq	SDATA
	movq	-56(%rbp), %rdi
	movzbl	1(%rax,%rdi), %ecx
	andl	$63, %ecx
	movl	-192(%rbp), %edx        # 4-byte Reload
	orl	%ecx, %edx
	movq	-16(%rbp), %rdi
	movl	%edx, -196(%rbp)        # 4-byte Spill
	callq	SDATA
	xorl	%ecx, %ecx
	movl	$4194176, %edx          # imm = 0x3FFF80
	movq	-56(%rbp), %rdi
	movzbl	(%rax,%rdi), %esi
	cmpl	$194, %esi
	cmovll	%edx, %ecx
	movl	-196(%rbp), %edx        # 4-byte Reload
	addl	%ecx, %edx
	movl	%edx, -200(%rbp)        # 4-byte Spill
	jmp	.LBB50_28
.LBB50_24:                              # %cond.false.67
                                        #   in Loop: Header=BB50_18 Depth=1
	movq	-16(%rbp), %rdi
	callq	SDATA
	movq	-56(%rbp), %rdi
	movzbl	(%rax,%rdi), %ecx
	andl	$16, %ecx
	cmpl	$0, %ecx
	jne	.LBB50_26
# BB#25:                                # %cond.true.74
                                        #   in Loop: Header=BB50_18 Depth=1
	movq	-16(%rbp), %rdi
	callq	SDATA
	movq	-56(%rbp), %rdi
	movzbl	(%rax,%rdi), %ecx
	andl	$15, %ecx
	shll	$12, %ecx
	movq	-16(%rbp), %rdi
	movl	%ecx, -204(%rbp)        # 4-byte Spill
	callq	SDATA
	movq	-56(%rbp), %rdi
	movzbl	1(%rax,%rdi), %ecx
	andl	$63, %ecx
	shll	$6, %ecx
	movl	-204(%rbp), %edx        # 4-byte Reload
	orl	%ecx, %edx
	movq	-16(%rbp), %rdi
	movl	%edx, -208(%rbp)        # 4-byte Spill
	callq	SDATA
	movq	-56(%rbp), %rdi
	movzbl	2(%rax,%rdi), %ecx
	andl	$63, %ecx
	movl	-208(%rbp), %edx        # 4-byte Reload
	orl	%ecx, %edx
	movl	%edx, -212(%rbp)        # 4-byte Spill
	jmp	.LBB50_27
.LBB50_26:                              # %cond.false.94
                                        #   in Loop: Header=BB50_18 Depth=1
	movq	-16(%rbp), %rdi
	callq	SDATA
	xorl	%ecx, %ecx
	movl	%ecx, %edi
	addq	-56(%rbp), %rax
	movq	%rdi, -224(%rbp)        # 8-byte Spill
	movq	%rax, %rdi
	movq	-224(%rbp), %rsi        # 8-byte Reload
	movq	-224(%rbp), %rdx        # 8-byte Reload
	callq	string_char
	movl	%eax, -212(%rbp)        # 4-byte Spill
.LBB50_27:                              # %cond.end
                                        #   in Loop: Header=BB50_18 Depth=1
	movl	-212(%rbp), %eax        # 4-byte Reload
	movl	%eax, -200(%rbp)        # 4-byte Spill
.LBB50_28:                              # %cond.end.99
                                        #   in Loop: Header=BB50_18 Depth=1
	movl	-200(%rbp), %eax        # 4-byte Reload
	movl	%eax, -188(%rbp)        # 4-byte Spill
.LBB50_29:                              # %cond.end.101
                                        #   in Loop: Header=BB50_18 Depth=1
	movl	-188(%rbp), %eax        # 4-byte Reload
	movl	%eax, -84(%rbp)
	cmpl	$127, -84(%rbp)
	jg	.LBB50_31
# BB#30:                                # %cond.true.105
                                        #   in Loop: Header=BB50_18 Depth=1
	movl	$1, %eax
	movl	%eax, -228(%rbp)        # 4-byte Spill
	jmp	.LBB50_41
.LBB50_31:                              # %cond.false.106
                                        #   in Loop: Header=BB50_18 Depth=1
	cmpl	$2047, -84(%rbp)        # imm = 0x7FF
	jg	.LBB50_33
# BB#32:                                # %cond.true.109
                                        #   in Loop: Header=BB50_18 Depth=1
	movl	$2, %eax
	movl	%eax, -232(%rbp)        # 4-byte Spill
	jmp	.LBB50_40
.LBB50_33:                              # %cond.false.110
                                        #   in Loop: Header=BB50_18 Depth=1
	cmpl	$65535, -84(%rbp)       # imm = 0xFFFF
	jg	.LBB50_35
# BB#34:                                # %cond.true.113
                                        #   in Loop: Header=BB50_18 Depth=1
	movl	$3, %eax
	movl	%eax, -236(%rbp)        # 4-byte Spill
	jmp	.LBB50_39
.LBB50_35:                              # %cond.false.114
                                        #   in Loop: Header=BB50_18 Depth=1
	cmpl	$2097151, -84(%rbp)     # imm = 0x1FFFFF
	jg	.LBB50_37
# BB#36:                                # %cond.true.117
                                        #   in Loop: Header=BB50_18 Depth=1
	movl	$4, %eax
	movl	%eax, -240(%rbp)        # 4-byte Spill
	jmp	.LBB50_38
.LBB50_37:                              # %cond.false.118
                                        #   in Loop: Header=BB50_18 Depth=1
	movl	$2, %eax
	movl	$5, %ecx
	cmpl	$4194175, -84(%rbp)     # imm = 0x3FFF7F
	cmovlel	%ecx, %eax
	movl	%eax, -240(%rbp)        # 4-byte Spill
.LBB50_38:                              # %cond.end.122
                                        #   in Loop: Header=BB50_18 Depth=1
	movl	-240(%rbp), %eax        # 4-byte Reload
	movl	%eax, -236(%rbp)        # 4-byte Spill
.LBB50_39:                              # %cond.end.124
                                        #   in Loop: Header=BB50_18 Depth=1
	movl	-236(%rbp), %eax        # 4-byte Reload
	movl	%eax, -232(%rbp)        # 4-byte Spill
.LBB50_40:                              # %cond.end.126
                                        #   in Loop: Header=BB50_18 Depth=1
	movl	-232(%rbp), %eax        # 4-byte Reload
	movl	%eax, -228(%rbp)        # 4-byte Spill
.LBB50_41:                              # %cond.end.128
                                        #   in Loop: Header=BB50_18 Depth=1
	movl	-228(%rbp), %eax        # 4-byte Reload
	movslq	%eax, %rcx
	movq	%rcx, -80(%rbp)
	jmp	.LBB50_43
.LBB50_42:                              # %if.else.131
                                        #   in Loop: Header=BB50_18 Depth=1
	movq	-16(%rbp), %rdi
	movq	-48(%rbp), %rsi
	callq	SREF
	movzbl	%al, %ecx
	movl	%ecx, -84(%rbp)
	movq	$1, -80(%rbp)
.LBB50_43:                              # %if.end.134
                                        #   in Loop: Header=BB50_18 Depth=1
	movq	-8(%rbp), %rax
	andq	$7, %rax
	movl	%eax, %ecx
	andl	$-5, %ecx
	cmpl	$2, %ecx
	jne	.LBB50_45
# BB#44:                                # %lor.lhs.false
                                        #   in Loop: Header=BB50_18 Depth=1
	movslq	-84(%rbp), %rax
	movq	-8(%rbp), %rcx
	sarq	$2, %rcx
	cmpq	%rcx, %rax
	je	.LBB50_46
.LBB50_45:                              # %if.then.143
                                        #   in Loop: Header=BB50_18 Depth=1
	movq	-64(%rbp), %rax
	addq	$1, %rax
	movq	%rax, -64(%rbp)
	movq	-80(%rbp), %rax
	addq	-72(%rbp), %rax
	movq	%rax, -72(%rbp)
.LBB50_46:                              # %if.end.146
                                        #   in Loop: Header=BB50_18 Depth=1
	jmp	.LBB50_47
.LBB50_47:                              # %for.inc.147
                                        #   in Loop: Header=BB50_18 Depth=1
	movq	-48(%rbp), %rax
	addq	$1, %rax
	movq	%rax, -48(%rbp)
	movq	-80(%rbp), %rax
	addq	-56(%rbp), %rax
	movq	%rax, -56(%rbp)
	jmp	.LBB50_18
.LBB50_48:                              # %for.end.150
	movq	-64(%rbp), %rax
	movq	-16(%rbp), %rdi
	movq	%rax, -248(%rbp)        # 8-byte Spill
	callq	SCHARS
	movq	-248(%rbp), %rdi        # 8-byte Reload
	cmpq	%rax, %rdi
	je	.LBB50_91
# BB#49:                                # %if.then.154
	movq	-64(%rbp), %rdi
	movq	-72(%rbp), %rsi
	callq	make_uninit_multibyte_string
	movq	%rax, -96(%rbp)
	movq	-16(%rbp), %rdi
	callq	STRING_MULTIBYTE
	testb	$1, %al
	jne	.LBB50_56
# BB#50:                                # %if.then.157
	jmp	.LBB50_51
.LBB50_51:                              # %do.body
	movq	-96(%rbp), %rdi
	callq	XSTRING
	cmpq	$0, (%rax)
	jne	.LBB50_53
# BB#52:                                # %if.then.161
	movq	empty_unibyte_string, %rax
	movq	%rax, -96(%rbp)
	jmp	.LBB50_54
.LBB50_53:                              # %if.else.162
	movq	-96(%rbp), %rdi
	callq	XSTRING
	movq	$-1, 8(%rax)
.LBB50_54:                              # %if.end.164
	jmp	.LBB50_55
.LBB50_55:                              # %do.end
	jmp	.LBB50_56
.LBB50_56:                              # %if.end.165
	movq	$0, -56(%rbp)
	movq	$0, -72(%rbp)
	movq	$0, -64(%rbp)
	movq	$0, -48(%rbp)
.LBB50_57:                              # %for.cond.166
                                        # =>This Loop Header: Depth=1
                                        #     Child Loop BB50_85 Depth 2
	movq	-48(%rbp), %rax
	movq	-16(%rbp), %rdi
	movq	%rax, -256(%rbp)        # 8-byte Spill
	callq	SCHARS
	movq	-256(%rbp), %rdi        # 8-byte Reload
	cmpq	%rax, %rdi
	jge	.LBB50_90
# BB#58:                                # %for.body.170
                                        #   in Loop: Header=BB50_57 Depth=1
	movq	-16(%rbp), %rdi
	callq	STRING_MULTIBYTE
	testb	$1, %al
	jne	.LBB50_59
	jmp	.LBB50_81
.LBB50_59:                              # %if.then.172
                                        #   in Loop: Header=BB50_57 Depth=1
	movq	-16(%rbp), %rdi
	callq	SDATA
	movq	-56(%rbp), %rdi
	movzbl	(%rax,%rdi), %ecx
	andl	$128, %ecx
	cmpl	$0, %ecx
	jne	.LBB50_61
# BB#60:                                # %cond.true.179
                                        #   in Loop: Header=BB50_57 Depth=1
	movq	-16(%rbp), %rdi
	callq	SDATA
	movq	-56(%rbp), %rdi
	movzbl	(%rax,%rdi), %ecx
	movl	%ecx, -260(%rbp)        # 4-byte Spill
	jmp	.LBB50_68
.LBB50_61:                              # %cond.false.184
                                        #   in Loop: Header=BB50_57 Depth=1
	movq	-16(%rbp), %rdi
	callq	SDATA
	movq	-56(%rbp), %rdi
	movzbl	(%rax,%rdi), %ecx
	andl	$32, %ecx
	cmpl	$0, %ecx
	jne	.LBB50_63
# BB#62:                                # %cond.true.191
                                        #   in Loop: Header=BB50_57 Depth=1
	movq	-16(%rbp), %rdi
	callq	SDATA
	movq	-56(%rbp), %rdi
	movzbl	(%rax,%rdi), %ecx
	andl	$31, %ecx
	shll	$6, %ecx
	movq	-16(%rbp), %rdi
	movl	%ecx, -264(%rbp)        # 4-byte Spill
	callq	SDATA
	movq	-56(%rbp), %rdi
	movzbl	1(%rax,%rdi), %ecx
	andl	$63, %ecx
	movl	-264(%rbp), %edx        # 4-byte Reload
	orl	%ecx, %edx
	movq	-16(%rbp), %rdi
	movl	%edx, -268(%rbp)        # 4-byte Spill
	callq	SDATA
	xorl	%ecx, %ecx
	movl	$4194176, %edx          # imm = 0x3FFF80
	movq	-56(%rbp), %rdi
	movzbl	(%rax,%rdi), %esi
	cmpl	$194, %esi
	cmovll	%edx, %ecx
	movl	-268(%rbp), %edx        # 4-byte Reload
	addl	%ecx, %edx
	movl	%edx, -272(%rbp)        # 4-byte Spill
	jmp	.LBB50_67
.LBB50_63:                              # %cond.false.212
                                        #   in Loop: Header=BB50_57 Depth=1
	movq	-16(%rbp), %rdi
	callq	SDATA
	movq	-56(%rbp), %rdi
	movzbl	(%rax,%rdi), %ecx
	andl	$16, %ecx
	cmpl	$0, %ecx
	jne	.LBB50_65
# BB#64:                                # %cond.true.219
                                        #   in Loop: Header=BB50_57 Depth=1
	movq	-16(%rbp), %rdi
	callq	SDATA
	movq	-56(%rbp), %rdi
	movzbl	(%rax,%rdi), %ecx
	andl	$15, %ecx
	shll	$12, %ecx
	movq	-16(%rbp), %rdi
	movl	%ecx, -276(%rbp)        # 4-byte Spill
	callq	SDATA
	movq	-56(%rbp), %rdi
	movzbl	1(%rax,%rdi), %ecx
	andl	$63, %ecx
	shll	$6, %ecx
	movl	-276(%rbp), %edx        # 4-byte Reload
	orl	%ecx, %edx
	movq	-16(%rbp), %rdi
	movl	%edx, -280(%rbp)        # 4-byte Spill
	callq	SDATA
	movq	-56(%rbp), %rdi
	movzbl	2(%rax,%rdi), %ecx
	andl	$63, %ecx
	movl	-280(%rbp), %edx        # 4-byte Reload
	orl	%ecx, %edx
	movl	%edx, -284(%rbp)        # 4-byte Spill
	jmp	.LBB50_66
.LBB50_65:                              # %cond.false.239
                                        #   in Loop: Header=BB50_57 Depth=1
	movq	-16(%rbp), %rdi
	callq	SDATA
	xorl	%ecx, %ecx
	movl	%ecx, %edi
	addq	-56(%rbp), %rax
	movq	%rdi, -296(%rbp)        # 8-byte Spill
	movq	%rax, %rdi
	movq	-296(%rbp), %rsi        # 8-byte Reload
	movq	-296(%rbp), %rdx        # 8-byte Reload
	callq	string_char
	movl	%eax, -284(%rbp)        # 4-byte Spill
.LBB50_66:                              # %cond.end.243
                                        #   in Loop: Header=BB50_57 Depth=1
	movl	-284(%rbp), %eax        # 4-byte Reload
	movl	%eax, -272(%rbp)        # 4-byte Spill
.LBB50_67:                              # %cond.end.245
                                        #   in Loop: Header=BB50_57 Depth=1
	movl	-272(%rbp), %eax        # 4-byte Reload
	movl	%eax, -260(%rbp)        # 4-byte Spill
.LBB50_68:                              # %cond.end.247
                                        #   in Loop: Header=BB50_57 Depth=1
	movl	-260(%rbp), %eax        # 4-byte Reload
	movl	%eax, -84(%rbp)
	cmpl	$127, -84(%rbp)
	jg	.LBB50_70
# BB#69:                                # %cond.true.251
                                        #   in Loop: Header=BB50_57 Depth=1
	movl	$1, %eax
	movl	%eax, -300(%rbp)        # 4-byte Spill
	jmp	.LBB50_80
.LBB50_70:                              # %cond.false.252
                                        #   in Loop: Header=BB50_57 Depth=1
	cmpl	$2047, -84(%rbp)        # imm = 0x7FF
	jg	.LBB50_72
# BB#71:                                # %cond.true.255
                                        #   in Loop: Header=BB50_57 Depth=1
	movl	$2, %eax
	movl	%eax, -304(%rbp)        # 4-byte Spill
	jmp	.LBB50_79
.LBB50_72:                              # %cond.false.256
                                        #   in Loop: Header=BB50_57 Depth=1
	cmpl	$65535, -84(%rbp)       # imm = 0xFFFF
	jg	.LBB50_74
# BB#73:                                # %cond.true.259
                                        #   in Loop: Header=BB50_57 Depth=1
	movl	$3, %eax
	movl	%eax, -308(%rbp)        # 4-byte Spill
	jmp	.LBB50_78
.LBB50_74:                              # %cond.false.260
                                        #   in Loop: Header=BB50_57 Depth=1
	cmpl	$2097151, -84(%rbp)     # imm = 0x1FFFFF
	jg	.LBB50_76
# BB#75:                                # %cond.true.263
                                        #   in Loop: Header=BB50_57 Depth=1
	movl	$4, %eax
	movl	%eax, -312(%rbp)        # 4-byte Spill
	jmp	.LBB50_77
.LBB50_76:                              # %cond.false.264
                                        #   in Loop: Header=BB50_57 Depth=1
	movl	$2, %eax
	movl	$5, %ecx
	cmpl	$4194175, -84(%rbp)     # imm = 0x3FFF7F
	cmovlel	%ecx, %eax
	movl	%eax, -312(%rbp)        # 4-byte Spill
.LBB50_77:                              # %cond.end.268
                                        #   in Loop: Header=BB50_57 Depth=1
	movl	-312(%rbp), %eax        # 4-byte Reload
	movl	%eax, -308(%rbp)        # 4-byte Spill
.LBB50_78:                              # %cond.end.270
                                        #   in Loop: Header=BB50_57 Depth=1
	movl	-308(%rbp), %eax        # 4-byte Reload
	movl	%eax, -304(%rbp)        # 4-byte Spill
.LBB50_79:                              # %cond.end.272
                                        #   in Loop: Header=BB50_57 Depth=1
	movl	-304(%rbp), %eax        # 4-byte Reload
	movl	%eax, -300(%rbp)        # 4-byte Spill
.LBB50_80:                              # %cond.end.274
                                        #   in Loop: Header=BB50_57 Depth=1
	movl	-300(%rbp), %eax        # 4-byte Reload
	movslq	%eax, %rcx
	movq	%rcx, -80(%rbp)
	jmp	.LBB50_82
.LBB50_81:                              # %if.else.277
                                        #   in Loop: Header=BB50_57 Depth=1
	movq	-16(%rbp), %rdi
	movq	-48(%rbp), %rsi
	callq	SREF
	movzbl	%al, %ecx
	movl	%ecx, -84(%rbp)
	movq	$1, -80(%rbp)
.LBB50_82:                              # %if.end.280
                                        #   in Loop: Header=BB50_57 Depth=1
	movq	-8(%rbp), %rax
	andq	$7, %rax
	movl	%eax, %ecx
	andl	$-5, %ecx
	cmpl	$2, %ecx
	jne	.LBB50_84
# BB#83:                                # %lor.lhs.false.286
                                        #   in Loop: Header=BB50_57 Depth=1
	movslq	-84(%rbp), %rax
	movq	-8(%rbp), %rcx
	sarq	$2, %rcx
	cmpq	%rcx, %rax
	je	.LBB50_88
.LBB50_84:                              # %if.then.291
                                        #   in Loop: Header=BB50_57 Depth=1
	movq	-16(%rbp), %rdi
	callq	SDATA
	addq	-56(%rbp), %rax
	movq	%rax, -104(%rbp)
	movq	-96(%rbp), %rdi
	callq	SDATA
	addq	-72(%rbp), %rax
	movq	%rax, -112(%rbp)
	movq	-64(%rbp), %rax
	addq	$1, %rax
	movq	%rax, -64(%rbp)
	movq	-80(%rbp), %rax
	addq	-72(%rbp), %rax
	movq	%rax, -72(%rbp)
	movq	-80(%rbp), %rax
	movq	%rax, -120(%rbp)
.LBB50_85:                              # %for.cond.299
                                        #   Parent Loop BB50_57 Depth=1
                                        # =>  This Inner Loop Header: Depth=2
	movq	-120(%rbp), %rax
	movq	%rax, %rcx
	addq	$-1, %rcx
	movq	%rcx, -120(%rbp)
	cmpq	$0, %rax
	je	.LBB50_87
# BB#86:                                # %for.body.301
                                        #   in Loop: Header=BB50_85 Depth=2
	movq	-104(%rbp), %rax
	movq	%rax, %rcx
	addq	$1, %rcx
	movq	%rcx, -104(%rbp)
	movb	(%rax), %dl
	movq	-112(%rbp), %rax
	movq	%rax, %rcx
	addq	$1, %rcx
	movq	%rcx, -112(%rbp)
	movb	%dl, (%rax)
	jmp	.LBB50_85
.LBB50_87:                              # %for.end.303
                                        #   in Loop: Header=BB50_57 Depth=1
	jmp	.LBB50_88
.LBB50_88:                              # %if.end.304
                                        #   in Loop: Header=BB50_57 Depth=1
	jmp	.LBB50_89
.LBB50_89:                              # %for.inc.305
                                        #   in Loop: Header=BB50_57 Depth=1
	movq	-48(%rbp), %rax
	addq	$1, %rax
	movq	%rax, -48(%rbp)
	movq	-80(%rbp), %rax
	addq	-56(%rbp), %rax
	movq	%rax, -56(%rbp)
	jmp	.LBB50_57
.LBB50_90:                              # %for.end.308
	movq	-96(%rbp), %rax
	movq	%rax, -16(%rbp)
.LBB50_91:                              # %if.end.309
	jmp	.LBB50_114
.LBB50_92:                              # %if.else.310
	xorl	%edi, %edi
	movq	-16(%rbp), %rax
	movq	%rax, -128(%rbp)
	callq	builtin_lisp_symbol
	movq	%rax, -136(%rbp)
.LBB50_93:                              # %for.cond.312
                                        # =>This Inner Loop Header: Depth=1
	movq	-128(%rbp), %rax
	andq	$7, %rax
	movl	%eax, %ecx
	cmpl	$3, %ecx
	jne	.LBB50_113
# BB#94:                                # %for.body.317
                                        #   in Loop: Header=BB50_93 Depth=1
	movq	-128(%rbp), %rax
	andq	$7, %rax
	movl	%eax, %ecx
	cmpl	$3, %ecx
	jne	.LBB50_96
# BB#95:                                # %cond.true.322
                                        #   in Loop: Header=BB50_93 Depth=1
	jmp	.LBB50_97
.LBB50_96:                              # %cond.false.323
	movl	$626, %edi              # imm = 0x272
	callq	builtin_lisp_symbol
	movq	-16(%rbp), %rsi
	movq	%rax, %rdi
	callq	wrong_type_argument
	movq	%rax, -320(%rbp)        # 8-byte Spill
.LBB50_97:                              # %cond.end.325
                                        #   in Loop: Header=BB50_93 Depth=1
	movq	-8(%rbp), %rdi
	movq	-128(%rbp), %rax
	subq	$3, %rax
	movq	(%rax), %rsi
	callq	Fequal
	xorl	%edi, %edi
	movq	%rax, -328(%rbp)        # 8-byte Spill
	callq	builtin_lisp_symbol
	movq	-328(%rbp), %rsi        # 8-byte Reload
	cmpq	%rax, %rsi
	je	.LBB50_102
# BB#98:                                # %if.then.330
                                        #   in Loop: Header=BB50_93 Depth=1
	xorl	%edi, %edi
	movq	-136(%rbp), %rax
	movq	%rax, -336(%rbp)        # 8-byte Spill
	callq	builtin_lisp_symbol
	movq	-336(%rbp), %rcx        # 8-byte Reload
	cmpq	%rax, %rcx
	jne	.LBB50_100
# BB#99:                                # %if.then.334
                                        #   in Loop: Header=BB50_93 Depth=1
