	.text
	.file	"regex.bc"
	.globl	re_set_syntax
	.align	16, 0x90
	.type	re_set_syntax,@function
re_set_syntax:                          # @re_set_syntax
	.cfi_startproc
# BB#0:                                 # %entry
	pushq	%rbp
.Ltmp0:
	.cfi_def_cfa_offset 16
.Ltmp1:
	.cfi_offset %rbp, -16
	movq	%rsp, %rbp
.Ltmp2:
	.cfi_def_cfa_register %rbp
	movq	%rdi, -8(%rbp)
	movq	re_syntax_options, %rdi
	movq	%rdi, -16(%rbp)
	movq	-8(%rbp), %rdi
	movq	%rdi, re_syntax_options
	movq	-16(%rbp), %rax
	popq	%rbp
	retq
.Lfunc_end0:
	.size	re_set_syntax, .Lfunc_end0-re_set_syntax
	.cfi_endproc

	.globl	re_set_whitespace_regexp
	.align	16, 0x90
	.type	re_set_whitespace_regexp,@function
re_set_whitespace_regexp:               # @re_set_whitespace_regexp
	.cfi_startproc
# BB#0:                                 # %entry
	pushq	%rbp
.Ltmp3:
	.cfi_def_cfa_offset 16
.Ltmp4:
	.cfi_offset %rbp, -16
	movq	%rsp, %rbp
.Ltmp5:
	.cfi_def_cfa_register %rbp
	movq	%rdi, -8(%rbp)
	movq	-8(%rbp), %rdi
	movq	%rdi, whitespace_regexp
	popq	%rbp
	retq
.Lfunc_end1:
	.size	re_set_whitespace_regexp, .Lfunc_end1-re_set_whitespace_regexp
	.cfi_endproc

	.globl	re_wctype
	.align	16, 0x90
	.type	re_wctype,@function
re_wctype:                              # @re_wctype
	.cfi_startproc
# BB#0:                                 # %entry
	pushq	%rbp
.Ltmp6:
	.cfi_def_cfa_offset 16
.Ltmp7:
	.cfi_offset %rbp, -16
	movq	%rsp, %rbp
.Ltmp8:
	.cfi_def_cfa_register %rbp
	subq	$32, %rsp
	movq	%rdi, -16(%rbp)
	movq	-16(%rbp), %rdi
	movq	%rdi, -24(%rbp)
	movq	-24(%rbp), %rdi
	movl	$.L.str, %eax
	movl	%eax, %esi
	callq	strcmp
	cmpl	$0, %eax
	jne	.LBB2_2
# BB#1:                                 # %if.then
	movl	$1, -4(%rbp)
	jmp	.LBB2_35
.LBB2_2:                                # %if.else
	movq	-24(%rbp), %rdi
	movl	$.L.str.1, %eax
	movl	%eax, %esi
	callq	strcmp
	cmpl	$0, %eax
	jne	.LBB2_4
# BB#3:                                 # %if.then.3
	movl	$2, -4(%rbp)
	jmp	.LBB2_35
.LBB2_4:                                # %if.else.4
	movq	-24(%rbp), %rdi
	movl	$.L.str.2, %eax
	movl	%eax, %esi
	callq	strcmp
	cmpl	$0, %eax
	jne	.LBB2_6
# BB#5:                                 # %if.then.7
	movl	$3, -4(%rbp)
	jmp	.LBB2_35
.LBB2_6:                                # %if.else.8
	movq	-24(%rbp), %rdi
	movl	$.L.str.3, %eax
	movl	%eax, %esi
	callq	strcmp
	cmpl	$0, %eax
	jne	.LBB2_8
# BB#7:                                 # %if.then.11
	movl	$16, -4(%rbp)
	jmp	.LBB2_35
.LBB2_8:                                # %if.else.12
	movq	-24(%rbp), %rdi
	movl	$.L.str.4, %eax
	movl	%eax, %esi
	callq	strcmp
	cmpl	$0, %eax
	jne	.LBB2_10
# BB#9:                                 # %if.then.15
	movl	$15, -4(%rbp)
	jmp	.LBB2_35
.LBB2_10:                               # %if.else.16
	movq	-24(%rbp), %rdi
	movl	$.L.str.5, %eax
	movl	%eax, %esi
	callq	strcmp
	cmpl	$0, %eax
	jne	.LBB2_12
# BB#11:                                # %if.then.19
	movl	$4, -4(%rbp)
	jmp	.LBB2_35
.LBB2_12:                               # %if.else.20
	movq	-24(%rbp), %rdi
	movl	$.L.str.6, %eax
	movl	%eax, %esi
	callq	strcmp
	cmpl	$0, %eax
	jne	.LBB2_14
# BB#13:                                # %if.then.23
	movl	$6, -4(%rbp)
	jmp	.LBB2_35
.LBB2_14:                               # %if.else.24
	movq	-24(%rbp), %rdi
	movl	$.L.str.7, %eax
	movl	%eax, %esi
	callq	strcmp
	cmpl	$0, %eax
	jne	.LBB2_16
# BB#15:                                # %if.then.27
	movl	$5, -4(%rbp)
	jmp	.LBB2_35
.LBB2_16:                               # %if.else.28
	movq	-24(%rbp), %rdi
	movl	$.L.str.8, %eax
	movl	%eax, %esi
	callq	strcmp
	cmpl	$0, %eax
	jne	.LBB2_18
# BB#17:                                # %if.then.31
	movl	$8, -4(%rbp)
	jmp	.LBB2_35
.LBB2_18:                               # %if.else.32
	movq	-24(%rbp), %rdi
	movl	$.L.str.9, %eax
	movl	%eax, %esi
	callq	strcmp
	cmpl	$0, %eax
	jne	.LBB2_20
# BB#19:                                # %if.then.35
	movl	$13, -4(%rbp)
	jmp	.LBB2_35
.LBB2_20:                               # %if.else.36
	movq	-24(%rbp), %rdi
	movl	$.L.str.10, %eax
	movl	%eax, %esi
	callq	strcmp
	cmpl	$0, %eax
	jne	.LBB2_22
# BB#21:                                # %if.then.39
	movl	$7, -4(%rbp)
	jmp	.LBB2_35
.LBB2_22:                               # %if.else.40
	movq	-24(%rbp), %rdi
	movl	$.L.str.11, %eax
	movl	%eax, %esi
	callq	strcmp
	cmpl	$0, %eax
	jne	.LBB2_24
# BB#23:                                # %if.then.43
	movl	$17, -4(%rbp)
	jmp	.LBB2_35
.LBB2_24:                               # %if.else.44
	movq	-24(%rbp), %rdi
	movl	$.L.str.12, %eax
	movl	%eax, %esi
	callq	strcmp
	cmpl	$0, %eax
	jne	.LBB2_26
# BB#25:                                # %if.then.47
	movl	$14, -4(%rbp)
	jmp	.LBB2_35
.LBB2_26:                               # %if.else.48
	movq	-24(%rbp), %rdi
	movl	$.L.str.13, %eax
	movl	%eax, %esi
	callq	strcmp
	cmpl	$0, %eax
	jne	.LBB2_28
# BB#27:                                # %if.then.51
	movl	$10, -4(%rbp)
	jmp	.LBB2_35
.LBB2_28:                               # %if.else.52
	movq	-24(%rbp), %rdi
	movl	$.L.str.14, %eax
	movl	%eax, %esi
	callq	strcmp
	cmpl	$0, %eax
	jne	.LBB2_30
# BB#29:                                # %if.then.55
	movl	$11, -4(%rbp)
	jmp	.LBB2_35
.LBB2_30:                               # %if.else.56
	movq	-24(%rbp), %rdi
	movl	$.L.str.15, %eax
	movl	%eax, %esi
	callq	strcmp
	cmpl	$0, %eax
	jne	.LBB2_32
# BB#31:                                # %if.then.59
	movl	$9, -4(%rbp)
	jmp	.LBB2_35
.LBB2_32:                               # %if.else.60
	movq	-24(%rbp), %rdi
	movl	$.L.str.16, %eax
	movl	%eax, %esi
	callq	strcmp
	cmpl	$0, %eax
	jne	.LBB2_34
# BB#33:                                # %if.then.63
	movl	$12, -4(%rbp)
	jmp	.LBB2_35
.LBB2_34:                               # %if.else.64
	movl	$0, -4(%rbp)
.LBB2_35:                               # %return
	movl	-4(%rbp), %eax
	addq	$32, %rsp
	popq	%rbp
	retq
.Lfunc_end2:
	.size	re_wctype, .Lfunc_end2-re_wctype
	.cfi_endproc

	.globl	re_iswctype
	.align	16, 0x90
	.type	re_iswctype,@function
re_iswctype:                            # @re_iswctype
	.cfi_startproc
# BB#0:                                 # %entry
	pushq	%rbp
.Ltmp9:
	.cfi_def_cfa_offset 16
.Ltmp10:
	.cfi_offset %rbp, -16
	movq	%rsp, %rbp
.Ltmp11:
	.cfi_def_cfa_register %rbp
	subq	$80, %rsp
	movl	%edi, -8(%rbp)
	movl	%esi, -12(%rbp)
	movl	-12(%rbp), %esi
	movl	%esi, %eax
	movq	%rax, %rcx
	subq	$17, %rcx
	movq	%rax, -24(%rbp)         # 8-byte Spill
	movq	%rcx, -32(%rbp)         # 8-byte Spill
	ja	.LBB3_81
# BB#83:                                # %entry
	movq	-24(%rbp), %rax         # 8-byte Reload
	movq	.LJTI3_0(,%rax,8), %rcx
	jmpq	*%rcx
.LBB3_1:                                # %sw.bb
	cmpl	$128, -8(%rbp)
	jge	.LBB3_10
# BB#2:                                 # %cond.true
	cmpl	$97, -8(%rbp)
	jl	.LBB3_4
# BB#3:                                 # %land.lhs.true
	movb	$1, %al
	cmpl	$122, -8(%rbp)
	movb	%al, -33(%rbp)          # 1-byte Spill
	jle	.LBB3_9
.LBB3_4:                                # %lor.lhs.false
	cmpl	$65, -8(%rbp)
	jl	.LBB3_6
# BB#5:                                 # %land.lhs.true.4
	movb	$1, %al
	cmpl	$90, -8(%rbp)
	movb	%al, -33(%rbp)          # 1-byte Spill
	jle	.LBB3_9
.LBB3_6:                                # %lor.rhs
	xorl	%eax, %eax
	movb	%al, %cl
	cmpl	$48, -8(%rbp)
	movb	%cl, -34(%rbp)          # 1-byte Spill
	jl	.LBB3_8
# BB#7:                                 # %land.rhs
	cmpl	$57, -8(%rbp)
	setle	%al
	movb	%al, -34(%rbp)          # 1-byte Spill
.LBB3_8:                                # %land.end
	movb	-34(%rbp), %al          # 1-byte Reload
	movb	%al, -33(%rbp)          # 1-byte Spill
.LBB3_9:                                # %lor.end
	movb	-33(%rbp), %al          # 1-byte Reload
	andb	$1, %al
	movzbl	%al, %ecx
	movl	%ecx, -40(%rbp)         # 4-byte Spill
	jmp	.LBB3_13
.LBB3_10:                               # %cond.false
	movl	-8(%rbp), %edi
	callq	alphabeticp
	movb	$1, %cl
	testb	$1, %al
	movb	%cl, -41(%rbp)          # 1-byte Spill
	jne	.LBB3_12
# BB#11:                                # %lor.rhs.8
	movl	-8(%rbp), %edi
	callq	decimalnump
	movb	%al, -41(%rbp)          # 1-byte Spill
.LBB3_12:                               # %lor.end.10
	movb	-41(%rbp), %al          # 1-byte Reload
	andb	$1, %al
	movzbl	%al, %ecx
	movl	%ecx, -40(%rbp)         # 4-byte Spill
.LBB3_13:                               # %cond.end
	movl	-40(%rbp), %eax         # 4-byte Reload
	cmpl	$0, %eax
	setne	%cl
	andb	$1, %cl
	movzbl	%cl, %eax
	movb	%al, %cl
	movb	%cl, -1(%rbp)
	jmp	.LBB3_82
.LBB3_14:                               # %sw.bb.14
	cmpl	$128, -8(%rbp)
	jge	.LBB3_21
# BB#15:                                # %cond.true.17
	cmpl	$97, -8(%rbp)
	jl	.LBB3_17
# BB#16:                                # %land.lhs.true.20
	movb	$1, %al
	cmpl	$122, -8(%rbp)
	movb	%al, -42(%rbp)          # 1-byte Spill
	jle	.LBB3_20
.LBB3_17:                               # %lor.rhs.23
	xorl	%eax, %eax
	movb	%al, %cl
	cmpl	$65, -8(%rbp)
	movb	%cl, -43(%rbp)          # 1-byte Spill
	jl	.LBB3_19
# BB#18:                                # %land.rhs.26
	cmpl	$90, -8(%rbp)
	setle	%al
	movb	%al, -43(%rbp)          # 1-byte Spill
.LBB3_19:                               # %land.end.29
	movb	-43(%rbp), %al          # 1-byte Reload
	movb	%al, -42(%rbp)          # 1-byte Spill
.LBB3_20:                               # %lor.end.30
	movb	-42(%rbp), %al          # 1-byte Reload
	andb	$1, %al
	movzbl	%al, %ecx
	movl	%ecx, -48(%rbp)         # 4-byte Spill
	jmp	.LBB3_22
.LBB3_21:                               # %cond.false.32
	movl	-8(%rbp), %edi
	callq	alphabeticp
	andb	$1, %al
	movzbl	%al, %edi
	movl	%edi, -48(%rbp)         # 4-byte Spill
.LBB3_22:                               # %cond.end.35
	movl	-48(%rbp), %eax         # 4-byte Reload
	cmpl	$0, %eax
	setne	%cl
	andb	$1, %cl
	movzbl	%cl, %eax
	movb	%al, %cl
	movb	%cl, -1(%rbp)
	jmp	.LBB3_82
.LBB3_23:                               # %sw.bb.40
	movb	$1, %al
	cmpl	$32, -8(%rbp)
	movb	%al, -49(%rbp)          # 1-byte Spill
	je	.LBB3_25
# BB#24:                                # %lor.rhs.43
	cmpl	$9, -8(%rbp)
	sete	%al
	movb	%al, -49(%rbp)          # 1-byte Spill
.LBB3_25:                               # %lor.end.46
	movb	-49(%rbp), %al          # 1-byte Reload
	andb	$1, %al
	movzbl	%al, %ecx
	cmpl	$0, %ecx
	setne	%al
	andb	$1, %al
	movzbl	%al, %ecx
	movb	%cl, %al
	movb	%al, -1(%rbp)
	jmp	.LBB3_82
.LBB3_26:                               # %sw.bb.51
	cmpl	$32, -8(%rbp)
	setl	%al
	andb	$1, %al
	movzbl	%al, %ecx
	cmpl	$0, %ecx
	setne	%al
	andb	$1, %al
	movzbl	%al, %ecx
	movb	%cl, %al
	movb	%al, -1(%rbp)
	jmp	.LBB3_82
.LBB3_27:                               # %sw.bb.57
	xorl	%eax, %eax
	movb	%al, %cl
	cmpl	$48, -8(%rbp)
	movb	%cl, -50(%rbp)          # 1-byte Spill
	jl	.LBB3_29
# BB#28:                                # %land.rhs.60
	cmpl	$57, -8(%rbp)
	setle	%al
	movb	%al, -50(%rbp)          # 1-byte Spill
.LBB3_29:                               # %land.end.63
	movb	-50(%rbp), %al          # 1-byte Reload
	andb	$1, %al
	movzbl	%al, %ecx
	cmpl	$0, %ecx
	setne	%al
	andb	$1, %al
	movzbl	%al, %ecx
	movb	%cl, %al
	movb	%al, -1(%rbp)
	jmp	.LBB3_82
.LBB3_30:                               # %sw.bb.67
	movb	$1, %al
	testb	$1, %al
	jne	.LBB3_31
	jmp	.LBB3_32
.LBB3_31:                               # %cond.true.68
	movl	-8(%rbp), %eax
	addl	$0, %eax
	cmpl	$256, %eax              # imm = 0x100
	jb	.LBB3_33
	jmp	.LBB3_38
.LBB3_32:                               # %cond.false.71
	movslq	-8(%rbp), %rax
	addq	$0, %rax
	cmpq	$256, %rax              # imm = 0x100
	jae	.LBB3_38
.LBB3_33:                               # %cond.true.76
	xorl	%eax, %eax
	movb	%al, %cl
	cmpl	$32, -8(%rbp)
	movb	%cl, -51(%rbp)          # 1-byte Spill
	jle	.LBB3_37
# BB#34:                                # %land.rhs.79
	xorl	%eax, %eax
	movb	%al, %cl
	cmpl	$127, -8(%rbp)
	movb	%cl, -52(%rbp)          # 1-byte Spill
	jl	.LBB3_36
# BB#35:                                # %land.rhs.82
	cmpl	$160, -8(%rbp)
	setle	%al
	movb	%al, -52(%rbp)          # 1-byte Spill
.LBB3_36:                               # %land.end.85
	movb	-52(%rbp), %al          # 1-byte Reload
	xorb	$-1, %al
	movb	%al, -51(%rbp)          # 1-byte Spill
.LBB3_37:                               # %land.end.87
	movb	-51(%rbp), %al          # 1-byte Reload
	andb	$1, %al
	movzbl	%al, %ecx
	movl	%ecx, -56(%rbp)         # 4-byte Spill
	jmp	.LBB3_39
.LBB3_38:                               # %cond.false.89
	movl	-8(%rbp), %edi
	callq	graphicp
	andb	$1, %al
	movzbl	%al, %edi
	movl	%edi, -56(%rbp)         # 4-byte Spill
.LBB3_39:                               # %cond.end.92
	movl	-56(%rbp), %eax         # 4-byte Reload
	cmpl	$0, %eax
	setne	%cl
	andb	$1, %cl
	movzbl	%cl, %eax
	movb	%al, %cl
	movb	%cl, -1(%rbp)
	jmp	.LBB3_82
.LBB3_40:                               # %sw.bb.97
	movl	-8(%rbp), %edi
	callq	lowercasep
	andb	$1, %al
	movzbl	%al, %edi
	cmpl	$0, %edi
	setne	%al
	andb	$1, %al
	movzbl	%al, %edi
	movb	%dil, %al
	movb	%al, -1(%rbp)
	jmp	.LBB3_82
.LBB3_41:                               # %sw.bb.103
	movb	$1, %al
	testb	$1, %al
	jne	.LBB3_42
	jmp	.LBB3_43
.LBB3_42:                               # %cond.true.104
	movl	-8(%rbp), %eax
	addl	$0, %eax
	cmpl	$256, %eax              # imm = 0x100
	jb	.LBB3_44
	jmp	.LBB3_49
.LBB3_43:                               # %cond.false.108
	movslq	-8(%rbp), %rax
	addq	$0, %rax
	cmpq	$256, %rax              # imm = 0x100
	jae	.LBB3_49
.LBB3_44:                               # %cond.true.113
	xorl	%eax, %eax
	movb	%al, %cl
	cmpl	$32, -8(%rbp)
	movb	%cl, -57(%rbp)          # 1-byte Spill
	jl	.LBB3_48
# BB#45:                                # %land.rhs.116
	xorl	%eax, %eax
	movb	%al, %cl
	cmpl	$127, -8(%rbp)
	movb	%cl, -58(%rbp)          # 1-byte Spill
	jl	.LBB3_47
# BB#46:                                # %land.rhs.119
	cmpl	$159, -8(%rbp)
	setle	%al
	movb	%al, -58(%rbp)          # 1-byte Spill
.LBB3_47:                               # %land.end.122
	movb	-58(%rbp), %al          # 1-byte Reload
	xorb	$-1, %al
	movb	%al, -57(%rbp)          # 1-byte Spill
.LBB3_48:                               # %land.end.125
	movb	-57(%rbp), %al          # 1-byte Reload
	andb	$1, %al
	movzbl	%al, %ecx
	movl	%ecx, -64(%rbp)         # 4-byte Spill
	jmp	.LBB3_50
.LBB3_49:                               # %cond.false.127
	movl	-8(%rbp), %edi
	callq	printablep
	andb	$1, %al
	movzbl	%al, %edi
	movl	%edi, -64(%rbp)         # 4-byte Spill
.LBB3_50:                               # %cond.end.130
	movl	-64(%rbp), %eax         # 4-byte Reload
	cmpl	$0, %eax
	setne	%cl
	andb	$1, %cl
	movzbl	%cl, %eax
	movb	%al, %cl
	movb	%cl, -1(%rbp)
	jmp	.LBB3_82
.LBB3_51:                               # %sw.bb.135
	cmpl	$128, -8(%rbp)
	jge	.LBB3_63
# BB#52:                                # %cond.true.138
	xorl	%eax, %eax
	movb	%al, %cl
	cmpl	$32, -8(%rbp)
	movb	%cl, -65(%rbp)          # 1-byte Spill
	jle	.LBB3_62
# BB#53:                                # %land.lhs.true.141
	xorl	%eax, %eax
	movb	%al, %cl
	cmpl	$127, -8(%rbp)
	movb	%cl, -65(%rbp)          # 1-byte Spill
	jge	.LBB3_62
# BB#54:                                # %land.rhs.144
	cmpl	$97, -8(%rbp)
	jl	.LBB3_56
# BB#55:                                # %land.lhs.true.147
	movb	$1, %al
	cmpl	$122, -8(%rbp)
	movb	%al, -66(%rbp)          # 1-byte Spill
	jle	.LBB3_61
.LBB3_56:                               # %lor.lhs.false.150
	cmpl	$65, -8(%rbp)
	jl	.LBB3_58
# BB#57:                                # %land.lhs.true.153
	movb	$1, %al
	cmpl	$90, -8(%rbp)
	movb	%al, -66(%rbp)          # 1-byte Spill
	jle	.LBB3_61
.LBB3_58:                               # %lor.rhs.156
	xorl	%eax, %eax
	movb	%al, %cl
	cmpl	$48, -8(%rbp)
	movb	%cl, -67(%rbp)          # 1-byte Spill
	jl	.LBB3_60
# BB#59:                                # %land.rhs.159
	cmpl	$57, -8(%rbp)
	setle	%al
	movb	%al, -67(%rbp)          # 1-byte Spill
.LBB3_60:                               # %land.end.162
	movb	-67(%rbp), %al          # 1-byte Reload
	movb	%al, -66(%rbp)          # 1-byte Spill
.LBB3_61:                               # %lor.end.164
	movb	-66(%rbp), %al          # 1-byte Reload
	xorb	$-1, %al
	movb	%al, -65(%rbp)          # 1-byte Spill
.LBB3_62:                               # %land.end.167
	movb	-65(%rbp), %al          # 1-byte Reload
	andb	$1, %al
	movzbl	%al, %ecx
	movl	%ecx, -72(%rbp)         # 4-byte Spill
	jmp	.LBB3_64
.LBB3_63:                               # %cond.false.169
	movl	$1, %esi
	movl	-8(%rbp), %edi
	callq	syntax_property
	cmpl	$2, %eax
	setne	%cl
	andb	$1, %cl
	movzbl	%cl, %eax
	movl	%eax, -72(%rbp)         # 4-byte Spill
.LBB3_64:                               # %cond.end.173
	movl	-72(%rbp), %eax         # 4-byte Reload
	cmpl	$0, %eax
	setne	%cl
	andb	$1, %cl
	movzbl	%cl, %eax
	movb	%al, %cl
	movb	%cl, -1(%rbp)
	jmp	.LBB3_82
.LBB3_65:                               # %sw.bb.178
	movl	$1, %esi
	movl	-8(%rbp), %edi
	callq	syntax_property
	cmpl	$0, %eax
	sete	%cl
	andb	$1, %cl
	movzbl	%cl, %eax
	cmpl	$0, %eax
	setne	%cl
	andb	$1, %cl
	movzbl	%cl, %eax
	movb	%al, %cl
	movb	%cl, -1(%rbp)
	jmp	.LBB3_82
.LBB3_66:                               # %sw.bb.185
	movl	-8(%rbp), %edi
	callq	uppercasep
	andb	$1, %al
	movzbl	%al, %edi
	cmpl	$0, %edi
	setne	%al
	andb	$1, %al
	movzbl	%al, %edi
	movb	%dil, %al
	movb	%al, -1(%rbp)
	jmp	.LBB3_82
.LBB3_67:                               # %sw.bb.191
	cmpl	$48, -8(%rbp)
	jl	.LBB3_69
# BB#68:                                # %land.lhs.true.194
	movb	$1, %al
	cmpl	$57, -8(%rbp)
	movb	%al, -73(%rbp)          # 1-byte Spill
	jle	.LBB3_74
.LBB3_69:                               # %lor.lhs.false.197
	cmpl	$97, -8(%rbp)
	jl	.LBB3_71
# BB#70:                                # %land.lhs.true.200
	movb	$1, %al
	cmpl	$102, -8(%rbp)
	movb	%al, -73(%rbp)          # 1-byte Spill
	jle	.LBB3_74
.LBB3_71:                               # %lor.rhs.203
	xorl	%eax, %eax
	movb	%al, %cl
	cmpl	$65, -8(%rbp)
	movb	%cl, -74(%rbp)          # 1-byte Spill
	jl	.LBB3_73
# BB#72:                                # %land.rhs.206
	cmpl	$70, -8(%rbp)
	setle	%al
	movb	%al, -74(%rbp)          # 1-byte Spill
.LBB3_73:                               # %land.end.209
	movb	-74(%rbp), %al          # 1-byte Reload
	movb	%al, -73(%rbp)          # 1-byte Spill
.LBB3_74:                               # %lor.end.211
	movb	-73(%rbp), %al          # 1-byte Reload
	andb	$1, %al
	movzbl	%al, %ecx
	cmpl	$0, %ecx
	setne	%al
	andb	$1, %al
	movzbl	%al, %ecx
	movb	%cl, %al
	movb	%al, -1(%rbp)
	jmp	.LBB3_82
.LBB3_75:                               # %sw.bb.216
	cmpl	$128, -8(%rbp)
	setl	%al
	andb	$1, %al
	movzbl	%al, %ecx
	cmpl	$0, %ecx
	setne	%al
	andb	$1, %al
	movzbl	%al, %ecx
	movb	%cl, %al
	movb	%al, -1(%rbp)
	jmp	.LBB3_82
.LBB3_76:                               # %sw.bb.222
	cmpl	$128, -8(%rbp)
	setl	%al
	xorb	$-1, %al
	andb	$1, %al
	movzbl	%al, %ecx
	movb	%cl, %al
	movb	%al, -1(%rbp)
	jmp	.LBB3_82
.LBB3_77:                               # %sw.bb.227
	movl	-8(%rbp), %eax
	addl	$0, %eax
	cmpl	$256, %eax              # imm = 0x100
	setb	%cl
	andb	$1, %cl
	movzbl	%cl, %eax
	cmpl	$0, %eax
	setne	%cl
	andb	$1, %cl
	movzbl	%cl, %eax
	movb	%al, %cl
	movb	%cl, -1(%rbp)
	jmp	.LBB3_82
.LBB3_78:                               # %sw.bb.234
	movl	-8(%rbp), %eax
	addl	$0, %eax
	cmpl	$256, %eax              # imm = 0x100
	setb	%cl
	xorb	$-1, %cl
	andb	$1, %cl
	movzbl	%cl, %eax
	movb	%al, %cl
	movb	%cl, -1(%rbp)
	jmp	.LBB3_82
.LBB3_79:                               # %sw.bb.241
	movl	$1, %esi
	movl	-8(%rbp), %edi
	callq	syntax_property
	cmpl	$2, %eax
	sete	%cl
	andb	$1, %cl
	movzbl	%cl, %eax
	cmpl	$0, %eax
	setne	%cl
	andb	$1, %cl
	movzbl	%cl, %eax
	movb	%al, %cl
	movb	%cl, -1(%rbp)
	jmp	.LBB3_82
.LBB3_80:                               # %sw.bb.248
	movb	$0, -1(%rbp)
	jmp	.LBB3_82
.LBB3_81:                               # %sw.default
	callq	abort
.LBB3_82:                               # %return
	movsbl	-1(%rbp), %eax
	addq	$80, %rsp
	popq	%rbp
	retq
.Lfunc_end3:
	.size	re_iswctype, .Lfunc_end3-re_iswctype
	.cfi_endproc
	.section	.rodata,"a",@progbits
	.align	8
.LJTI3_0:
	.quad	.LBB3_80
	.quad	.LBB3_1
	.quad	.LBB3_14
	.quad	.LBB3_79
	.quad	.LBB3_30
	.quad	.LBB3_41
	.quad	.LBB3_40
	.quad	.LBB3_66
	.quad	.LBB3_51
	.quad	.LBB3_26
	.quad	.LBB3_27
	.quad	.LBB3_67
	.quad	.LBB3_23
	.quad	.LBB3_65
	.quad	.LBB3_78
	.quad	.LBB3_76
	.quad	.LBB3_75
	.quad	.LBB3_77

	.text
	.globl	re_compile_fastmap
	.align	16, 0x90
	.type	re_compile_fastmap,@function
re_compile_fastmap:                     # @re_compile_fastmap
	.cfi_startproc
# BB#0:                                 # %entry
	pushq	%rbp
.Ltmp12:
	.cfi_def_cfa_offset 16
.Ltmp13:
	.cfi_offset %rbp, -16
	movq	%rsp, %rbp
.Ltmp14:
	.cfi_def_cfa_register %rbp
	pushq	%rbx
	subq	$24, %rsp
.Ltmp15:
	.cfi_offset %rbx, -24
	xorl	%esi, %esi
	movl	$256, %eax              # imm = 0x100
	movl	%eax, %edx
	movq	%rdi, -16(%rbp)
	movq	-16(%rbp), %rdi
	movq	32(%rdi), %rdi
	movq	%rdi, -24(%rbp)
	movq	-24(%rbp), %rdi
	callq	memset
	movq	-16(%rbp), %rdx
	movw	56(%rdx), %cx
	andw	$-9, %cx
	orw	$8, %cx
	movw	%cx, 56(%rdx)
	movq	-16(%rbp), %rdx
	movq	(%rdx), %rdi
	movq	-16(%rbp), %rdx
	movq	(%rdx), %rdx
	movq	-16(%rbp), %r8
	addq	16(%r8), %rdx
	movq	-24(%rbp), %r8
	movq	-16(%rbp), %r9
	movw	56(%r9), %cx
	shrw	$8, %cx
	andw	$1, %cx
	movzwl	%cx, %ecx
	movq	%rdx, %rsi
	movq	%r8, %rdx
	callq	analyze_first
	xorl	%ecx, %ecx
	movl	%eax, -28(%rbp)
	cmpl	$0, -28(%rbp)
	setne	%r10b
	andb	$1, %r10b
	movzbl	%r10b, %eax
	movq	-16(%rbp), %rdx
	movw	%ax, %r11w
	movw	56(%rdx), %bx
	andw	$1, %r11w
	andw	$-2, %bx
	orw	%r11w, %bx
	movw	%bx, 56(%rdx)
	movl	%ecx, %eax
	addq	$24, %rsp
	popq	%rbx
	popq	%rbp
	retq
.Lfunc_end4:
	.size	re_compile_fastmap, .Lfunc_end4-re_compile_fastmap
	.cfi_endproc

	.align	16, 0x90
	.type	analyze_first,@function
analyze_first:                          # @analyze_first
	.cfi_startproc
# BB#0:                                 # %entry
	pushq	%rbp
.Ltmp16:
	.cfi_def_cfa_offset 16
.Ltmp17:
	.cfi_offset %rbp, -16
	movq	%rsp, %rbp
.Ltmp18:
	.cfi_def_cfa_register %rbp
	subq	$176, %rsp
	movq	%rdi, -16(%rbp)
	movq	%rsi, -24(%rbp)
	movq	%rdx, -32(%rbp)
	movl	%ecx, -36(%rbp)
	movb	$0, -46(%rbp)
.LBB5_1:                                # %while.cond
                                        # =>This Inner Loop Header: Depth=1
	movq	-16(%rbp), %rax
	cmpq	-24(%rbp), %rax
	jae	.LBB5_143
# BB#2:                                 # %while.body
                                        #   in Loop: Header=BB5_1 Depth=1
	movq	-16(%rbp), %rax
	movq	%rax, -56(%rbp)
	movq	-16(%rbp), %rax
	movq	%rax, %rcx
	incq	%rcx
	movq	%rcx, -16(%rbp)
	movzbl	(%rax), %edx
	movl	%edx, %eax
	movq	%rax, %rcx
	subq	$34, %rcx
	movq	%rax, -88(%rbp)         # 8-byte Spill
	movq	%rcx, -96(%rbp)         # 8-byte Spill
	ja	.LBB5_141
# BB#145:                               # %while.body
                                        #   in Loop: Header=BB5_1 Depth=1
	movq	-88(%rbp), %rax         # 8-byte Reload
	movq	.LJTI5_0(,%rax,8), %rcx
	jmpq	*%rcx
.LBB5_3:                                # %sw.bb
	movl	$1, -4(%rbp)
	jmp	.LBB5_144
.LBB5_4:                                # %sw.bb.1
                                        #   in Loop: Header=BB5_1 Depth=1
	movq	-16(%rbp), %rax
	addq	$1, %rax
	movq	%rax, -16(%rbp)
	jmp	.LBB5_1
.LBB5_5:                                # %sw.bb.3
	cmpq	$0, -32(%rbp)
	je	.LBB5_29
# BB#6:                                 # %if.then
	movq	-16(%rbp), %rax
	movzbl	1(%rax), %ecx
	movl	%ecx, %eax
	movq	-32(%rbp), %rdx
	movb	$1, (%rdx,%rax)
	cmpl	$0, -36(%rbp)
	jne	.LBB5_28
# BB#7:                                 # %if.then.6
	movb	$1, %al
	testb	$1, %al
	jne	.LBB5_8
	jmp	.LBB5_9
.LBB5_8:                                # %cond.true
	movq	-16(%rbp), %rax
	movzbl	1(%rax), %ecx
	addl	$0, %ecx
	cmpl	$128, %ecx
	jb	.LBB5_10
	jmp	.LBB5_11
.LBB5_9:                                # %cond.false
	movq	-16(%rbp), %rax
	movzbl	1(%rax), %ecx
	movl	%ecx, %eax
	addq	$0, %rax
	cmpq	$128, %rax
	jae	.LBB5_11
.LBB5_10:                               # %cond.true.16
	movq	-16(%rbp), %rax
	movzbl	1(%rax), %ecx
	movl	%ecx, -100(%rbp)        # 4-byte Spill
	jmp	.LBB5_12
.LBB5_11:                               # %cond.false.19
	movq	-16(%rbp), %rax
	movzbl	1(%rax), %ecx
	addl	$4194048, %ecx          # imm = 0x3FFF00
	movl	%ecx, -100(%rbp)        # 4-byte Spill
.LBB5_12:                               # %cond.end
	movl	-100(%rbp), %eax        # 4-byte Reload
	movl	%eax, -60(%rbp)
	cmpl	$127, -60(%rbp)
	jg	.LBB5_14
# BB#13:                                # %cond.true.25
	movl	-60(%rbp), %eax
	movl	%eax, -104(%rbp)        # 4-byte Spill
	jmp	.LBB5_27
.LBB5_14:                               # %cond.false.26
	cmpl	$2047, -60(%rbp)        # imm = 0x7FF
	jg	.LBB5_16
# BB#15:                                # %cond.true.29
	movl	-60(%rbp), %eax
	sarl	$6, %eax
	orl	$192, %eax
	movl	%eax, -108(%rbp)        # 4-byte Spill
	jmp	.LBB5_26
.LBB5_16:                               # %cond.false.30
	cmpl	$65535, -60(%rbp)       # imm = 0xFFFF
	jg	.LBB5_18
# BB#17:                                # %cond.true.33
	movl	-60(%rbp), %eax
	sarl	$12, %eax
	orl	$224, %eax
	movl	%eax, -112(%rbp)        # 4-byte Spill
	jmp	.LBB5_25
.LBB5_18:                               # %cond.false.36
	cmpl	$2097151, -60(%rbp)     # imm = 0x1FFFFF
	jg	.LBB5_20
# BB#19:                                # %cond.true.39
	movl	-60(%rbp), %eax
	sarl	$18, %eax
	orl	$240, %eax
	movl	%eax, -116(%rbp)        # 4-byte Spill
	jmp	.LBB5_24
.LBB5_20:                               # %cond.false.42
	cmpl	$4194175, -60(%rbp)     # imm = 0x3FFF7F
	jg	.LBB5_22
# BB#21:                                # %cond.true.45
	movl	$248, %eax
	movl	%eax, -120(%rbp)        # 4-byte Spill
	jmp	.LBB5_23
.LBB5_22:                               # %cond.false.46
	movl	-60(%rbp), %eax
	sarl	$6, %eax
	andl	$1, %eax
	orl	$192, %eax
	movl	%eax, -120(%rbp)        # 4-byte Spill
.LBB5_23:                               # %cond.end.49
	movl	-120(%rbp), %eax        # 4-byte Reload
	movl	%eax, -116(%rbp)        # 4-byte Spill
.LBB5_24:                               # %cond.end.51
	movl	-116(%rbp), %eax        # 4-byte Reload
	movl	%eax, -112(%rbp)        # 4-byte Spill
.LBB5_25:                               # %cond.end.53
	movl	-112(%rbp), %eax        # 4-byte Reload
	movl	%eax, -108(%rbp)        # 4-byte Spill
.LBB5_26:                               # %cond.end.55
	movl	-108(%rbp), %eax        # 4-byte Reload
	movl	%eax, -104(%rbp)        # 4-byte Spill
.LBB5_27:                               # %cond.end.57
	movl	-104(%rbp), %eax        # 4-byte Reload
	movslq	%eax, %rcx
	movq	-32(%rbp), %rdx
	movb	$1, (%rdx,%rcx)
.LBB5_28:                               # %if.end
	jmp	.LBB5_29
.LBB5_29:                               # %if.end.61
	jmp	.LBB5_142
.LBB5_30:                               # %sw.bb.62
	cmpq	$0, -32(%rbp)
	jne	.LBB5_32
# BB#31:                                # %if.then.64
	jmp	.LBB5_142
.LBB5_32:                               # %if.end.65
	movl	$-1, -4(%rbp)
	jmp	.LBB5_144
.LBB5_33:                               # %sw.bb.66
	cmpq	$0, -32(%rbp)
	jne	.LBB5_35
# BB#34:                                # %if.then.68
	jmp	.LBB5_142
.LBB5_35:                               # %if.end.69
	movq	-16(%rbp), %rax
	movzbl	(%rax), %ecx
	andl	$127, %ecx
	shll	$3, %ecx
	movl	%ecx, -40(%rbp)
.LBB5_36:                               # %for.cond
                                        # =>This Inner Loop Header: Depth=1
	cmpl	$256, -40(%rbp)         # imm = 0x100
	jge	.LBB5_39
# BB#37:                                # %for.body
                                        #   in Loop: Header=BB5_36 Depth=1
	movslq	-40(%rbp), %rax
	movq	-32(%rbp), %rcx
	movb	$1, (%rcx,%rax)
# BB#38:                                # %for.inc
                                        #   in Loop: Header=BB5_36 Depth=1
	movl	-40(%rbp), %eax
	addl	$1, %eax
	movl	%eax, -40(%rbp)
	jmp	.LBB5_36
.LBB5_39:                               # %for.end
	jmp	.LBB5_40
.LBB5_40:                               # %sw.bb.78
	cmpq	$0, -32(%rbp)
	jne	.LBB5_42
# BB#41:                                # %if.then.80
	jmp	.LBB5_142
.LBB5_42:                               # %if.end.81
	movq	-16(%rbp), %rax
	movzbl	-1(%rax), %ecx
	cmpl	$5, %ecx
	sete	%dl
	andb	$1, %dl
	movzbl	%dl, %ecx
	movb	%cl, %dl
	movb	%dl, -45(%rbp)
	movq	-16(%rbp), %rax
	movzbl	(%rax), %ecx
	andl	$127, %ecx
	shll	$3, %ecx
	subl	$1, %ecx
	movl	%ecx, -40(%rbp)
	movq	-16(%rbp), %rax
	addq	$1, %rax
	movq	%rax, -16(%rbp)
.LBB5_43:                               # %for.cond.92
                                        # =>This Inner Loop Header: Depth=1
	cmpl	$0, -40(%rbp)
	jl	.LBB5_48
# BB#44:                                # %for.body.95
                                        #   in Loop: Header=BB5_43 Depth=1
	movl	$1, %eax
	movl	$8, %ecx
	movl	-40(%rbp), %edx
	movl	%eax, -124(%rbp)        # 4-byte Spill
	movl	%edx, %eax
	cltd
	idivl	%ecx
	movslq	%eax, %rsi
	movq	-16(%rbp), %rdi
	movzbl	(%rdi,%rsi), %eax
	movl	-40(%rbp), %r8d
	movl	%eax, -128(%rbp)        # 4-byte Spill
	movl	%r8d, %eax
	cltd
	idivl	%ecx
	movl	%edx, %ecx
                                        # kill: CL<def> ECX<kill>
	movl	-124(%rbp), %edx        # 4-byte Reload
	shll	%cl, %edx
	movl	-128(%rbp), %r8d        # 4-byte Reload
	andl	%edx, %r8d
	cmpl	$0, %r8d
	setne	%cl
	xorb	$-1, %cl
	xorb	$-1, %cl
	andb	$1, %cl
	movzbl	%cl, %edx
	movsbl	-45(%rbp), %r8d
	xorl	%r8d, %edx
	cmpl	$0, %edx
	je	.LBB5_46
# BB#45:                                # %if.then.104
                                        #   in Loop: Header=BB5_43 Depth=1
	movslq	-40(%rbp), %rax
	movq	-32(%rbp), %rcx
	movb	$1, (%rcx,%rax)
.LBB5_46:                               # %if.end.107
                                        #   in Loop: Header=BB5_43 Depth=1
	jmp	.LBB5_47
.LBB5_47:                               # %for.inc.108
                                        #   in Loop: Header=BB5_43 Depth=1
	movl	-40(%rbp), %eax
	addl	$-1, %eax
	movl	%eax, -40(%rbp)
	jmp	.LBB5_43
.LBB5_48:                               # %for.end.109
	movsbl	-45(%rbp), %eax
	cmpl	$0, %eax
	jne	.LBB5_51
# BB#49:                                # %lor.lhs.false
	movq	-16(%rbp), %rax
	movzbl	-1(%rax), %ecx
	andl	$128, %ecx
	cmpl	$0, %ecx
	je	.LBB5_58
# BB#50:                                # %land.lhs.true
	movq	-16(%rbp), %rax
	movzbl	-1(%rax), %ecx
	andl	$127, %ecx
	addl	$2, %ecx
	movslq	%ecx, %rax
	movq	-16(%rbp), %rdx
	movzbl	-2(%rdx,%rax), %ecx
	movq	-16(%rbp), %rax
	movzbl	-1(%rax), %esi
	andl	$127, %esi
	addl	$3, %esi
	movslq	%esi, %rax
	movq	-16(%rbp), %rdx
	movzbl	-2(%rdx,%rax), %esi
	shll	$8, %esi
	addl	%esi, %ecx
	cmpl	$0, %ecx
	je	.LBB5_58
.LBB5_51:                               # %if.then.139
	movsbl	-46(%rbp), %eax
	cmpl	$0, %eax
	jne	.LBB5_57
# BB#52:                                # %if.then.143
	movl	$192, -40(%rbp)
.LBB5_53:                               # %for.cond.144
                                        # =>This Inner Loop Header: Depth=1
	cmpl	$248, -40(%rbp)
	jg	.LBB5_56
# BB#54:                                # %for.body.147
                                        #   in Loop: Header=BB5_53 Depth=1
	movslq	-40(%rbp), %rax
	movq	-32(%rbp), %rcx
	movb	$1, (%rcx,%rax)
# BB#55:                                # %for.inc.150
                                        #   in Loop: Header=BB5_53 Depth=1
	movl	-40(%rbp), %eax
	addl	$1, %eax
	movl	%eax, -40(%rbp)
	jmp	.LBB5_53
.LBB5_56:                               # %for.end.152
	movb	$1, -46(%rbp)
.LBB5_57:                               # %if.end.153
	jmp	.LBB5_105
.LBB5_58:                               # %if.else
	cmpb	$0, -45(%rbp)
	jne	.LBB5_104
# BB#59:                                # %land.lhs.true.155
	movq	-16(%rbp), %rax
	movzbl	-1(%rax), %ecx
	andl	$128, %ecx
	cmpl	$0, %ecx
	je	.LBB5_104
# BB#60:                                # %land.lhs.true.161
	movsbl	-46(%rbp), %eax
	cmpl	$0, %eax
	jne	.LBB5_104
# BB#61:                                # %if.then.165
	leaq	-16(%rbp), %rdi
	movq	-16(%rbp), %rax
	movzbl	-1(%rax), %ecx
	andl	$127, %ecx
	addl	$2, %ecx
	movq	-16(%rbp), %rax
	movslq	%ecx, %rdx
	addq	%rdx, %rax
	movq	%rax, -16(%rbp)
	callq	extract_number_and_incr
	movl	%eax, -68(%rbp)
.LBB5_62:                               # %for.cond.173
                                        # =>This Loop Header: Depth=1
                                        #     Child Loop BB5_98 Depth 2
	cmpl	$0, -68(%rbp)
	jle	.LBB5_103
# BB#63:                                # %for.body.176
                                        #   in Loop: Header=BB5_62 Depth=1
	jmp	.LBB5_64
.LBB5_64:                               # %do.body
                                        #   in Loop: Header=BB5_62 Depth=1
	movq	-16(%rbp), %rax
	movzbl	(%rax), %ecx
	movq	-16(%rbp), %rax
	movzbl	1(%rax), %edx
	shll	$8, %edx
	orl	%edx, %ecx
	movq	-16(%rbp), %rax
	movzbl	2(%rax), %edx
	shll	$16, %edx
	orl	%edx, %ecx
	movl	%ecx, -64(%rbp)
# BB#65:                                # %do.end
                                        #   in Loop: Header=BB5_62 Depth=1
	cmpl	$127, -64(%rbp)
	jg	.LBB5_67
# BB#66:                                # %cond.true.189
                                        #   in Loop: Header=BB5_62 Depth=1
	movl	-64(%rbp), %eax
	movl	%eax, -132(%rbp)        # 4-byte Spill
	jmp	.LBB5_80
.LBB5_67:                               # %cond.false.190
                                        #   in Loop: Header=BB5_62 Depth=1
	cmpl	$2047, -64(%rbp)        # imm = 0x7FF
	jg	.LBB5_69
# BB#68:                                # %cond.true.193
                                        #   in Loop: Header=BB5_62 Depth=1
	movl	-64(%rbp), %eax
	sarl	$6, %eax
	orl	$192, %eax
	movl	%eax, -136(%rbp)        # 4-byte Spill
	jmp	.LBB5_79
.LBB5_69:                               # %cond.false.196
                                        #   in Loop: Header=BB5_62 Depth=1
	cmpl	$65535, -64(%rbp)       # imm = 0xFFFF
	jg	.LBB5_71
# BB#70:                                # %cond.true.199
                                        #   in Loop: Header=BB5_62 Depth=1
	movl	-64(%rbp), %eax
	sarl	$12, %eax
	orl	$224, %eax
	movl	%eax, -140(%rbp)        # 4-byte Spill
	jmp	.LBB5_78
.LBB5_71:                               # %cond.false.202
                                        #   in Loop: Header=BB5_62 Depth=1
	cmpl	$2097151, -64(%rbp)     # imm = 0x1FFFFF
	jg	.LBB5_73
# BB#72:                                # %cond.true.205
                                        #   in Loop: Header=BB5_62 Depth=1
	movl	-64(%rbp), %eax
	sarl	$18, %eax
	orl	$240, %eax
	movl	%eax, -144(%rbp)        # 4-byte Spill
	jmp	.LBB5_77
.LBB5_73:                               # %cond.false.208
                                        #   in Loop: Header=BB5_62 Depth=1
	cmpl	$4194175, -64(%rbp)     # imm = 0x3FFF7F
	jg	.LBB5_75
# BB#74:                                # %cond.true.211
                                        #   in Loop: Header=BB5_62 Depth=1
	movl	$248, %eax
	movl	%eax, -148(%rbp)        # 4-byte Spill
	jmp	.LBB5_76
.LBB5_75:                               # %cond.false.212
                                        #   in Loop: Header=BB5_62 Depth=1
	movl	-64(%rbp), %eax
	sarl	$6, %eax
	andl	$1, %eax
	orl	$192, %eax
	movl	%eax, -148(%rbp)        # 4-byte Spill
.LBB5_76:                               # %cond.end.216
                                        #   in Loop: Header=BB5_62 Depth=1
	movl	-148(%rbp), %eax        # 4-byte Reload
	movl	%eax, -144(%rbp)        # 4-byte Spill
.LBB5_77:                               # %cond.end.218
                                        #   in Loop: Header=BB5_62 Depth=1
	movl	-144(%rbp), %eax        # 4-byte Reload
	movl	%eax, -140(%rbp)        # 4-byte Spill
.LBB5_78:                               # %cond.end.220
                                        #   in Loop: Header=BB5_62 Depth=1
	movl	-140(%rbp), %eax        # 4-byte Reload
	movl	%eax, -136(%rbp)        # 4-byte Spill
.LBB5_79:                               # %cond.end.222
                                        #   in Loop: Header=BB5_62 Depth=1
	movl	-136(%rbp), %eax        # 4-byte Reload
	movl	%eax, -132(%rbp)        # 4-byte Spill
.LBB5_80:                               # %cond.end.224
                                        #   in Loop: Header=BB5_62 Depth=1
	movl	-132(%rbp), %eax        # 4-byte Reload
	movb	%al, %cl
	movb	%cl, -69(%rbp)
	movq	-16(%rbp), %rdx
	addq	$3, %rdx
	movq	%rdx, -16(%rbp)
# BB#81:                                # %do.body.228
                                        #   in Loop: Header=BB5_62 Depth=1
	movq	-16(%rbp), %rax
	movzbl	(%rax), %ecx
	movq	-16(%rbp), %rax
	movzbl	1(%rax), %edx
	shll	$8, %edx
	orl	%edx, %ecx
	movq	-16(%rbp), %rax
	movzbl	2(%rax), %edx
	shll	$16, %edx
	orl	%edx, %ecx
	movl	%ecx, -64(%rbp)
# BB#82:                                # %do.end.239
                                        #   in Loop: Header=BB5_62 Depth=1
	cmpl	$127, -64(%rbp)
	jg	.LBB5_84
# BB#83:                                # %cond.true.242
                                        #   in Loop: Header=BB5_62 Depth=1
	movl	-64(%rbp), %eax
	movl	%eax, -152(%rbp)        # 4-byte Spill
	jmp	.LBB5_97
.LBB5_84:                               # %cond.false.243
                                        #   in Loop: Header=BB5_62 Depth=1
	cmpl	$2047, -64(%rbp)        # imm = 0x7FF
	jg	.LBB5_86
# BB#85:                                # %cond.true.246
                                        #   in Loop: Header=BB5_62 Depth=1
	movl	-64(%rbp), %eax
	sarl	$6, %eax
	orl	$192, %eax
	movl	%eax, -156(%rbp)        # 4-byte Spill
	jmp	.LBB5_96
.LBB5_86:                               # %cond.false.249
                                        #   in Loop: Header=BB5_62 Depth=1
	cmpl	$65535, -64(%rbp)       # imm = 0xFFFF
	jg	.LBB5_88
# BB#87:                                # %cond.true.252
                                        #   in Loop: Header=BB5_62 Depth=1
	movl	-64(%rbp), %eax
	sarl	$12, %eax
	orl	$224, %eax
	movl	%eax, -160(%rbp)        # 4-byte Spill
	jmp	.LBB5_95
.LBB5_88:                               # %cond.false.255
                                        #   in Loop: Header=BB5_62 Depth=1
	cmpl	$2097151, -64(%rbp)     # imm = 0x1FFFFF
	jg	.LBB5_90
# BB#89:                                # %cond.true.258
                                        #   in Loop: Header=BB5_62 Depth=1
	movl	-64(%rbp), %eax
	sarl	$18, %eax
	orl	$240, %eax
	movl	%eax, -164(%rbp)        # 4-byte Spill
	jmp	.LBB5_94
.LBB5_90:                               # %cond.false.261
                                        #   in Loop: Header=BB5_62 Depth=1
	cmpl	$4194175, -64(%rbp)     # imm = 0x3FFF7F
	jg	.LBB5_92
# BB#91:                                # %cond.true.264
                                        #   in Loop: Header=BB5_62 Depth=1
	movl	$248, %eax
	movl	%eax, -168(%rbp)        # 4-byte Spill
	jmp	.LBB5_93
.LBB5_92:                               # %cond.false.265
                                        #   in Loop: Header=BB5_62 Depth=1
	movl	-64(%rbp), %eax
	sarl	$6, %eax
	andl	$1, %eax
	orl	$192, %eax
	movl	%eax, -168(%rbp)        # 4-byte Spill
.LBB5_93:                               # %cond.end.269
                                        #   in Loop: Header=BB5_62 Depth=1
	movl	-168(%rbp), %eax        # 4-byte Reload
	movl	%eax, -164(%rbp)        # 4-byte Spill
.LBB5_94:                               # %cond.end.271
                                        #   in Loop: Header=BB5_62 Depth=1
	movl	-164(%rbp), %eax        # 4-byte Reload
	movl	%eax, -160(%rbp)        # 4-byte Spill
.LBB5_95:                               # %cond.end.273
                                        #   in Loop: Header=BB5_62 Depth=1
	movl	-160(%rbp), %eax        # 4-byte Reload
	movl	%eax, -156(%rbp)        # 4-byte Spill
.LBB5_96:                               # %cond.end.275
                                        #   in Loop: Header=BB5_62 Depth=1
	movl	-156(%rbp), %eax        # 4-byte Reload
	movl	%eax, -152(%rbp)        # 4-byte Spill
.LBB5_97:                               # %cond.end.277
                                        #   in Loop: Header=BB5_62 Depth=1
	movl	-152(%rbp), %eax        # 4-byte Reload
	movb	%al, %cl
	movb	%cl, -70(%rbp)
	movzbl	-69(%rbp), %eax
	movl	%eax, -40(%rbp)
.LBB5_98:                               # %for.cond.281
                                        #   Parent Loop BB5_62 Depth=1
                                        # =>  This Inner Loop Header: Depth=2
	movl	-40(%rbp), %eax
	movzbl	-70(%rbp), %ecx
	cmpl	%ecx, %eax
	jg	.LBB5_101
# BB#99:                                # %for.body.285
                                        #   in Loop: Header=BB5_98 Depth=2
	movslq	-40(%rbp), %rax
	movq	-32(%rbp), %rcx
	movb	$1, (%rcx,%rax)
# BB#100:                               # %for.inc.288
                                        #   in Loop: Header=BB5_98 Depth=2
	movl	-40(%rbp), %eax
	addl	$1, %eax
	movl	%eax, -40(%rbp)
	jmp	.LBB5_98
.LBB5_101:                              # %for.end.290
                                        #   in Loop: Header=BB5_62 Depth=1
	jmp	.LBB5_102
.LBB5_102:                              # %for.inc.291
                                        #   in Loop: Header=BB5_62 Depth=1
	movl	-68(%rbp), %eax
	addl	$-1, %eax
	movl	%eax, -68(%rbp)
	movq	-16(%rbp), %rcx
	addq	$3, %rcx
	movq	%rcx, -16(%rbp)
	jmp	.LBB5_62
.LBB5_103:                              # %for.end.294
	jmp	.LBB5_104
.LBB5_104:                              # %if.end.295
	jmp	.LBB5_105
.LBB5_105:                              # %if.end.296
	jmp	.LBB5_142
.LBB5_106:                              # %sw.bb.297
	cmpq	$0, -32(%rbp)
	jne	.LBB5_108
# BB#107:                               # %if.then.299
	jmp	.LBB5_142
.LBB5_108:                              # %if.end.300
	movl	$-1, -4(%rbp)
	jmp	.LBB5_144
.LBB5_109:                              # %sw.bb.301
	cmpq	$0, -32(%rbp)
	jne	.LBB5_111
# BB#110:                               # %if.then.303
	jmp	.LBB5_142
.LBB5_111:                              # %if.end.304
	movq	-16(%rbp), %rax
	movzbl	-1(%rax), %ecx
	cmpl	$34, %ecx
	sete	%dl
	andb	$1, %dl
	movzbl	%dl, %ecx
	movb	%cl, %dl
	movb	%dl, -45(%rbp)
	movq	-16(%rbp), %rax
	movq	%rax, %rsi
	addq	$1, %rsi
	movq	%rsi, -16(%rbp)
	movzbl	(%rax), %ecx
	movl	%ecx, -44(%rbp)
	movl	$256, -40(%rbp)         # imm = 0x100
.LBB5_112:                              # %for.cond.312
                                        # =>This Inner Loop Header: Depth=1
	cmpl	$0, -40(%rbp)
	jl	.LBB5_117
# BB#113:                               # %for.body.315
                                        #   in Loop: Header=BB5_112 Depth=1
	movl	-40(%rbp), %edi
	movl	-44(%rbp), %esi
	callq	CHAR_HAS_CATEGORY
	andb	$1, %al
	movzbl	%al, %esi
	movsbl	-45(%rbp), %edi
	xorl	%edi, %esi
	cmpl	$0, %esi
	je	.LBB5_115
# BB#114:                               # %if.then.321
                                        #   in Loop: Header=BB5_112 Depth=1
	movslq	-40(%rbp), %rax
	movq	-32(%rbp), %rcx
	movb	$1, (%rcx,%rax)
.LBB5_115:                              # %if.end.324
                                        #   in Loop: Header=BB5_112 Depth=1
	jmp	.LBB5_116
.LBB5_116:                              # %for.inc.325
                                        #   in Loop: Header=BB5_112 Depth=1
	movl	-40(%rbp), %eax
	addl	$-1, %eax
	movl	%eax, -40(%rbp)
	jmp	.LBB5_112
.LBB5_117:                              # %for.end.327
	movsbl	-46(%rbp), %eax
	cmpl	$0, %eax
	jne	.LBB5_123
# BB#118:                               # %if.then.331
	movl	$192, -40(%rbp)
.LBB5_119:                              # %for.cond.332
                                        # =>This Inner Loop Header: Depth=1
	cmpl	$248, -40(%rbp)
	jg	.LBB5_122
# BB#120:                               # %for.body.335
                                        #   in Loop: Header=BB5_119 Depth=1
	movslq	-40(%rbp), %rax
	movq	-32(%rbp), %rcx
	movb	$1, (%rcx,%rax)
# BB#121:                               # %for.inc.338
                                        #   in Loop: Header=BB5_119 Depth=1
	movl	-40(%rbp), %eax
	addl	$1, %eax
	movl	%eax, -40(%rbp)
	jmp	.LBB5_119
.LBB5_122:                              # %for.end.340
	movb	$1, -46(%rbp)
.LBB5_123:                              # %if.end.341
	jmp	.LBB5_142
.LBB5_124:                              # %sw.bb.342
                                        #   in Loop: Header=BB5_1 Depth=1
	jmp	.LBB5_1
.LBB5_125:                              # %sw.bb.343
                                        #   in Loop: Header=BB5_1 Depth=1
	leaq	-16(%rbp), %rdi
	callq	extract_number_and_incr
	movl	%eax, -40(%rbp)
	cmpl	$0, -40(%rbp)
	jge	.LBB5_127
# BB#126:                               # %if.then.347
	jmp	.LBB5_142
.LBB5_127:                              # %if.end.348
                                        #   in Loop: Header=BB5_1 Depth=1
	movq	-16(%rbp), %rax
	movslq	-40(%rbp), %rcx
	movq	%rax, %rdx
	addq	%rcx, %rdx
	movq	%rdx, -16(%rbp)
	movzbl	(%rax,%rcx), %esi
	addl	$-14, %esi
	subl	$4, %esi
	movl	%esi, -172(%rbp)        # 4-byte Spill
	ja	.LBB5_129
	jmp	.LBB5_128
.LBB5_128:                              # %sw.bb.352
                                        #   in Loop: Header=BB5_1 Depth=1
	movq	-16(%rbp), %rax
	addq	$1, %rax
	movq	%rax, -16(%rbp)
	jmp	.LBB5_130
.LBB5_129:                              # %sw.default
                                        #   in Loop: Header=BB5_1 Depth=1
	jmp	.LBB5_1
.LBB5_130:                              # %sw.epilog
                                        #   in Loop: Header=BB5_1 Depth=1
	jmp	.LBB5_131
.LBB5_131:                              # %sw.bb.354
                                        #   in Loop: Header=BB5_1 Depth=1
	leaq	-16(%rbp), %rdi
	callq	extract_number_and_incr
	movl	%eax, -40(%rbp)
	movq	-16(%rbp), %rdi
	movslq	-40(%rbp), %rcx
	addq	%rcx, %rdi
	cmpq	-56(%rbp), %rdi
	ja	.LBB5_133
# BB#132:                               # %if.then.360
                                        #   in Loop: Header=BB5_1 Depth=1
	jmp	.LBB5_136
.LBB5_133:                              # %if.else.361
                                        #   in Loop: Header=BB5_1 Depth=1
	movq	-16(%rbp), %rdi
	movq	-24(%rbp), %rsi
	movq	-32(%rbp), %rdx
	movl	-36(%rbp), %ecx
	callq	analyze_first
	movl	%eax, -76(%rbp)
	cmpl	$0, -76(%rbp)
	je	.LBB5_135
# BB#134:                               # %if.then.364
	movl	-76(%rbp), %eax
	movl	%eax, -4(%rbp)
	jmp	.LBB5_144
.LBB5_135:                              # %if.end.365
                                        #   in Loop: Header=BB5_1 Depth=1
	movl	-40(%rbp), %eax
	movq	-16(%rbp), %rcx
	movslq	%eax, %rdx
	addq	%rdx, %rcx
	movq	%rcx, -16(%rbp)
.LBB5_136:                              # %if.end.368
                                        #   in Loop: Header=BB5_1 Depth=1
	jmp	.LBB5_1
.LBB5_137:                              # %sw.bb.369
                                        #   in Loop: Header=BB5_1 Depth=1
	movq	-16(%rbp), %rax
	addq	$4, %rax
	movq	%rax, -16(%rbp)
	jmp	.LBB5_1
.LBB5_138:                              # %sw.bb.371
                                        #   in Loop: Header=BB5_1 Depth=1
	movq	-16(%rbp), %rax
	addq	$4, %rax
	movq	%rax, -16(%rbp)
	jmp	.LBB5_1
.LBB5_139:                              # %sw.bb.373
                                        #   in Loop: Header=BB5_1 Depth=1
	movq	-16(%rbp), %rax
	addq	$4, %rax
	movq	%rax, -16(%rbp)
	jmp	.LBB5_1
.LBB5_140:                              # %sw.bb.375
                                        #   in Loop: Header=BB5_1 Depth=1
	movq	-16(%rbp), %rax
	addq	$1, %rax
	movq	%rax, -16(%rbp)
	jmp	.LBB5_1
.LBB5_141:                              # %sw.default.377
	callq	abort
.LBB5_142:                              # %sw.epilog.378
	movl	$0, -4(%rbp)
	jmp	.LBB5_144
.LBB5_143:                              # %while.end
	movl	$1, -4(%rbp)
.LBB5_144:                              # %return
	movl	-4(%rbp), %eax
	addq	$176, %rsp
	popq	%rbp
	retq
.Lfunc_end5:
	.size	analyze_first, .Lfunc_end5-analyze_first
	.cfi_endproc
	.section	.rodata,"a",@progbits
	.align	8
.LJTI5_0:
	.quad	.LBB5_124
	.quad	.LBB5_3
	.quad	.LBB5_5
	.quad	.LBB5_30
	.quad	.LBB5_40
	.quad	.LBB5_33
	.quad	.LBB5_140
	.quad	.LBB5_140
	.quad	.LBB5_4
	.quad	.LBB5_124
	.quad	.LBB5_124
	.quad	.LBB5_124
	.quad	.LBB5_124
	.quad	.LBB5_125
	.quad	.LBB5_131
	.quad	.LBB5_131
	.quad	.LBB5_131
	.quad	.LBB5_131
	.quad	.LBB5_131
	.quad	.LBB5_138
	.quad	.LBB5_137
	.quad	.LBB5_139
	.quad	.LBB5_124
	.quad	.LBB5_124
	.quad	.LBB5_124
	.quad	.LBB5_124
	.quad	.LBB5_124
	.quad	.LBB5_124
	.quad	.LBB5_106
	.quad	.LBB5_106
	.quad	.LBB5_124
	.quad	.LBB5_124
	.quad	.LBB5_124
	.quad	.LBB5_109
	.quad	.LBB5_109

	.text
	.globl	re_set_registers
	.align	16, 0x90
	.type	re_set_registers,@function
re_set_registers:                       # @re_set_registers
	.cfi_startproc
# BB#0:                                 # %entry
	pushq	%rbp
.Ltmp19:
	.cfi_def_cfa_offset 16
.Ltmp20:
	.cfi_offset %rbp, -16
	movq	%rsp, %rbp
.Ltmp21:
	.cfi_def_cfa_register %rbp
	movq	%rdi, -8(%rbp)
	movq	%rsi, -16(%rbp)
	movl	%edx, -20(%rbp)
	movq	%rcx, -32(%rbp)
	movq	%r8, -40(%rbp)
	cmpl	$0, -20(%rbp)
	je	.LBB6_2
# BB#1:                                 # %if.then
	movq	-8(%rbp), %rax
	movw	56(%rax), %cx
	andw	$-7, %cx
	orw	$2, %cx
	movw	%cx, 56(%rax)
	movl	-20(%rbp), %edx
	movq	-16(%rbp), %rax
	movl	%edx, (%rax)
	movq	-32(%rbp), %rax
	movq	-16(%rbp), %rsi
	movq	%rax, 8(%rsi)
	movq	-40(%rbp), %rax
	movq	-16(%rbp), %rsi
	movq	%rax, 16(%rsi)
	jmp	.LBB6_3
.LBB6_2:                                # %if.else
	movq	-8(%rbp), %rax
	movw	56(%rax), %cx
	andw	$-7, %cx
	movw	%cx, 56(%rax)
	movq	-16(%rbp), %rax
	movl	$0, (%rax)
	movq	-16(%rbp), %rax
	movq	$0, 16(%rax)
	movq	-16(%rbp), %rax
	movq	$0, 8(%rax)
.LBB6_3:                                # %if.end
	popq	%rbp
	retq
.Lfunc_end6:
	.size	re_set_registers, .Lfunc_end6-re_set_registers
	.cfi_endproc

	.globl	re_search
	.align	16, 0x90
	.type	re_search,@function
re_search:                              # @re_search
	.cfi_startproc
# BB#0:                                 # %entry
	pushq	%rbp
.Ltmp22:
	.cfi_def_cfa_offset 16
.Ltmp23:
	.cfi_offset %rbp, -16
	movq	%rsp, %rbp
.Ltmp24:
	.cfi_def_cfa_register %rbp
	subq	$96, %rsp
	xorl	%eax, %eax
	movl	%eax, %r10d
	movq	%rdi, -8(%rbp)
	movq	%rsi, -16(%rbp)
	movq	%rdx, -24(%rbp)
	movq	%rcx, -32(%rbp)
	movq	%r8, -40(%rbp)
	movq	%r9, -48(%rbp)
	movq	-8(%rbp), %rdi
	movq	-16(%rbp), %rcx
	movq	-24(%rbp), %r8
	movq	-32(%rbp), %r9
	movq	-40(%rbp), %rdx
	movq	-48(%rbp), %rsi
	movq	-24(%rbp), %r11
	movq	%rsi, -56(%rbp)         # 8-byte Spill
	movq	%r10, %rsi
	movq	%rdx, -64(%rbp)         # 8-byte Spill
	movq	%r10, %rdx
	movq	-64(%rbp), %r10         # 8-byte Reload
	movq	%r10, (%rsp)
	movq	-56(%rbp), %r10         # 8-byte Reload
	movq	%r10, 8(%rsp)
	movq	%r11, 16(%rsp)
	callq	re_search_2
	addq	$96, %rsp
	popq	%rbp
	retq
.Lfunc_end7:
	.size	re_search, .Lfunc_end7-re_search
	.cfi_endproc

	.globl	re_search_2
	.align	16, 0x90
	.type	re_search_2,@function
re_search_2:                            # @re_search_2
	.cfi_startproc
# BB#0:                                 # %entry
	pushq	%rbp
.Ltmp25:
	.cfi_def_cfa_offset 16
.Ltmp26:
	.cfi_offset %rbp, -16
	movq	%rsp, %rbp
.Ltmp27:
	.cfi_def_cfa_register %rbp
	pushq	%r15
	pushq	%r14
	pushq	%rbx
	subq	$520, %rsp              # imm = 0x208
.Ltmp28:
	.cfi_offset %rbx, -40
.Ltmp29:
	.cfi_offset %r14, -32
.Ltmp30:
	.cfi_offset %r15, -24
	movq	32(%rbp), %rax
	movq	24(%rbp), %r10
	movq	16(%rbp), %r11
	movq	%rdi, -40(%rbp)
	movq	%rsi, -48(%rbp)
	movq	%rdx, -56(%rbp)
	movq	%rcx, -64(%rbp)
	movq	%r8, -72(%rbp)
	movq	%r9, -80(%rbp)
	movq	%r11, -88(%rbp)
	movq	%r10, -96(%rbp)
	movq	%rax, -104(%rbp)
	movq	-48(%rbp), %rax
	movq	%rax, -120(%rbp)
	movq	-64(%rbp), %rax
	movq	%rax, -128(%rbp)
	movq	-40(%rbp), %rax
	movq	32(%rax), %rax
	movq	%rax, -136(%rbp)
	movq	-40(%rbp), %rax
	movq	40(%rax), %rax
	movq	%rax, -144(%rbp)
	movq	-56(%rbp), %rax
	addq	-72(%rbp), %rax
	movq	%rax, -152(%rbp)
	movq	-80(%rbp), %rax
	addq	-88(%rbp), %rax
	movq	%rax, -160(%rbp)
	movq	-40(%rbp), %rax
	movw	56(%rax), %bx
	shrw	$9, %bx
	andw	$1, %bx
	movzwl	%bx, %r14d
	movb	%r14b, %r15b
	movb	%r15b, -162(%rbp)
	cmpq	$0, -80(%rbp)
	jl	.LBB8_2
# BB#1:                                 # %lor.lhs.false
	movq	-80(%rbp), %rax
	cmpq	-152(%rbp), %rax
	jbe	.LBB8_3
.LBB8_2:                                # %if.then
	movq	$-1, -32(%rbp)
	jmp	.LBB8_263
.LBB8_3:                                # %if.end
	cmpq	$0, -160(%rbp)
	jge	.LBB8_5
# BB#4:                                 # %if.then.9
	xorl	%eax, %eax
	movl	%eax, %ecx
	subq	-80(%rbp), %rcx
	movq	%rcx, -88(%rbp)
	jmp	.LBB8_8
.LBB8_5:                                # %if.else
	movq	-160(%rbp), %rax
	cmpq	-152(%rbp), %rax
	jbe	.LBB8_7
# BB#6:                                 # %if.then.12
	movq	-152(%rbp), %rax
	subq	-80(%rbp), %rax
	movq	%rax, -88(%rbp)
.LBB8_7:                                # %if.end.14
	jmp	.LBB8_8
.LBB8_8:                                # %if.end.15
	movq	-40(%rbp), %rax
	cmpq	$0, 16(%rax)
	jbe	.LBB8_15
# BB#9:                                 # %land.lhs.true
	movq	-40(%rbp), %rax
	movq	(%rax), %rax
	movzbl	(%rax), %ecx
	cmpl	$11, %ecx
	jne	.LBB8_15
# BB#10:                                # %land.lhs.true.21
	cmpq	$0, -88(%rbp)
	jle	.LBB8_15
# BB#11:                                # %if.then.24
	cmpq	$0, -80(%rbp)
	jle	.LBB8_13
# BB#12:                                # %if.then.27
	movq	$-1, -32(%rbp)
	jmp	.LBB8_263
.LBB8_13:                               # %if.else.28
	movq	$0, -88(%rbp)
# BB#14:                                # %if.end.29
	jmp	.LBB8_15
.LBB8_15:                               # %if.end.30
	movq	-40(%rbp), %rax
	cmpq	$0, 16(%rax)
	jbe	.LBB8_21
# BB#16:                                # %land.lhs.true.34
	movq	-40(%rbp), %rax
	movq	(%rax), %rax
	movzbl	(%rax), %ecx
	cmpl	$31, %ecx
	jne	.LBB8_21
# BB#17:                                # %land.lhs.true.40
	cmpq	$0, -88(%rbp)
	jle	.LBB8_21
# BB#18:                                # %if.then.43
	movq	current_buffer, %rax
	movq	744(%rax), %rax
	addq	$0, %rax
	movq	current_buffer, %rcx
	subq	760(%rcx), %rax
	subq	-80(%rbp), %rax
	movq	%rax, -88(%rbp)
	cmpq	$0, -88(%rbp)
	jge	.LBB8_20
# BB#19:                                # %if.then.49
	movq	$-1, -32(%rbp)
	jmp	.LBB8_263
.LBB8_20:                               # %if.end.50
	jmp	.LBB8_21
.LBB8_21:                               # %if.end.51
	cmpq	$0, -136(%rbp)
	je	.LBB8_24
# BB#22:                                # %land.lhs.true.52
	movq	-40(%rbp), %rax
	movw	56(%rax), %cx
	shrw	$3, %cx
	andw	$1, %cx
	movzwl	%cx, %edx
	cmpl	$0, %edx
	jne	.LBB8_24
# BB#23:                                # %if.then.58
	movq	-40(%rbp), %rdi
	callq	re_compile_fastmap
	movl	%eax, -284(%rbp)        # 4-byte Spill
.LBB8_24:                               # %if.end.59
	xorl	%edi, %edi
	movq	-40(%rbp), %rax
	movq	(%rax), %rax
	movzbl	(%rax), %ecx
	cmpl	$9, %ecx
	sete	%dl
	andb	$1, %dl
	movzbl	%dl, %ecx
	movb	%cl, %dl
	movb	%dl, -161(%rbp)
	movq	re_match_object, %rax
	movq	%rax, gl_state
	movq	-80(%rbp), %rax
	movq	re_match_object, %rsi
	movq	%rsi, -296(%rbp)        # 8-byte Spill
	movq	%rax, -304(%rbp)        # 8-byte Spill
	callq	builtin_lisp_symbol
	movb	$1, %dl
	movq	-296(%rbp), %rsi        # 8-byte Reload
	cmpq	%rax, %rsi
	movb	%dl, -305(%rbp)         # 1-byte Spill
	je	.LBB8_26
# BB#25:                                # %lor.rhs
	movq	re_match_object, %rdi
	callq	BUFFERP
	movb	%al, -305(%rbp)         # 1-byte Spill
.LBB8_26:                               # %lor.end
	movb	-305(%rbp), %al         # 1-byte Reload
	andb	$1, %al
	movzbl	%al, %ecx
	movslq	%ecx, %rdx
	movq	-304(%rbp), %rsi        # 8-byte Reload
	addq	%rdx, %rsi
	movq	%rsi, %rdi
	callq	SYNTAX_TABLE_BYTE_TO_CHAR
	movl	$1, %ecx
	movl	%ecx, %edx
	movq	%rax, -176(%rbp)
	movq	re_match_object, %rdi
	movq	-176(%rbp), %rsi
	callq	SETUP_SYNTAX_TABLE_FOR_OBJECT
.LBB8_27:                               # %for.cond
                                        # =>This Loop Header: Depth=1
                                        #     Child Loop BB8_48 Depth 2
                                        #     Child Loop BB8_78 Depth 2
                                        #     Child Loop BB8_102 Depth 2
                                        #     Child Loop BB8_132 Depth 2
                                        #     Child Loop BB8_238 Depth 2
	movsbl	-161(%rbp), %eax
	cmpl	$0, %eax
	je	.LBB8_35
# BB#28:                                # %land.lhs.true.76
                                        #   in Loop: Header=BB8_27 Depth=1
	cmpq	$0, -80(%rbp)
	jle	.LBB8_35
# BB#29:                                # %if.then.79
                                        #   in Loop: Header=BB8_27 Depth=1
	movq	-80(%rbp), %rax
	cmpq	-56(%rbp), %rax
	ja	.LBB8_31
# BB#30:                                # %cond.true
                                        #   in Loop: Header=BB8_27 Depth=1
	movq	-80(%rbp), %rax
	subq	$1, %rax
	movq	-120(%rbp), %rcx
	movzbl	(%rcx,%rax), %edx
	movl	%edx, -312(%rbp)        # 4-byte Spill
	jmp	.LBB8_32
.LBB8_31:                               # %cond.false
                                        #   in Loop: Header=BB8_27 Depth=1
	movq	-80(%rbp), %rax
	subq	-56(%rbp), %rax
	subq	$1, %rax
	movq	-128(%rbp), %rcx
	movzbl	(%rcx,%rax), %edx
	movl	%edx, -312(%rbp)        # 4-byte Spill
.LBB8_32:                               # %cond.end
                                        #   in Loop: Header=BB8_27 Depth=1
	movl	-312(%rbp), %eax        # 4-byte Reload
	cmpl	$10, %eax
	je	.LBB8_34
# BB#33:                                # %if.then.91
                                        #   in Loop: Header=BB8_27 Depth=1
	jmp	.LBB8_207
.LBB8_34:                               # %if.end.92
                                        #   in Loop: Header=BB8_27 Depth=1
	jmp	.LBB8_35
.LBB8_35:                               # %if.end.93
                                        #   in Loop: Header=BB8_27 Depth=1
	cmpq	$0, -136(%rbp)
	je	.LBB8_197
# BB#36:                                # %land.lhs.true.95
                                        #   in Loop: Header=BB8_27 Depth=1
	movq	-80(%rbp), %rax
	cmpq	-152(%rbp), %rax
	jae	.LBB8_197
# BB#37:                                # %land.lhs.true.98
                                        #   in Loop: Header=BB8_27 Depth=1
	movq	-40(%rbp), %rax
	movw	56(%rax), %cx
	andw	$1, %cx
	movzwl	%cx, %edx
	cmpl	$0, %edx
	jne	.LBB8_197
# BB#38:                                # %if.then.103
                                        #   in Loop: Header=BB8_27 Depth=1
	movq	-80(%rbp), %rax
	cmpq	-56(%rbp), %rax
	jb	.LBB8_40
# BB#39:                                # %cond.true.106
                                        #   in Loop: Header=BB8_27 Depth=1
	xorl	%eax, %eax
	movl	%eax, %ecx
	movq	-128(%rbp), %rdx
	subq	-56(%rbp), %rcx
	addq	%rcx, %rdx
	movq	%rdx, -320(%rbp)        # 8-byte Spill
	jmp	.LBB8_41
.LBB8_40:                               # %cond.false.107
                                        #   in Loop: Header=BB8_27 Depth=1
	movq	-120(%rbp), %rax
	movq	%rax, -320(%rbp)        # 8-byte Spill
.LBB8_41:                               # %cond.end.108
                                        #   in Loop: Header=BB8_27 Depth=1
	movq	-320(%rbp), %rax        # 8-byte Reload
	addq	-80(%rbp), %rax
	movq	%rax, -184(%rbp)
	cmpq	$0, -88(%rbp)
	jle	.LBB8_139
# BB#42:                                # %if.then.113
                                        #   in Loop: Header=BB8_27 Depth=1
	movq	-88(%rbp), %rax
	movq	%rax, -200(%rbp)
	movq	$0, -208(%rbp)
	movq	-80(%rbp), %rax
	cmpq	-56(%rbp), %rax
	jae	.LBB8_45
# BB#43:                                # %land.lhs.true.116
                                        #   in Loop: Header=BB8_27 Depth=1
	movq	-80(%rbp), %rax
	addq	-88(%rbp), %rax
	cmpq	-56(%rbp), %rax
	jb	.LBB8_45
# BB#44:                                # %if.then.120
                                        #   in Loop: Header=BB8_27 Depth=1
	movq	-88(%rbp), %rax
	movq	-56(%rbp), %rcx
	subq	-80(%rbp), %rcx
	subq	%rcx, %rax
	movq	%rax, -208(%rbp)
.LBB8_45:                               # %if.end.123
                                        #   in Loop: Header=BB8_27 Depth=1
	cmpq	$2, -144(%rbp)
	je	.LBB8_100
# BB#46:                                # %if.then.126
                                        #   in Loop: Header=BB8_27 Depth=1
	cmpb	$0, -162(%rbp)
	je	.LBB8_77
# BB#47:                                # %if.then.128
                                        #   in Loop: Header=BB8_27 Depth=1
	jmp	.LBB8_48
.LBB8_48:                               # %while.cond
                                        #   Parent Loop BB8_27 Depth=1
                                        # =>  This Inner Loop Header: Depth=2
	movq	-88(%rbp), %rax
	cmpq	-208(%rbp), %rax
	jle	.LBB8_76
# BB#49:                                # %while.body
                                        #   in Loop: Header=BB8_48 Depth=2
	movq	-184(%rbp), %rax
	movzbl	(%rax), %ecx
	andl	$128, %ecx
	cmpl	$0, %ecx
	jne	.LBB8_51
# BB#50:                                # %cond.true.134
                                        #   in Loop: Header=BB8_48 Depth=2
	movl	$1, -212(%rbp)
	movq	-184(%rbp), %rax
	movzbl	(%rax), %ecx
	movl	%ecx, -324(%rbp)        # 4-byte Spill
	jmp	.LBB8_58
.LBB8_51:                               # %cond.false.137
                                        #   in Loop: Header=BB8_48 Depth=2
	movq	-184(%rbp), %rax
	movzbl	(%rax), %ecx
	andl	$32, %ecx
	cmpl	$0, %ecx
	jne	.LBB8_53
# BB#52:                                # %cond.true.142
                                        #   in Loop: Header=BB8_48 Depth=2
	xorl	%eax, %eax
	movl	$4194176, %ecx          # imm = 0x3FFF80
	movl	$2, -212(%rbp)
	movq	-184(%rbp), %rdx
	movzbl	(%rdx), %esi
	andl	$31, %esi
	shll	$6, %esi
	movq	-184(%rbp), %rdx
	movzbl	1(%rdx), %edi
	andl	$63, %edi
	orl	%edi, %esi
	movq	-184(%rbp), %rdx
	movzbl	(%rdx), %edi
	cmpl	$194, %edi
	cmovll	%ecx, %eax
	addl	%eax, %esi
	movl	%esi, -328(%rbp)        # 4-byte Spill
	jmp	.LBB8_57
.LBB8_53:                               # %cond.false.155
                                        #   in Loop: Header=BB8_48 Depth=2
	movq	-184(%rbp), %rax
	movzbl	(%rax), %ecx
	andl	$16, %ecx
	cmpl	$0, %ecx
	jne	.LBB8_55
# BB#54:                                # %cond.true.160
                                        #   in Loop: Header=BB8_48 Depth=2
	movl	$3, -212(%rbp)
	movq	-184(%rbp), %rax
	movzbl	(%rax), %ecx
	andl	$15, %ecx
	shll	$12, %ecx
	movq	-184(%rbp), %rax
	movzbl	1(%rax), %edx
	andl	$63, %edx
	shll	$6, %edx
	orl	%edx, %ecx
	movq	-184(%rbp), %rax
	movzbl	2(%rax), %edx
	andl	$63, %edx
	orl	%edx, %ecx
	movl	%ecx, -332(%rbp)        # 4-byte Spill
	jmp	.LBB8_56
.LBB8_55:                               # %cond.false.174
                                        #   in Loop: Header=BB8_48 Depth=2
	xorl	%eax, %eax
	movl	%eax, %esi
	leaq	-212(%rbp), %rdx
	movq	-184(%rbp), %rdi
	callq	string_char
	movl	%eax, -332(%rbp)        # 4-byte Spill
.LBB8_56:                               # %cond.end.176
                                        #   in Loop: Header=BB8_48 Depth=2
	movl	-332(%rbp), %eax        # 4-byte Reload
	movl	%eax, -328(%rbp)        # 4-byte Spill
.LBB8_57:                               # %cond.end.178
                                        #   in Loop: Header=BB8_48 Depth=2
	movl	-328(%rbp), %eax        # 4-byte Reload
	movl	%eax, -324(%rbp)        # 4-byte Spill
.LBB8_58:                               # %cond.end.180
                                        #   in Loop: Header=BB8_48 Depth=2
	movl	-324(%rbp), %eax        # 4-byte Reload
	movl	%eax, -188(%rbp)
	movq	-144(%rbp), %rdi
	movl	-188(%rbp), %esi
	callq	char_table_translate
	movl	%eax, -188(%rbp)
	cmpl	$127, -188(%rbp)
	jg	.LBB8_60
# BB#59:                                # %cond.true.185
                                        #   in Loop: Header=BB8_48 Depth=2
	movl	-188(%rbp), %eax
	movl	%eax, -336(%rbp)        # 4-byte Spill
	jmp	.LBB8_73
.LBB8_60:                               # %cond.false.186
                                        #   in Loop: Header=BB8_48 Depth=2
	cmpl	$2047, -188(%rbp)       # imm = 0x7FF
	jg	.LBB8_62
# BB#61:                                # %cond.true.189
                                        #   in Loop: Header=BB8_48 Depth=2
	movl	-188(%rbp), %eax
	sarl	$6, %eax
	orl	$192, %eax
	movl	%eax, -340(%rbp)        # 4-byte Spill
	jmp	.LBB8_72
.LBB8_62:                               # %cond.false.191
                                        #   in Loop: Header=BB8_48 Depth=2
	cmpl	$65535, -188(%rbp)      # imm = 0xFFFF
	jg	.LBB8_64
# BB#63:                                # %cond.true.194
                                        #   in Loop: Header=BB8_48 Depth=2
	movl	-188(%rbp), %eax
	sarl	$12, %eax
	orl	$224, %eax
	movl	%eax, -344(%rbp)        # 4-byte Spill
	jmp	.LBB8_71
.LBB8_64:                               # %cond.false.197
                                        #   in Loop: Header=BB8_48 Depth=2
	cmpl	$2097151, -188(%rbp)    # imm = 0x1FFFFF
	jg	.LBB8_66
# BB#65:                                # %cond.true.200
                                        #   in Loop: Header=BB8_48 Depth=2
	movl	-188(%rbp), %eax
	sarl	$18, %eax
	orl	$240, %eax
	movl	%eax, -348(%rbp)        # 4-byte Spill
	jmp	.LBB8_70
.LBB8_66:                               # %cond.false.203
                                        #   in Loop: Header=BB8_48 Depth=2
	cmpl	$4194175, -188(%rbp)    # imm = 0x3FFF7F
	jg	.LBB8_68
# BB#67:                                # %cond.true.206
                                        #   in Loop: Header=BB8_48 Depth=2
	movl	$248, %eax
	movl	%eax, -352(%rbp)        # 4-byte Spill
	jmp	.LBB8_69
.LBB8_68:                               # %cond.false.207
                                        #   in Loop: Header=BB8_48 Depth=2
	movl	-188(%rbp), %eax
	sarl	$6, %eax
	andl	$1, %eax
	orl	$192, %eax
	movl	%eax, -352(%rbp)        # 4-byte Spill
.LBB8_69:                               # %cond.end.211
                                        #   in Loop: Header=BB8_48 Depth=2
	movl	-352(%rbp), %eax        # 4-byte Reload
	movl	%eax, -348(%rbp)        # 4-byte Spill
.LBB8_70:                               # %cond.end.213
                                        #   in Loop: Header=BB8_48 Depth=2
	movl	-348(%rbp), %eax        # 4-byte Reload
	movl	%eax, -344(%rbp)        # 4-byte Spill
.LBB8_71:                               # %cond.end.215
                                        #   in Loop: Header=BB8_48 Depth=2
	movl	-344(%rbp), %eax        # 4-byte Reload
	movl	%eax, -340(%rbp)        # 4-byte Spill
.LBB8_72:                               # %cond.end.217
                                        #   in Loop: Header=BB8_48 Depth=2
	movl	-340(%rbp), %eax        # 4-byte Reload
	movl	%eax, -336(%rbp)        # 4-byte Spill
.LBB8_73:                               # %cond.end.219
                                        #   in Loop: Header=BB8_48 Depth=2
	movl	-336(%rbp), %eax        # 4-byte Reload
	movslq	%eax, %rcx
	movq	-136(%rbp), %rdx
	cmpb	$0, (%rdx,%rcx)
	je	.LBB8_75
# BB#74:                                # %if.then.223
                                        #   in Loop: Header=BB8_27 Depth=1
	jmp	.LBB8_76
.LBB8_75:                               # %if.end.224
                                        #   in Loop: Header=BB8_48 Depth=2
	movslq	-212(%rbp), %rax
	movq	-88(%rbp), %rcx
	subq	%rax, %rcx
	movq	%rcx, -88(%rbp)
	movl	-212(%rbp), %edx
	movq	-184(%rbp), %rax
	movslq	%edx, %rcx
	addq	%rcx, %rax
	movq	%rax, -184(%rbp)
	jmp	.LBB8_48
.LBB8_76:                               # %while.end
                                        #   in Loop: Header=BB8_27 Depth=1
	jmp	.LBB8_99
.LBB8_77:                               # %if.else.228
                                        #   in Loop: Header=BB8_27 Depth=1
	jmp	.LBB8_78
.LBB8_78:                               # %while.cond.229
                                        #   Parent Loop BB8_27 Depth=1
                                        # =>  This Inner Loop Header: Depth=2
	movq	-88(%rbp), %rax
	cmpq	-208(%rbp), %rax
	jle	.LBB8_98
# BB#79:                                # %while.body.232
                                        #   in Loop: Header=BB8_78 Depth=2
	movb	$1, %al
	movq	-184(%rbp), %rcx
	movzbl	(%rcx), %edx
	movl	%edx, -188(%rbp)
	testb	$1, %al
	jne	.LBB8_80
	jmp	.LBB8_81
.LBB8_80:                               # %cond.true.234
                                        #   in Loop: Header=BB8_78 Depth=2
	movl	-188(%rbp), %eax
	addl	$0, %eax
	cmpl	$128, %eax
	jb	.LBB8_82
	jmp	.LBB8_83
.LBB8_81:                               # %cond.false.238
                                        #   in Loop: Header=BB8_78 Depth=2
	movslq	-188(%rbp), %rax
	addq	$0, %rax
	cmpq	$128, %rax
	jae	.LBB8_83
.LBB8_82:                               # %cond.true.243
                                        #   in Loop: Header=BB8_78 Depth=2
	movl	-188(%rbp), %eax
	movl	%eax, -356(%rbp)        # 4-byte Spill
	jmp	.LBB8_84
.LBB8_83:                               # %cond.false.244
                                        #   in Loop: Header=BB8_78 Depth=2
	movl	-188(%rbp), %eax
	addl	$4194048, %eax          # imm = 0x3FFF00
	movl	%eax, -356(%rbp)        # 4-byte Spill
.LBB8_84:                               # %cond.end.246
                                        #   in Loop: Header=BB8_78 Depth=2
	movl	-356(%rbp), %eax        # 4-byte Reload
	movl	%eax, -216(%rbp)
	movq	-144(%rbp), %rdi
	movl	-216(%rbp), %esi
	callq	char_table_translate
	movl	%eax, -220(%rbp)
	movl	-220(%rbp), %eax
	cmpl	-216(%rbp), %eax
	je	.LBB8_95
# BB#85:                                # %land.lhs.true.251
                                        #   in Loop: Header=BB8_78 Depth=2
	movb	$1, %al
	testb	$1, %al
	jne	.LBB8_86
	jmp	.LBB8_87
.LBB8_86:                               # %cond.true.252
                                        #   in Loop: Header=BB8_78 Depth=2
	movl	-220(%rbp), %eax
	addl	$0, %eax
	cmpl	$128, %eax
	jb	.LBB8_88
	jmp	.LBB8_89
.LBB8_87:                               # %cond.false.256
                                        #   in Loop: Header=BB8_78 Depth=2
	movslq	-220(%rbp), %rax
	addq	$0, %rax
	cmpq	$128, %rax
	jae	.LBB8_89
.LBB8_88:                               # %cond.true.261
                                        #   in Loop: Header=BB8_78 Depth=2
	movl	-220(%rbp), %eax
	movl	%eax, -360(%rbp)        # 4-byte Spill
	jmp	.LBB8_93
.LBB8_89:                               # %cond.false.262
                                        #   in Loop: Header=BB8_78 Depth=2
	cmpl	$4194175, -220(%rbp)    # imm = 0x3FFF7F
	jle	.LBB8_91
# BB#90:                                # %cond.true.265
                                        #   in Loop: Header=BB8_78 Depth=2
	movl	-220(%rbp), %eax
	subl	$4194048, %eax          # imm = 0x3FFF00
	movl	%eax, -364(%rbp)        # 4-byte Spill
	jmp	.LBB8_92
.LBB8_91:                               # %cond.false.267
                                        #   in Loop: Header=BB8_78 Depth=2
	movl	$4294967295, %eax       # imm = 0xFFFFFFFF
	movl	%eax, -364(%rbp)        # 4-byte Spill
	jmp	.LBB8_92
.LBB8_92:                               # %cond.end.268
                                        #   in Loop: Header=BB8_78 Depth=2
	movl	-364(%rbp), %eax        # 4-byte Reload
	movl	%eax, -360(%rbp)        # 4-byte Spill
.LBB8_93:                               # %cond.end.270
                                        #   in Loop: Header=BB8_78 Depth=2
	movl	-360(%rbp), %eax        # 4-byte Reload
	movl	%eax, -216(%rbp)
	cmpl	$0, %eax
	jl	.LBB8_95
# BB#94:                                # %if.then.274
                                        #   in Loop: Header=BB8_78 Depth=2
	movl	-216(%rbp), %eax
	movl	%eax, -188(%rbp)
.LBB8_95:                               # %if.end.275
                                        #   in Loop: Header=BB8_78 Depth=2
	movslq	-188(%rbp), %rax
	movq	-136(%rbp), %rcx
	cmpb	$0, (%rcx,%rax)
	je	.LBB8_97
# BB#96:                                # %if.then.279
                                        #   in Loop: Header=BB8_27 Depth=1
	jmp	.LBB8_98
.LBB8_97:                               # %if.end.280
                                        #   in Loop: Header=BB8_78 Depth=2
	movq	-184(%rbp), %rax
	addq	$1, %rax
	movq	%rax, -184(%rbp)
	movq	-88(%rbp), %rax
	addq	$-1, %rax
	movq	%rax, -88(%rbp)
	jmp	.LBB8_78
.LBB8_98:                               # %while.end.281
                                        #   in Loop: Header=BB8_27 Depth=1
	jmp	.LBB8_99
.LBB8_99:                               # %if.end.282
                                        #   in Loop: Header=BB8_27 Depth=1
	jmp	.LBB8_138
.LBB8_100:                              # %if.else.283
                                        #   in Loop: Header=BB8_27 Depth=1
	cmpb	$0, -162(%rbp)
	je	.LBB8_131
# BB#101:                               # %if.then.285
                                        #   in Loop: Header=BB8_27 Depth=1
	jmp	.LBB8_102
.LBB8_102:                              # %while.cond.286
                                        #   Parent Loop BB8_27 Depth=1
                                        # =>  This Inner Loop Header: Depth=2
	movq	-88(%rbp), %rax
	cmpq	-208(%rbp), %rax
	jle	.LBB8_130
# BB#103:                               # %while.body.289
                                        #   in Loop: Header=BB8_102 Depth=2
	movq	-184(%rbp), %rax
	movzbl	(%rax), %ecx
	andl	$128, %ecx
	cmpl	$0, %ecx
	jne	.LBB8_105
# BB#104:                               # %cond.true.295
                                        #   in Loop: Header=BB8_102 Depth=2
	movl	$1, -224(%rbp)
	movq	-184(%rbp), %rax
	movzbl	(%rax), %ecx
	movl	%ecx, -368(%rbp)        # 4-byte Spill
	jmp	.LBB8_112
.LBB8_105:                              # %cond.false.298
                                        #   in Loop: Header=BB8_102 Depth=2
	movq	-184(%rbp), %rax
	movzbl	(%rax), %ecx
	andl	$32, %ecx
	cmpl	$0, %ecx
	jne	.LBB8_107
# BB#106:                               # %cond.true.303
                                        #   in Loop: Header=BB8_102 Depth=2
	xorl	%eax, %eax
	movl	$4194176, %ecx          # imm = 0x3FFF80
	movl	$2, -224(%rbp)
	movq	-184(%rbp), %rdx
	movzbl	(%rdx), %esi
	andl	$31, %esi
	shll	$6, %esi
	movq	-184(%rbp), %rdx
	movzbl	1(%rdx), %edi
	andl	$63, %edi
	orl	%edi, %esi
	movq	-184(%rbp), %rdx
	movzbl	(%rdx), %edi
	cmpl	$194, %edi
	cmovll	%ecx, %eax
	addl	%eax, %esi
	movl	%esi, -372(%rbp)        # 4-byte Spill
	jmp	.LBB8_111
.LBB8_107:                              # %cond.false.318
                                        #   in Loop: Header=BB8_102 Depth=2
	movq	-184(%rbp), %rax
	movzbl	(%rax), %ecx
	andl	$16, %ecx
	cmpl	$0, %ecx
	jne	.LBB8_109
# BB#108:                               # %cond.true.323
                                        #   in Loop: Header=BB8_102 Depth=2
	movl	$3, -224(%rbp)
	movq	-184(%rbp), %rax
	movzbl	(%rax), %ecx
	andl	$15, %ecx
	shll	$12, %ecx
	movq	-184(%rbp), %rax
	movzbl	1(%rax), %edx
	andl	$63, %edx
	shll	$6, %edx
	orl	%edx, %ecx
	movq	-184(%rbp), %rax
	movzbl	2(%rax), %edx
	andl	$63, %edx
	orl	%edx, %ecx
	movl	%ecx, -376(%rbp)        # 4-byte Spill
	jmp	.LBB8_110
.LBB8_109:                              # %cond.false.337
                                        #   in Loop: Header=BB8_102 Depth=2
	xorl	%eax, %eax
	movl	%eax, %esi
	leaq	-224(%rbp), %rdx
	movq	-184(%rbp), %rdi
	callq	string_char
	movl	%eax, -376(%rbp)        # 4-byte Spill
.LBB8_110:                              # %cond.end.339
                                        #   in Loop: Header=BB8_102 Depth=2
	movl	-376(%rbp), %eax        # 4-byte Reload
	movl	%eax, -372(%rbp)        # 4-byte Spill
.LBB8_111:                              # %cond.end.341
                                        #   in Loop: Header=BB8_102 Depth=2
	movl	-372(%rbp), %eax        # 4-byte Reload
	movl	%eax, -368(%rbp)        # 4-byte Spill
.LBB8_112:                              # %cond.end.343
                                        #   in Loop: Header=BB8_102 Depth=2
	movl	-368(%rbp), %eax        # 4-byte Reload
	movl	%eax, -188(%rbp)
	cmpl	$127, -188(%rbp)
	jg	.LBB8_114
# BB#113:                               # %cond.true.347
                                        #   in Loop: Header=BB8_102 Depth=2
	movl	-188(%rbp), %eax
	movl	%eax, -380(%rbp)        # 4-byte Spill
	jmp	.LBB8_127
.LBB8_114:                              # %cond.false.348
                                        #   in Loop: Header=BB8_102 Depth=2
	cmpl	$2047, -188(%rbp)       # imm = 0x7FF
	jg	.LBB8_116
# BB#115:                               # %cond.true.351
                                        #   in Loop: Header=BB8_102 Depth=2
	movl	-188(%rbp), %eax
	sarl	$6, %eax
	orl	$192, %eax
	movl	%eax, -384(%rbp)        # 4-byte Spill
	jmp	.LBB8_126
.LBB8_116:                              # %cond.false.354
                                        #   in Loop: Header=BB8_102 Depth=2
	cmpl	$65535, -188(%rbp)      # imm = 0xFFFF
	jg	.LBB8_118
# BB#117:                               # %cond.true.357
                                        #   in Loop: Header=BB8_102 Depth=2
	movl	-188(%rbp), %eax
	sarl	$12, %eax
	orl	$224, %eax
	movl	%eax, -388(%rbp)        # 4-byte Spill
	jmp	.LBB8_125
.LBB8_118:                              # %cond.false.360
                                        #   in Loop: Header=BB8_102 Depth=2
	cmpl	$2097151, -188(%rbp)    # imm = 0x1FFFFF
	jg	.LBB8_120
# BB#119:                               # %cond.true.363
                                        #   in Loop: Header=BB8_102 Depth=2
	movl	-188(%rbp), %eax
	sarl	$18, %eax
	orl	$240, %eax
	movl	%eax, -392(%rbp)        # 4-byte Spill
	jmp	.LBB8_124
.LBB8_120:                              # %cond.false.366
                                        #   in Loop: Header=BB8_102 Depth=2
	cmpl	$4194175, -188(%rbp)    # imm = 0x3FFF7F
	jg	.LBB8_122
# BB#121:                               # %cond.true.369
                                        #   in Loop: Header=BB8_102 Depth=2
	movl	$248, %eax
	movl	%eax, -396(%rbp)        # 4-byte Spill
	jmp	.LBB8_123
.LBB8_122:                              # %cond.false.370
                                        #   in Loop: Header=BB8_102 Depth=2
	movl	-188(%rbp), %eax
	sarl	$6, %eax
	andl	$1, %eax
	orl	$192, %eax
	movl	%eax, -396(%rbp)        # 4-byte Spill
.LBB8_123:                              # %cond.end.374
                                        #   in Loop: Header=BB8_102 Depth=2
	movl	-396(%rbp), %eax        # 4-byte Reload
	movl	%eax, -392(%rbp)        # 4-byte Spill
.LBB8_124:                              # %cond.end.376
                                        #   in Loop: Header=BB8_102 Depth=2
	movl	-392(%rbp), %eax        # 4-byte Reload
	movl	%eax, -388(%rbp)        # 4-byte Spill
.LBB8_125:                              # %cond.end.378
                                        #   in Loop: Header=BB8_102 Depth=2
	movl	-388(%rbp), %eax        # 4-byte Reload
	movl	%eax, -384(%rbp)        # 4-byte Spill
.LBB8_126:                              # %cond.end.380
                                        #   in Loop: Header=BB8_102 Depth=2
	movl	-384(%rbp), %eax        # 4-byte Reload
	movl	%eax, -380(%rbp)        # 4-byte Spill
.LBB8_127:                              # %cond.end.382
                                        #   in Loop: Header=BB8_102 Depth=2
	movl	-380(%rbp), %eax        # 4-byte Reload
	movslq	%eax, %rcx
	movq	-136(%rbp), %rdx
	cmpb	$0, (%rdx,%rcx)
	je	.LBB8_129
# BB#128:                               # %if.then.387
                                        #   in Loop: Header=BB8_27 Depth=1
	jmp	.LBB8_130
.LBB8_129:                              # %if.end.388
                                        #   in Loop: Header=BB8_102 Depth=2
	movslq	-224(%rbp), %rax
	movq	-88(%rbp), %rcx
	subq	%rax, %rcx
	movq	%rcx, -88(%rbp)
	movl	-224(%rbp), %edx
	movq	-184(%rbp), %rax
	movslq	%edx, %rcx
	addq	%rcx, %rax
	movq	%rax, -184(%rbp)
	jmp	.LBB8_102
.LBB8_130:                              # %while.end.393
                                        #   in Loop: Header=BB8_27 Depth=1
	jmp	.LBB8_137
.LBB8_131:                              # %if.else.394
                                        #   in Loop: Header=BB8_27 Depth=1
	jmp	.LBB8_132
.LBB8_132:                              # %while.cond.395
                                        #   Parent Loop BB8_27 Depth=1
                                        # =>  This Inner Loop Header: Depth=2
	xorl	%eax, %eax
	movb	%al, %cl
	movq	-88(%rbp), %rdx
	cmpq	-208(%rbp), %rdx
	movb	%cl, -397(%rbp)         # 1-byte Spill
	jle	.LBB8_134
# BB#133:                               # %land.rhs
                                        #   in Loop: Header=BB8_132 Depth=2
	movq	-184(%rbp), %rax
	movzbl	(%rax), %ecx
	movl	%ecx, %eax
	movq	-136(%rbp), %rdx
	cmpb	$0, (%rdx,%rax)
	setne	%sil
	xorb	$-1, %sil
	movb	%sil, -397(%rbp)        # 1-byte Spill
.LBB8_134:                              # %land.end
                                        #   in Loop: Header=BB8_132 Depth=2
	movb	-397(%rbp), %al         # 1-byte Reload
	testb	$1, %al
	jne	.LBB8_135
	jmp	.LBB8_136
.LBB8_135:                              # %while.body.401
                                        #   in Loop: Header=BB8_132 Depth=2
	movq	-184(%rbp), %rax
	addq	$1, %rax
	movq	%rax, -184(%rbp)
	movq	-88(%rbp), %rax
	addq	$-1, %rax
	movq	%rax, -88(%rbp)
	jmp	.LBB8_132
.LBB8_136:                              # %while.end.404
                                        #   in Loop: Header=BB8_27 Depth=1
	jmp	.LBB8_137
.LBB8_137:                              # %if.end.405
                                        #   in Loop: Header=BB8_27 Depth=1
	jmp	.LBB8_138
.LBB8_138:                              # %if.end.406
                                        #   in Loop: Header=BB8_27 Depth=1
	movq	-200(%rbp), %rax
	subq	-88(%rbp), %rax
	addq	-80(%rbp), %rax
	movq	%rax, -80(%rbp)
	jmp	.LBB8_196
.LBB8_139:                              # %if.else.409
                                        #   in Loop: Header=BB8_27 Depth=1
	cmpb	$0, -162(%rbp)
	je	.LBB8_170
# BB#140:                               # %if.then.411
                                        #   in Loop: Header=BB8_27 Depth=1
	movq	-184(%rbp), %rax
	movzbl	(%rax), %ecx
	andl	$128, %ecx
	cmpl	$0, %ecx
	jne	.LBB8_142
# BB#141:                               # %cond.true.416
                                        #   in Loop: Header=BB8_27 Depth=1
	movq	-184(%rbp), %rax
	movzbl	(%rax), %ecx
	movl	%ecx, -404(%rbp)        # 4-byte Spill
	jmp	.LBB8_149
.LBB8_142:                              # %cond.false.419
                                        #   in Loop: Header=BB8_27 Depth=1
	movq	-184(%rbp), %rax
	movzbl	(%rax), %ecx
	andl	$32, %ecx
	cmpl	$0, %ecx
	jne	.LBB8_144
# BB#143:                               # %cond.true.424
                                        #   in Loop: Header=BB8_27 Depth=1
	xorl	%eax, %eax
	movl	$4194176, %ecx          # imm = 0x3FFF80
	movq	-184(%rbp), %rdx
	movzbl	(%rdx), %esi
	andl	$31, %esi
	shll	$6, %esi
	movq	-184(%rbp), %rdx
	movzbl	1(%rdx), %edi
	andl	$63, %edi
	orl	%edi, %esi
	movq	-184(%rbp), %rdx
	movzbl	(%rdx), %edi
	cmpl	$194, %edi
	cmovll	%ecx, %eax
	addl	%eax, %esi
	movl	%esi, -408(%rbp)        # 4-byte Spill
	jmp	.LBB8_148
.LBB8_144:                              # %cond.false.439
                                        #   in Loop: Header=BB8_27 Depth=1
	movq	-184(%rbp), %rax
	movzbl	(%rax), %ecx
	andl	$16, %ecx
	cmpl	$0, %ecx
	jne	.LBB8_146
# BB#145:                               # %cond.true.444
                                        #   in Loop: Header=BB8_27 Depth=1
	movq	-184(%rbp), %rax
	movzbl	(%rax), %ecx
	andl	$15, %ecx
	shll	$12, %ecx
	movq	-184(%rbp), %rax
	movzbl	1(%rax), %edx
	andl	$63, %edx
	shll	$6, %edx
	orl	%edx, %ecx
	movq	-184(%rbp), %rax
	movzbl	2(%rax), %edx
	andl	$63, %edx
	orl	%edx, %ecx
	movl	%ecx, -412(%rbp)        # 4-byte Spill
	jmp	.LBB8_147
.LBB8_146:                              # %cond.false.458
                                        #   in Loop: Header=BB8_27 Depth=1
	xorl	%eax, %eax
	movl	%eax, %ecx
	movq	-184(%rbp), %rdi
	movq	%rcx, %rsi
	movq	%rcx, %rdx
	callq	string_char
	movl	%eax, -412(%rbp)        # 4-byte Spill
.LBB8_147:                              # %cond.end.460
                                        #   in Loop: Header=BB8_27 Depth=1
	movl	-412(%rbp), %eax        # 4-byte Reload
	movl	%eax, -408(%rbp)        # 4-byte Spill
.LBB8_148:                              # %cond.end.462
                                        #   in Loop: Header=BB8_27 Depth=1
	movl	-408(%rbp), %eax        # 4-byte Reload
	movl	%eax, -404(%rbp)        # 4-byte Spill
.LBB8_149:                              # %cond.end.464
                                        #   in Loop: Header=BB8_27 Depth=1
	movl	-404(%rbp), %eax        # 4-byte Reload
	movl	%eax, -188(%rbp)
	cmpq	$2, -144(%rbp)
	je	.LBB8_151
# BB#150:                               # %cond.true.468
                                        #   in Loop: Header=BB8_27 Depth=1
	movq	-144(%rbp), %rdi
	movl	-188(%rbp), %esi
	callq	char_table_translate
	movl	%eax, -416(%rbp)        # 4-byte Spill
	jmp	.LBB8_152
.LBB8_151:                              # %cond.false.470
                                        #   in Loop: Header=BB8_27 Depth=1
	movl	-188(%rbp), %eax
	movl	%eax, -416(%rbp)        # 4-byte Spill
.LBB8_152:                              # %cond.end.471
                                        #   in Loop: Header=BB8_27 Depth=1
	movl	-416(%rbp), %eax        # 4-byte Reload
	movl	%eax, -188(%rbp)
	cmpl	$127, -188(%rbp)
	jg	.LBB8_154
# BB#153:                               # %cond.true.475
                                        #   in Loop: Header=BB8_27 Depth=1
	movl	-188(%rbp), %eax
	movl	%eax, -420(%rbp)        # 4-byte Spill
	jmp	.LBB8_167
.LBB8_154:                              # %cond.false.476
                                        #   in Loop: Header=BB8_27 Depth=1
	cmpl	$2047, -188(%rbp)       # imm = 0x7FF
	jg	.LBB8_156
# BB#155:                               # %cond.true.479
                                        #   in Loop: Header=BB8_27 Depth=1
	movl	-188(%rbp), %eax
	sarl	$6, %eax
	orl	$192, %eax
	movl	%eax, -424(%rbp)        # 4-byte Spill
	jmp	.LBB8_166
.LBB8_156:                              # %cond.false.482
                                        #   in Loop: Header=BB8_27 Depth=1
	cmpl	$65535, -188(%rbp)      # imm = 0xFFFF
	jg	.LBB8_158
# BB#157:                               # %cond.true.485
                                        #   in Loop: Header=BB8_27 Depth=1
	movl	-188(%rbp), %eax
	sarl	$12, %eax
	orl	$224, %eax
	movl	%eax, -428(%rbp)        # 4-byte Spill
	jmp	.LBB8_165
.LBB8_158:                              # %cond.false.488
                                        #   in Loop: Header=BB8_27 Depth=1
	cmpl	$2097151, -188(%rbp)    # imm = 0x1FFFFF
	jg	.LBB8_160
# BB#159:                               # %cond.true.491
                                        #   in Loop: Header=BB8_27 Depth=1
	movl	-188(%rbp), %eax
	sarl	$18, %eax
	orl	$240, %eax
	movl	%eax, -432(%rbp)        # 4-byte Spill
	jmp	.LBB8_164
.LBB8_160:                              # %cond.false.494
                                        #   in Loop: Header=BB8_27 Depth=1
	cmpl	$4194175, -188(%rbp)    # imm = 0x3FFF7F
	jg	.LBB8_162
# BB#161:                               # %cond.true.497
                                        #   in Loop: Header=BB8_27 Depth=1
	movl	$248, %eax
	movl	%eax, -436(%rbp)        # 4-byte Spill
	jmp	.LBB8_163
.LBB8_162:                              # %cond.false.498
                                        #   in Loop: Header=BB8_27 Depth=1
	movl	-188(%rbp), %eax
	sarl	$6, %eax
	andl	$1, %eax
	orl	$192, %eax
	movl	%eax, -436(%rbp)        # 4-byte Spill
.LBB8_163:                              # %cond.end.502
                                        #   in Loop: Header=BB8_27 Depth=1
	movl	-436(%rbp), %eax        # 4-byte Reload
	movl	%eax, -432(%rbp)        # 4-byte Spill
.LBB8_164:                              # %cond.end.504
                                        #   in Loop: Header=BB8_27 Depth=1
	movl	-432(%rbp), %eax        # 4-byte Reload
	movl	%eax, -428(%rbp)        # 4-byte Spill
.LBB8_165:                              # %cond.end.506
                                        #   in Loop: Header=BB8_27 Depth=1
	movl	-428(%rbp), %eax        # 4-byte Reload
	movl	%eax, -424(%rbp)        # 4-byte Spill
.LBB8_166:                              # %cond.end.508
                                        #   in Loop: Header=BB8_27 Depth=1
	movl	-424(%rbp), %eax        # 4-byte Reload
	movl	%eax, -420(%rbp)        # 4-byte Spill
.LBB8_167:                              # %cond.end.510
                                        #   in Loop: Header=BB8_27 Depth=1
	movl	-420(%rbp), %eax        # 4-byte Reload
	movslq	%eax, %rcx
	movq	-136(%rbp), %rdx
	cmpb	$0, (%rdx,%rcx)
	jne	.LBB8_169
# BB#168:                               # %if.then.515
                                        #   in Loop: Header=BB8_27 Depth=1
	jmp	.LBB8_207
.LBB8_169:                              # %if.end.516
                                        #   in Loop: Header=BB8_27 Depth=1
	jmp	.LBB8_195
.LBB8_170:                              # %if.else.517
                                        #   in Loop: Header=BB8_27 Depth=1
	movb	$1, %al
	movq	-184(%rbp), %rcx
	movzbl	(%rcx), %edx
	movl	%edx, -188(%rbp)
	testb	$1, %al
	jne	.LBB8_171
	jmp	.LBB8_172
.LBB8_171:                              # %cond.true.521
                                        #   in Loop: Header=BB8_27 Depth=1
	movl	-188(%rbp), %eax
	addl	$0, %eax
	cmpl	$128, %eax
	jb	.LBB8_173
	jmp	.LBB8_174
.LBB8_172:                              # %cond.false.525
                                        #   in Loop: Header=BB8_27 Depth=1
	movslq	-188(%rbp), %rax
	addq	$0, %rax
	cmpq	$128, %rax
	jae	.LBB8_174
.LBB8_173:                              # %cond.true.530
                                        #   in Loop: Header=BB8_27 Depth=1
	movl	-188(%rbp), %eax
	movl	%eax, -440(%rbp)        # 4-byte Spill
	jmp	.LBB8_175
.LBB8_174:                              # %cond.false.531
                                        #   in Loop: Header=BB8_27 Depth=1
	movl	-188(%rbp), %eax
	addl	$4194048, %eax          # imm = 0x3FFF00
	movl	%eax, -440(%rbp)        # 4-byte Spill
.LBB8_175:                              # %cond.end.533
                                        #   in Loop: Header=BB8_27 Depth=1
	movl	-440(%rbp), %eax        # 4-byte Reload
	movl	%eax, -228(%rbp)
	cmpq	$2, -144(%rbp)
	je	.LBB8_177
# BB#176:                               # %cond.true.537
                                        #   in Loop: Header=BB8_27 Depth=1
	movq	-144(%rbp), %rdi
	movl	-228(%rbp), %esi
	callq	char_table_translate
	movl	%eax, -444(%rbp)        # 4-byte Spill
	jmp	.LBB8_178
.LBB8_177:                              # %cond.false.539
                                        #   in Loop: Header=BB8_27 Depth=1
	movl	-228(%rbp), %eax
	movl	%eax, -444(%rbp)        # 4-byte Spill
.LBB8_178:                              # %cond.end.540
                                        #   in Loop: Header=BB8_27 Depth=1
	movl	-444(%rbp), %eax        # 4-byte Reload
	movl	%eax, -232(%rbp)
	movl	-232(%rbp), %eax
	cmpl	-228(%rbp), %eax
	je	.LBB8_189
# BB#179:                               # %land.lhs.true.544
                                        #   in Loop: Header=BB8_27 Depth=1
	movb	$1, %al
	testb	$1, %al
	jne	.LBB8_180
	jmp	.LBB8_181
.LBB8_180:                              # %cond.true.545
                                        #   in Loop: Header=BB8_27 Depth=1
	movl	-232(%rbp), %eax
	addl	$0, %eax
	cmpl	$128, %eax
	jb	.LBB8_182
	jmp	.LBB8_183
.LBB8_181:                              # %cond.false.549
                                        #   in Loop: Header=BB8_27 Depth=1
	movslq	-232(%rbp), %rax
	addq	$0, %rax
	cmpq	$128, %rax
	jae	.LBB8_183
.LBB8_182:                              # %cond.true.554
                                        #   in Loop: Header=BB8_27 Depth=1
	movl	-232(%rbp), %eax
	movl	%eax, -448(%rbp)        # 4-byte Spill
	jmp	.LBB8_187
.LBB8_183:                              # %cond.false.555
                                        #   in Loop: Header=BB8_27 Depth=1
	cmpl	$4194175, -232(%rbp)    # imm = 0x3FFF7F
	jle	.LBB8_185
# BB#184:                               # %cond.true.558
                                        #   in Loop: Header=BB8_27 Depth=1
	movl	-232(%rbp), %eax
	subl	$4194048, %eax          # imm = 0x3FFF00
	movl	%eax, -452(%rbp)        # 4-byte Spill
	jmp	.LBB8_186
.LBB8_185:                              # %cond.false.560
                                        #   in Loop: Header=BB8_27 Depth=1
	movl	$4294967295, %eax       # imm = 0xFFFFFFFF
	movl	%eax, -452(%rbp)        # 4-byte Spill
	jmp	.LBB8_186
.LBB8_186:                              # %cond.end.561
                                        #   in Loop: Header=BB8_27 Depth=1
	movl	-452(%rbp), %eax        # 4-byte Reload
	movl	%eax, -448(%rbp)        # 4-byte Spill
.LBB8_187:                              # %cond.end.563
                                        #   in Loop: Header=BB8_27 Depth=1
	movl	-448(%rbp), %eax        # 4-byte Reload
	movl	%eax, -228(%rbp)
	cmpl	$0, %eax
	jl	.LBB8_189
# BB#188:                               # %if.then.567
                                        #   in Loop: Header=BB8_27 Depth=1
	movl	-228(%rbp), %eax
	movl	%eax, -188(%rbp)
.LBB8_189:                              # %if.end.568
                                        #   in Loop: Header=BB8_27 Depth=1
	cmpq	$2, -144(%rbp)
	je	.LBB8_191
# BB#190:                               # %cond.true.571
                                        #   in Loop: Header=BB8_27 Depth=1
	movq	-144(%rbp), %rdi
	movl	-188(%rbp), %esi
	callq	char_table_translate
	movl	%eax, -456(%rbp)        # 4-byte Spill
	jmp	.LBB8_192
.LBB8_191:                              # %cond.false.573
                                        #   in Loop: Header=BB8_27 Depth=1
	movl	-188(%rbp), %eax
	movl	%eax, -456(%rbp)        # 4-byte Spill
.LBB8_192:                              # %cond.end.574
                                        #   in Loop: Header=BB8_27 Depth=1
	movl	-456(%rbp), %eax        # 4-byte Reload
	movslq	%eax, %rcx
	movq	-136(%rbp), %rdx
	cmpb	$0, (%rdx,%rcx)
	jne	.LBB8_194
# BB#193:                               # %if.then.579
                                        #   in Loop: Header=BB8_27 Depth=1
	jmp	.LBB8_207
.LBB8_194:                              # %if.end.580
                                        #   in Loop: Header=BB8_27 Depth=1
	jmp	.LBB8_195
.LBB8_195:                              # %if.end.581
                                        #   in Loop: Header=BB8_27 Depth=1
	jmp	.LBB8_196
.LBB8_196:                              # %if.end.582
                                        #   in Loop: Header=BB8_27 Depth=1
	jmp	.LBB8_197
.LBB8_197:                              # %if.end.583
                                        #   in Loop: Header=BB8_27 Depth=1
	cmpq	$0, -88(%rbp)
	jl	.LBB8_202
# BB#198:                               # %land.lhs.true.586
                                        #   in Loop: Header=BB8_27 Depth=1
	movq	-80(%rbp), %rax
	cmpq	-152(%rbp), %rax
	jne	.LBB8_202
# BB#199:                               # %land.lhs.true.589
                                        #   in Loop: Header=BB8_27 Depth=1
	cmpq	$0, -136(%rbp)
	je	.LBB8_202
# BB#200:                               # %land.lhs.true.591
                                        #   in Loop: Header=BB8_27 Depth=1
	movq	-40(%rbp), %rax
	movw	56(%rax), %cx
	andw	$1, %cx
	movzwl	%cx, %edx
	cmpl	$0, %edx
	jne	.LBB8_202
# BB#201:                               # %if.then.597
	movq	$-1, -32(%rbp)
	jmp	.LBB8_263
.LBB8_202:                              # %if.end.598
                                        #   in Loop: Header=BB8_27 Depth=1
	movq	-40(%rbp), %rdi
	movq	-120(%rbp), %rsi
	movq	-56(%rbp), %rdx
	movq	-128(%rbp), %rcx
	movq	-72(%rbp), %r8
	movq	-80(%rbp), %r9
	movq	-96(%rbp), %rax
	movq	-104(%rbp), %r10
	movq	%rax, (%rsp)
	movq	%r10, 8(%rsp)
	callq	re_match_2_internal
	movq	%rax, -112(%rbp)
	cmpq	$0, -112(%rbp)
	jl	.LBB8_204
# BB#203:                               # %if.then.602
	movq	-80(%rbp), %rax
	movq	%rax, -32(%rbp)
	jmp	.LBB8_263
.LBB8_204:                              # %if.end.603
                                        #   in Loop: Header=BB8_27 Depth=1
	cmpq	$-2, -112(%rbp)
	jne	.LBB8_206
# BB#205:                               # %if.then.606
	movq	$-2, -32(%rbp)
	jmp	.LBB8_263
.LBB8_206:                              # %if.end.607
                                        #   in Loop: Header=BB8_27 Depth=1
	jmp	.LBB8_207
.LBB8_207:                              # %advance
                                        #   in Loop: Header=BB8_27 Depth=1
	cmpq	$0, -88(%rbp)
	jne	.LBB8_209
# BB#208:                               # %if.then.609
	jmp	.LBB8_262
.LBB8_209:                              # %if.else.610
                                        #   in Loop: Header=BB8_27 Depth=1
	cmpq	$0, -88(%rbp)
	jle	.LBB8_228
# BB#210:                               # %if.then.613
                                        #   in Loop: Header=BB8_27 Depth=1
	cmpb	$0, -162(%rbp)
	je	.LBB8_226
# BB#211:                               # %if.then.615
                                        #   in Loop: Header=BB8_27 Depth=1
	movq	-80(%rbp), %rax
	cmpq	-56(%rbp), %rax
	jb	.LBB8_213
# BB#212:                               # %cond.true.618
                                        #   in Loop: Header=BB8_27 Depth=1
	xorl	%eax, %eax
	movl	%eax, %ecx
	movq	-128(%rbp), %rdx
	subq	-56(%rbp), %rcx
	addq	%rcx, %rdx
	movq	%rdx, -464(%rbp)        # 8-byte Spill
	jmp	.LBB8_214
.LBB8_213:                              # %cond.false.621
                                        #   in Loop: Header=BB8_27 Depth=1
	movq	-120(%rbp), %rax
	movq	%rax, -464(%rbp)        # 8-byte Spill
.LBB8_214:                              # %cond.end.622
                                        #   in Loop: Header=BB8_27 Depth=1
	movq	-464(%rbp), %rax        # 8-byte Reload
	addq	-80(%rbp), %rax
	movq	%rax, -240(%rbp)
	movq	-240(%rbp), %rax
	movzbl	(%rax), %ecx
	andl	$128, %ecx
	cmpl	$0, %ecx
	jne	.LBB8_216
# BB#215:                               # %cond.true.628
                                        #   in Loop: Header=BB8_27 Depth=1
	movl	$1, %eax
	movl	%eax, -468(%rbp)        # 4-byte Spill
	jmp	.LBB8_223
.LBB8_216:                              # %cond.false.629
                                        #   in Loop: Header=BB8_27 Depth=1
	movq	-240(%rbp), %rax
	movzbl	(%rax), %ecx
	andl	$32, %ecx
	cmpl	$0, %ecx
	jne	.LBB8_218
# BB#217:                               # %cond.true.633
                                        #   in Loop: Header=BB8_27 Depth=1
	movl	$2, %eax
	movl	%eax, -472(%rbp)        # 4-byte Spill
	jmp	.LBB8_222
.LBB8_218:                              # %cond.false.634
                                        #   in Loop: Header=BB8_27 Depth=1
	movq	-240(%rbp), %rax
	movzbl	(%rax), %ecx
	andl	$16, %ecx
	cmpl	$0, %ecx
	jne	.LBB8_220
# BB#219:                               # %cond.true.638
                                        #   in Loop: Header=BB8_27 Depth=1
	movl	$3, %eax
	movl	%eax, -476(%rbp)        # 4-byte Spill
	jmp	.LBB8_221
.LBB8_220:                              # %cond.false.639
                                        #   in Loop: Header=BB8_27 Depth=1
	movl	$5, %eax
	movl	$4, %ecx
	movq	-240(%rbp), %rdx
	movzbl	(%rdx), %esi
	andl	$8, %esi
	cmpl	$0, %esi
	setne	%dil
	xorb	$-1, %dil
	testb	$1, %dil
	cmovnel	%ecx, %eax
	movl	%eax, -476(%rbp)        # 4-byte Spill
.LBB8_221:                              # %cond.end.645
                                        #   in Loop: Header=BB8_27 Depth=1
	movl	-476(%rbp), %eax        # 4-byte Reload
	movl	%eax, -472(%rbp)        # 4-byte Spill
.LBB8_222:                              # %cond.end.647
                                        #   in Loop: Header=BB8_27 Depth=1
	movl	-472(%rbp), %eax        # 4-byte Reload
	movl	%eax, -468(%rbp)        # 4-byte Spill
.LBB8_223:                              # %cond.end.649
                                        #   in Loop: Header=BB8_27 Depth=1
	movl	-468(%rbp), %eax        # 4-byte Reload
	movl	%eax, -244(%rbp)
	movslq	-244(%rbp), %rcx
	movq	-88(%rbp), %rdx
	subq	%rcx, %rdx
	movq	%rdx, -88(%rbp)
	cmpq	$0, -88(%rbp)
	jge	.LBB8_225
# BB#224:                               # %if.then.655
	jmp	.LBB8_262
.LBB8_225:                              # %if.end.656
                                        #   in Loop: Header=BB8_27 Depth=1
	movslq	-244(%rbp), %rax
	addq	-80(%rbp), %rax
	movq	%rax, -80(%rbp)
	jmp	.LBB8_227
.LBB8_226:                              # %if.else.659
                                        #   in Loop: Header=BB8_27 Depth=1
	movq	-88(%rbp), %rax
	addq	$-1, %rax
	movq	%rax, -88(%rbp)
	movq	-80(%rbp), %rax
	addq	$1, %rax
	movq	%rax, -80(%rbp)
.LBB8_227:                              # %if.end.661
                                        #   in Loop: Header=BB8_27 Depth=1
	jmp	.LBB8_260
.LBB8_228:                              # %if.else.662
                                        #   in Loop: Header=BB8_27 Depth=1
	movq	-88(%rbp), %rax
	addq	$1, %rax
	movq	%rax, -88(%rbp)
	movq	-80(%rbp), %rax
	addq	$-1, %rax
	movq	%rax, -80(%rbp)
	cmpb	$0, -162(%rbp)
	je	.LBB8_259
# BB#229:                               # %if.then.666
                                        #   in Loop: Header=BB8_27 Depth=1
	movq	-80(%rbp), %rax
	cmpq	-56(%rbp), %rax
	jb	.LBB8_231
# BB#230:                               # %cond.true.670
                                        #   in Loop: Header=BB8_27 Depth=1
	xorl	%eax, %eax
	movl	%eax, %ecx
	movq	-128(%rbp), %rdx
	subq	-56(%rbp), %rcx
	addq	%rcx, %rdx
	movq	%rdx, -488(%rbp)        # 8-byte Spill
	jmp	.LBB8_232
.LBB8_231:                              # %cond.false.673
                                        #   in Loop: Header=BB8_27 Depth=1
	movq	-120(%rbp), %rax
	movq	%rax, -488(%rbp)        # 8-byte Spill
.LBB8_232:                              # %cond.end.674
                                        #   in Loop: Header=BB8_27 Depth=1
	movq	-488(%rbp), %rax        # 8-byte Reload
	addq	-80(%rbp), %rax
	addq	$1, %rax
	movq	%rax, -256(%rbp)
	movq	-256(%rbp), %rax
	movq	%rax, -264(%rbp)
	movq	-80(%rbp), %rax
	cmpq	-56(%rbp), %rax
	jb	.LBB8_234
# BB#233:                               # %cond.true.680
                                        #   in Loop: Header=BB8_27 Depth=1
	movq	-128(%rbp), %rax
	movq	%rax, -496(%rbp)        # 8-byte Spill
	jmp	.LBB8_235
.LBB8_234:                              # %cond.false.681
                                        #   in Loop: Header=BB8_27 Depth=1
	movq	-120(%rbp), %rax
	movq	%rax, -496(%rbp)        # 8-byte Spill
.LBB8_235:                              # %cond.end.682
                                        #   in Loop: Header=BB8_27 Depth=1
	movq	-496(%rbp), %rax        # 8-byte Reload
	movq	%rax, -272(%rbp)
# BB#236:                               # %do.body
                                        #   in Loop: Header=BB8_27 Depth=1
	movq	-256(%rbp), %rax
	cmpq	-272(%rbp), %rax
	jbe	.LBB8_255
# BB#237:                               # %if.then.686
                                        #   in Loop: Header=BB8_27 Depth=1
	movq	-256(%rbp), %rax
	movq	%rax, -280(%rbp)
.LBB8_238:                              # %do.body.687
                                        #   Parent Loop BB8_27 Depth=1
                                        # =>  This Inner Loop Header: Depth=2
	movq	-280(%rbp), %rax
	addq	$-1, %rax
	movq	%rax, -280(%rbp)
# BB#239:                               # %do.cond
                                        #   in Loop: Header=BB8_238 Depth=2
	xorl	%eax, %eax
	movb	%al, %cl
	movq	-280(%rbp), %rdx
	cmpq	-272(%rbp), %rdx
	movb	%cl, -497(%rbp)         # 1-byte Spill
	jb	.LBB8_241
# BB#240:                               # %land.rhs.691
                                        #   in Loop: Header=BB8_238 Depth=2
	movq	-280(%rbp), %rax
	movzbl	(%rax), %ecx
	andl	$192, %ecx
	cmpl	$128, %ecx
	setne	%dl
	xorb	$-1, %dl
	movb	%dl, -497(%rbp)         # 1-byte Spill
.LBB8_241:                              # %land.end.697
                                        #   in Loop: Header=BB8_238 Depth=2
	movb	-497(%rbp), %al         # 1-byte Reload
	testb	$1, %al
	jne	.LBB8_238
# BB#242:                               # %do.end
                                        #   in Loop: Header=BB8_27 Depth=1
	movq	-280(%rbp), %rax
	movzbl	(%rax), %ecx
	andl	$128, %ecx
	cmpl	$0, %ecx
	jne	.LBB8_244
# BB#243:                               # %cond.true.701
                                        #   in Loop: Header=BB8_27 Depth=1
	movl	$1, %eax
	movl	%eax, -504(%rbp)        # 4-byte Spill
	jmp	.LBB8_251
.LBB8_244:                              # %cond.false.702
                                        #   in Loop: Header=BB8_27 Depth=1
	movq	-280(%rbp), %rax
	movzbl	(%rax), %ecx
	andl	$32, %ecx
	cmpl	$0, %ecx
	jne	.LBB8_246
# BB#245:                               # %cond.true.706
                                        #   in Loop: Header=BB8_27 Depth=1
	movl	$2, %eax
	movl	%eax, -508(%rbp)        # 4-byte Spill
	jmp	.LBB8_250
.LBB8_246:                              # %cond.false.707
                                        #   in Loop: Header=BB8_27 Depth=1
	movq	-280(%rbp), %rax
	movzbl	(%rax), %ecx
	andl	$16, %ecx
	cmpl	$0, %ecx
	jne	.LBB8_248
# BB#247:                               # %cond.true.711
                                        #   in Loop: Header=BB8_27 Depth=1
	movl	$3, %eax
	movl	%eax, -512(%rbp)        # 4-byte Spill
	jmp	.LBB8_249
.LBB8_248:                              # %cond.false.712
                                        #   in Loop: Header=BB8_27 Depth=1
	movl	$5, %eax
	movl	$4, %ecx
	movq	-280(%rbp), %rdx
	movzbl	(%rdx), %esi
	andl	$8, %esi
	cmpl	$0, %esi
	setne	%dil
	xorb	$-1, %dil
	testb	$1, %dil
	cmovnel	%ecx, %eax
	movl	%eax, -512(%rbp)        # 4-byte Spill
.LBB8_249:                              # %cond.end.718
                                        #   in Loop: Header=BB8_27 Depth=1
	movl	-512(%rbp), %eax        # 4-byte Reload
	movl	%eax, -508(%rbp)        # 4-byte Spill
.LBB8_250:                              # %cond.end.720
                                        #   in Loop: Header=BB8_27 Depth=1
	movl	-508(%rbp), %eax        # 4-byte Reload
	movl	%eax, -504(%rbp)        # 4-byte Spill
.LBB8_251:                              # %cond.end.722
                                        #   in Loop: Header=BB8_27 Depth=1
	movl	-504(%rbp), %eax        # 4-byte Reload
	movslq	%eax, %rcx
	movq	-256(%rbp), %rdx
	movq	-280(%rbp), %rsi
	subq	%rsi, %rdx
	cmpq	%rdx, %rcx
	jne	.LBB8_253
# BB#252:                               # %cond.true.727
                                        #   in Loop: Header=BB8_27 Depth=1
	movq	-280(%rbp), %rax
	movq	%rax, -520(%rbp)        # 8-byte Spill
	jmp	.LBB8_254
.LBB8_253:                              # %cond.false.728
                                        #   in Loop: Header=BB8_27 Depth=1
	movq	-256(%rbp), %rax
	addq	$-1, %rax
	movq	%rax, -520(%rbp)        # 8-byte Spill
.LBB8_254:                              # %cond.end.730
                                        #   in Loop: Header=BB8_27 Depth=1
	movq	-520(%rbp), %rax        # 8-byte Reload
	movq	%rax, -256(%rbp)
.LBB8_255:                              # %if.end.732
                                        #   in Loop: Header=BB8_27 Depth=1
	jmp	.LBB8_256
.LBB8_256:                              # %do.end.734
                                        #   in Loop: Header=BB8_27 Depth=1
	movq	-264(%rbp), %rax
	addq	$-1, %rax
	movq	-256(%rbp), %rcx
	subq	%rcx, %rax
	addq	-88(%rbp), %rax
	movq	%rax, -88(%rbp)
	cmpq	$0, -88(%rbp)
	jle	.LBB8_258
# BB#257:                               # %if.then.742
	jmp	.LBB8_262
.LBB8_258:                              # %if.end.743
                                        #   in Loop: Header=BB8_27 Depth=1
	movq	-264(%rbp), %rax
	addq	$-1, %rax
	movq	-256(%rbp), %rcx
	subq	%rcx, %rax
	movq	-80(%rbp), %rcx
	subq	%rax, %rcx
	movq	%rcx, -80(%rbp)
.LBB8_259:                              # %if.end.749
                                        #   in Loop: Header=BB8_27 Depth=1
	jmp	.LBB8_260
.LBB8_260:                              # %if.end.750
                                        #   in Loop: Header=BB8_27 Depth=1
	jmp	.LBB8_261
.LBB8_261:                              # %if.end.751
                                        #   in Loop: Header=BB8_27 Depth=1
	jmp	.LBB8_27
.LBB8_262:                              # %for.end
	movq	$-1, -32(%rbp)
.LBB8_263:                              # %return
	movq	-32(%rbp), %rax
	addq	$520, %rsp              # imm = 0x208
	popq	%rbx
	popq	%r14
	popq	%r15
	popq	%rbp
	retq
.Lfunc_end8:
	.size	re_search_2, .Lfunc_end8-re_search_2
	.cfi_endproc

	.align	16, 0x90
	.type	re_match_2_internal,@function
re_match_2_internal:                    # @re_match_2_internal
	.cfi_startproc
# BB#0:                                 # %entry
	pushq	%rbp
.Ltmp31:
	.cfi_def_cfa_offset 16
.Ltmp32:
	.cfi_offset %rbp, -16
	movq	%rsp, %rbp
.Ltmp33:
	.cfi_def_cfa_register %rbp
	pushq	%r14
	pushq	%rbx
	subq	$2896, %rsp             # imm = 0xB50
.Ltmp34:
	.cfi_offset %rbx, -32
.Ltmp35:
	.cfi_offset %r14, -24
	movq	24(%rbp), %rax
	movq	16(%rbp), %r10
	movq	%rdi, -32(%rbp)
	movq	%rsi, -40(%rbp)
	movq	%rdx, -48(%rbp)
	movq	%rcx, -56(%rbp)
	movq	%r8, -64(%rbp)
	movq	%r9, -72(%rbp)
	movq	%r10, -80(%rbp)
	movq	%rax, -88(%rbp)
	movq	-32(%rbp), %rax
	movq	(%rax), %rax
	movq	%rax, -168(%rbp)
	movq	-168(%rbp), %rax
	movq	-32(%rbp), %rcx
	addq	16(%rcx), %rax
	movq	%rax, -176(%rbp)
	movq	-32(%rbp), %rax
	movq	40(%rax), %rax
	movq	%rax, -184(%rbp)
	movq	-32(%rbp), %rax
	movw	56(%rax), %r11w
	shrw	$8, %r11w
	andw	$1, %r11w
	movzwl	%r11w, %ebx
	movb	%bl, %r14b
	movb	%r14b, -185(%rbp)
	movq	-32(%rbp), %rax
	movw	56(%rax), %r11w
	shrw	$9, %r11w
	andw	$1, %r11w
	movzwl	%r11w, %ebx
	movb	%bl, %r14b
	movb	%r14b, -186(%rbp)
	movq	-32(%rbp), %rax
	movq	48(%rax), %rax
	addq	$1, %rax
	movq	%rax, -232(%rbp)
	movl	$0, -252(%rbp)
	movq	$0, -280(%rbp)
	movq	$16384, -288(%rbp)      # imm = 0x4000
	callq	SPECPDL_INDEX
	movq	%rax, -296(%rbp)
	movb	$0, -297(%rbp)
# BB#1:                                 # %do.body
	movl	$3200, %eax             # imm = 0xC80
	movl	%eax, %ecx
	cmpq	-288(%rbp), %rcx
	ja	.LBB9_3
# BB#2:                                 # %cond.true
	movq	-288(%rbp), %rax
	addq	$-3200, %rax            # imm = 0xFFFFFFFFFFFFF380
	movq	%rax, -288(%rbp)
	movq	%rsp, %rax
	addq	$-3200, %rax            # imm = 0xFFFFFFFFFFFFF380
	movq	%rax, %rsp
	movq	%rax, -1016(%rbp)       # 8-byte Spill
	jmp	.LBB9_4
.LBB9_3:                                # %cond.false
	movl	$3200, %eax             # imm = 0xC80
	movl	%eax, %edi
	movb	$1, -297(%rbp)
	callq	record_xmalloc
	movq	%rax, -1016(%rbp)       # 8-byte Spill
.LBB9_4:                                # %cond.end
	movq	-1016(%rbp), %rax       # 8-byte Reload
	movq	%rax, -224(%rbp)
	cmpq	$0, -224(%rbp)
	jne	.LBB9_6
# BB#5:                                 # %if.then
	movq	$-2, -24(%rbp)
	jmp	.LBB9_1520
.LBB9_6:                                # %if.end
	movq	$20, -216(%rbp)
	movq	$0, -208(%rbp)
	movq	$0, -200(%rbp)
# BB#7:                                 # %do.end
	movq	-32(%rbp), %rax
	cmpq	$0, 48(%rax)
	je	.LBB9_48
# BB#8:                                 # %if.then.15
	movq	-232(%rbp), %rax
	shlq	$3, %rax
	cmpq	-288(%rbp), %rax
	ja	.LBB9_10
# BB#9:                                 # %cond.true.18
	movq	-232(%rbp), %rax
	shlq	$3, %rax
	movq	-288(%rbp), %rcx
	subq	%rax, %rcx
	movq	%rcx, -288(%rbp)
	movq	-232(%rbp), %rax
	leaq	15(,%rax,8), %rax
	andq	$-16, %rax
	movq	%rsp, %rcx
	subq	%rax, %rcx
	movq	%rcx, %rsp
	movq	%rcx, -1024(%rbp)       # 8-byte Spill
	jmp	.LBB9_11
.LBB9_10:                               # %cond.false.22
	movb	$1, -297(%rbp)
	movq	-232(%rbp), %rax
	shlq	$3, %rax
	movq	%rax, %rdi
	callq	record_xmalloc
	movq	%rax, -1024(%rbp)       # 8-byte Spill
.LBB9_11:                               # %cond.end.25
	movq	-1024(%rbp), %rax       # 8-byte Reload
	movq	%rax, -240(%rbp)
	movq	-232(%rbp), %rax
	shlq	$3, %rax
	cmpq	-288(%rbp), %rax
	ja	.LBB9_13
# BB#12:                                # %cond.true.30
	movq	-232(%rbp), %rax
	shlq	$3, %rax
	movq	-288(%rbp), %rcx
	subq	%rax, %rcx
	movq	%rcx, -288(%rbp)
	movq	-232(%rbp), %rax
	leaq	15(,%rax,8), %rax
	andq	$-16, %rax
	movq	%rsp, %rcx
	subq	%rax, %rcx
	movq	%rcx, %rsp
	movq	%rcx, -1032(%rbp)       # 8-byte Spill
	jmp	.LBB9_14
.LBB9_13:                               # %cond.false.34
	movb	$1, -297(%rbp)
	movq	-232(%rbp), %rax
	shlq	$3, %rax
	movq	%rax, %rdi
	callq	record_xmalloc
	movq	%rax, -1032(%rbp)       # 8-byte Spill
.LBB9_14:                               # %cond.end.37
	movq	-1032(%rbp), %rax       # 8-byte Reload
	movq	%rax, -248(%rbp)
	movq	-232(%rbp), %rax
	shlq	$3, %rax
	cmpq	-288(%rbp), %rax
	ja	.LBB9_16
# BB#15:                                # %cond.true.42
	movq	-232(%rbp), %rax
	shlq	$3, %rax
	movq	-288(%rbp), %rcx
	subq	%rax, %rcx
	movq	%rcx, -288(%rbp)
	movq	-232(%rbp), %rax
	leaq	15(,%rax,8), %rax
	andq	$-16, %rax
	movq	%rsp, %rcx
	subq	%rax, %rcx
	movq	%rcx, %rsp
	movq	%rcx, -1040(%rbp)       # 8-byte Spill
	jmp	.LBB9_17
.LBB9_16:                               # %cond.false.46
	movb	$1, -297(%rbp)
	movq	-232(%rbp), %rax
	shlq	$3, %rax
	movq	%rax, %rdi
	callq	record_xmalloc
	movq	%rax, -1040(%rbp)       # 8-byte Spill
.LBB9_17:                               # %cond.end.49
	movq	-1040(%rbp), %rax       # 8-byte Reload
	movq	%rax, -264(%rbp)
	movq	-232(%rbp), %rax
	shlq	$3, %rax
	cmpq	-288(%rbp), %rax
	ja	.LBB9_19
# BB#18:                                # %cond.true.54
	movq	-232(%rbp), %rax
	shlq	$3, %rax
	movq	-288(%rbp), %rcx
	subq	%rax, %rcx
	movq	%rcx, -288(%rbp)
	movq	-232(%rbp), %rax
	leaq	15(,%rax,8), %rax
	andq	$-16, %rax
	movq	%rsp, %rcx
	subq	%rax, %rcx
	movq	%rcx, %rsp
	movq	%rcx, -1048(%rbp)       # 8-byte Spill
	jmp	.LBB9_20
.LBB9_19:                               # %cond.false.58
	movb	$1, -297(%rbp)
	movq	-232(%rbp), %rax
	shlq	$3, %rax
	movq	%rax, %rdi
	callq	record_xmalloc
	movq	%rax, -1048(%rbp)       # 8-byte Spill
.LBB9_20:                               # %cond.end.61
	movq	-1048(%rbp), %rax       # 8-byte Reload
	movq	%rax, -272(%rbp)
	cmpq	$0, -240(%rbp)
	je	.LBB9_24
# BB#21:                                # %land.lhs.true
	cmpq	$0, -248(%rbp)
	je	.LBB9_24
# BB#22:                                # %land.lhs.true.65
	cmpq	$0, -264(%rbp)
	je	.LBB9_24
# BB#23:                                # %land.lhs.true.67
	cmpq	$0, -272(%rbp)
	jne	.LBB9_47
.LBB9_24:                               # %if.then.69
	jmp	.LBB9_25
.LBB9_25:                               # %do.body.70
	jmp	.LBB9_26
.LBB9_26:                               # %do.body.71
	cmpq	$0, -240(%rbp)
	je	.LBB9_28
# BB#27:                                # %if.then.73
	movq	$0, -240(%rbp)
.LBB9_28:                               # %if.end.74
	jmp	.LBB9_29
.LBB9_29:                               # %do.end.75
	jmp	.LBB9_30
.LBB9_30:                               # %do.body.76
	cmpq	$0, -248(%rbp)
	je	.LBB9_32
# BB#31:                                # %if.then.78
	movq	$0, -248(%rbp)
.LBB9_32:                               # %if.end.79
	jmp	.LBB9_33
.LBB9_33:                               # %do.end.80
	jmp	.LBB9_34
.LBB9_34:                               # %do.body.81
	cmpq	$0, -264(%rbp)
	je	.LBB9_36
# BB#35:                                # %if.then.83
	movq	$0, -264(%rbp)
.LBB9_36:                               # %if.end.84
	jmp	.LBB9_37
.LBB9_37:                               # %do.end.85
	jmp	.LBB9_38
.LBB9_38:                               # %do.body.86
	cmpq	$0, -272(%rbp)
	je	.LBB9_40
# BB#39:                                # %if.then.88
	movq	$0, -272(%rbp)
.LBB9_40:                               # %if.end.89
	jmp	.LBB9_41
.LBB9_41:                               # %do.end.90
	jmp	.LBB9_42
.LBB9_42:                               # %do.body.91
	testb	$1, -297(%rbp)
	je	.LBB9_44
# BB#43:                                # %if.then.93
	xorl	%edi, %edi
	movb	$0, -297(%rbp)
	movq	-296(%rbp), %rax
	movq	%rax, -1056(%rbp)       # 8-byte Spill
	callq	builtin_lisp_symbol
	movq	-1056(%rbp), %rdi       # 8-byte Reload
	movq	%rax, %rsi
	callq	unbind_to
	movq	%rax, -1064(%rbp)       # 8-byte Spill
.LBB9_44:                               # %if.end.96
	jmp	.LBB9_45
.LBB9_45:                               # %do.end.97
	jmp	.LBB9_46
.LBB9_46:                               # %do.end.98
	movq	$-2, -24(%rbp)
	jmp	.LBB9_1520
.LBB9_47:                               # %if.end.99
	jmp	.LBB9_49
.LBB9_48:                               # %if.else
	movq	$0, -272(%rbp)
	movq	$0, -264(%rbp)
	movq	$0, -248(%rbp)
	movq	$0, -240(%rbp)
.LBB9_49:                               # %if.end.100
	cmpq	$0, -72(%rbp)
	jl	.LBB9_51
# BB#50:                                # %lor.lhs.false
	movq	-72(%rbp), %rax
	movq	-48(%rbp), %rcx
	addq	-64(%rbp), %rcx
	cmpq	%rcx, %rax
	jbe	.LBB9_74
.LBB9_51:                               # %if.then.106
	jmp	.LBB9_52
.LBB9_52:                               # %do.body.107
	jmp	.LBB9_53
.LBB9_53:                               # %do.body.108
	cmpq	$0, -240(%rbp)
	je	.LBB9_55
# BB#54:                                # %if.then.110
	movq	$0, -240(%rbp)
.LBB9_55:                               # %if.end.111
	jmp	.LBB9_56
.LBB9_56:                               # %do.end.112
	jmp	.LBB9_57
.LBB9_57:                               # %do.body.113
	cmpq	$0, -248(%rbp)
	je	.LBB9_59
# BB#58:                                # %if.then.115
	movq	$0, -248(%rbp)
.LBB9_59:                               # %if.end.116
	jmp	.LBB9_60
.LBB9_60:                               # %do.end.117
	jmp	.LBB9_61
.LBB9_61:                               # %do.body.118
	cmpq	$0, -264(%rbp)
	je	.LBB9_63
# BB#62:                                # %if.then.120
	movq	$0, -264(%rbp)
.LBB9_63:                               # %if.end.121
	jmp	.LBB9_64
.LBB9_64:                               # %do.end.122
	jmp	.LBB9_65
.LBB9_65:                               # %do.body.123
	cmpq	$0, -272(%rbp)
	je	.LBB9_67
# BB#66:                                # %if.then.125
	movq	$0, -272(%rbp)
.LBB9_67:                               # %if.end.126
	jmp	.LBB9_68
.LBB9_68:                               # %do.end.127
	jmp	.LBB9_69
.LBB9_69:                               # %do.body.128
	testb	$1, -297(%rbp)
	je	.LBB9_71
# BB#70:                                # %if.then.130
	xorl	%edi, %edi
	movb	$0, -297(%rbp)
	movq	-296(%rbp), %rax
	movq	%rax, -1072(%rbp)       # 8-byte Spill
	callq	builtin_lisp_symbol
	movq	-1072(%rbp), %rdi       # 8-byte Reload
	movq	%rax, %rsi
	callq	unbind_to
	movq	%rax, -1080(%rbp)       # 8-byte Spill
.LBB9_71:                               # %if.end.133
	jmp	.LBB9_72
.LBB9_72:                               # %do.end.134
	jmp	.LBB9_73
.LBB9_73:                               # %do.end.135
	movq	$-1, -24(%rbp)
	jmp	.LBB9_1520
.LBB9_74:                               # %if.end.136
	movq	$1, -104(%rbp)
.LBB9_75:                               # %for.cond
                                        # =>This Inner Loop Header: Depth=1
	movq	-104(%rbp), %rax
	cmpq	-232(%rbp), %rax
	jae	.LBB9_78
# BB#76:                                # %for.body
                                        #   in Loop: Header=BB9_75 Depth=1
	movq	-104(%rbp), %rax
	movq	-248(%rbp), %rcx
	movq	$0, (%rcx,%rax,8)
	movq	-104(%rbp), %rax
	movq	-240(%rbp), %rcx
	movq	$0, (%rcx,%rax,8)
# BB#77:                                # %for.inc
                                        #   in Loop: Header=BB9_75 Depth=1
	movq	-104(%rbp), %rax
	addq	$1, %rax
	movq	%rax, -104(%rbp)
	jmp	.LBB9_75
.LBB9_78:                               # %for.end
	cmpq	$0, -64(%rbp)
	jne	.LBB9_81
# BB#79:                                # %land.lhs.true.142
	cmpq	$0, -40(%rbp)
	je	.LBB9_81
# BB#80:                                # %if.then.145
	movq	-40(%rbp), %rax
	movq	%rax, -56(%rbp)
	movq	-48(%rbp), %rax
	movq	%rax, -64(%rbp)
	movq	$0, -40(%rbp)
	movq	$0, -48(%rbp)
.LBB9_81:                               # %if.end.146
	movq	-40(%rbp), %rax
	addq	-48(%rbp), %rax
	movq	%rax, -112(%rbp)
	movq	-56(%rbp), %rax
	addq	-64(%rbp), %rax
	movq	%rax, -120(%rbp)
	movq	-72(%rbp), %rax
	cmpq	-48(%rbp), %rax
	jb	.LBB9_83
# BB#82:                                # %if.then.151
	xorl	%eax, %eax
	movl	%eax, %ecx
	movq	-56(%rbp), %rdx
	addq	-72(%rbp), %rdx
	movq	%rcx, %rsi
	subq	-48(%rbp), %rsi
	addq	%rsi, %rdx
	movq	%rdx, -144(%rbp)
	movq	-56(%rbp), %rdx
	addq	-88(%rbp), %rdx
	subq	-48(%rbp), %rcx
	addq	%rcx, %rdx
	movq	%rdx, -136(%rbp)
	movq	%rdx, -152(%rbp)
	movq	-112(%rbp), %rcx
	movq	%rcx, -128(%rbp)
	jmp	.LBB9_87
.LBB9_83:                               # %if.else.157
	movq	-88(%rbp), %rax
	cmpq	-48(%rbp), %rax
	jae	.LBB9_85
# BB#84:                                # %if.then.160
	movq	-40(%rbp), %rax
	addq	-88(%rbp), %rax
	movq	%rax, -128(%rbp)
	movq	-128(%rbp), %rax
	movq	%rax, -136(%rbp)
	jmp	.LBB9_86
.LBB9_85:                               # %if.else.162
	xorl	%eax, %eax
	movl	%eax, %ecx
	movq	-112(%rbp), %rdx
	movq	%rdx, -128(%rbp)
	movq	-56(%rbp), %rdx
	addq	-88(%rbp), %rdx
	subq	-48(%rbp), %rcx
	addq	%rcx, %rdx
	movq	%rdx, -136(%rbp)
.LBB9_86:                               # %if.end.166
	movq	-40(%rbp), %rax
	addq	-72(%rbp), %rax
	movq	%rax, -144(%rbp)
	movq	-128(%rbp), %rax
	movq	%rax, -152(%rbp)
.LBB9_87:                               # %if.end.168
	jmp	.LBB9_88
.LBB9_88:                               # %for.cond.169
                                        # =>This Loop Header: Depth=1
                                        #     Child Loop BB9_106 Depth 2
                                        #     Child Loop BB9_1399 Depth 2
                                        #     Child Loop BB9_1347 Depth 2
                                        #     Child Loop BB9_1298 Depth 2
                                        #     Child Loop BB9_1211 Depth 2
                                        #     Child Loop BB9_1245 Depth 2
                                        #     Child Loop BB9_973 Depth 2
                                        #     Child Loop BB9_1141 Depth 2
                                        #     Child Loop BB9_1042 Depth 2
                                        #     Child Loop BB9_1082 Depth 2
                                        #     Child Loop BB9_918 Depth 2
                                        #     Child Loop BB9_883 Depth 2
                                        #     Child Loop BB9_847 Depth 2
                                        #     Child Loop BB9_705 Depth 2
                                        #     Child Loop BB9_717 Depth 2
                                        #     Child Loop BB9_750 Depth 2
                                        #     Child Loop BB9_763 Depth 2
                                        #     Child Loop BB9_674 Depth 2
                                        #     Child Loop BB9_795 Depth 2
                                        #     Child Loop BB9_624 Depth 2
                                        #     Child Loop BB9_584 Depth 2
                                        #       Child Loop BB9_585 Depth 3
                                        #       Child Loop BB9_594 Depth 3
                                        #     Child Loop BB9_541 Depth 2
                                        #     Child Loop BB9_376 Depth 2
                                        #     Child Loop BB9_519 Depth 2
                                        #     Child Loop BB9_348 Depth 2
                                        #     Child Loop BB9_255 Depth 2
                                        #       Child Loop BB9_256 Depth 3
                                        #     Child Loop BB9_295 Depth 2
                                        #       Child Loop BB9_296 Depth 3
                                        #     Child Loop BB9_1427 Depth 2
                                        #       Child Loop BB9_1442 Depth 3
                                        #     Child Loop BB9_1456 Depth 2
	movq	-168(%rbp), %rax
	cmpq	-176(%rbp), %rax
	jne	.LBB9_250
# BB#89:                                # %if.then.172
                                        #   in Loop: Header=BB9_88 Depth=1
	movq	-144(%rbp), %rax
	cmpq	-136(%rbp), %rax
	je	.LBB9_125
# BB#90:                                # %if.then.175
                                        #   in Loop: Header=BB9_88 Depth=1
	xorl	%eax, %eax
	movb	%al, %cl
	cmpq	$0, -48(%rbp)
	movb	%cl, -1081(%rbp)        # 1-byte Spill
	je	.LBB9_93
# BB#91:                                # %land.lhs.true.177
                                        #   in Loop: Header=BB9_88 Depth=1
	xorl	%eax, %eax
	movb	%al, %cl
	movq	-40(%rbp), %rdx
	cmpq	-280(%rbp), %rdx
	movb	%cl, -1081(%rbp)        # 1-byte Spill
	ja	.LBB9_93
# BB#92:                                # %land.rhs
                                        #   in Loop: Header=BB9_88 Depth=1
	movq	-280(%rbp), %rax
	movq	-40(%rbp), %rcx
	addq	-48(%rbp), %rcx
	cmpq	%rcx, %rax
	setbe	%dl
	movb	%dl, -1081(%rbp)        # 1-byte Spill
.LBB9_93:                               # %land.end
                                        #   in Loop: Header=BB9_88 Depth=1
	movb	-1081(%rbp), %al        # 1-byte Reload
	xorl	%ecx, %ecx
	movb	%cl, %dl
	andb	$1, %al
	movzbl	%al, %ecx
	cmpq	$0, -48(%rbp)
	movl	%ecx, -1088(%rbp)       # 4-byte Spill
	movb	%dl, -1089(%rbp)        # 1-byte Spill
	je	.LBB9_96
# BB#94:                                # %land.lhs.true.184
                                        #   in Loop: Header=BB9_88 Depth=1
	xorl	%eax, %eax
	movb	%al, %cl
	movq	-40(%rbp), %rdx
	cmpq	-144(%rbp), %rdx
	movb	%cl, -1089(%rbp)        # 1-byte Spill
	ja	.LBB9_96
# BB#95:                                # %land.rhs.187
                                        #   in Loop: Header=BB9_88 Depth=1
	movq	-144(%rbp), %rax
	movq	-40(%rbp), %rcx
	addq	-48(%rbp), %rcx
	cmpq	%rcx, %rax
	setbe	%dl
	movb	%dl, -1089(%rbp)        # 1-byte Spill
.LBB9_96:                               # %land.end.191
                                        #   in Loop: Header=BB9_88 Depth=1
	movb	-1089(%rbp), %al        # 1-byte Reload
	andb	$1, %al
	movzbl	%al, %ecx
	movl	-1088(%rbp), %edx       # 4-byte Reload
	cmpl	%ecx, %edx
	sete	%al
	andb	$1, %al
	movzbl	%al, %ecx
	movb	%cl, %al
	movb	%al, -313(%rbp)
	cmpb	$0, -313(%rbp)
	je	.LBB9_98
# BB#97:                                # %if.then.197
                                        #   in Loop: Header=BB9_88 Depth=1
	movq	-144(%rbp), %rax
	cmpq	-280(%rbp), %rax
	seta	%cl
	andb	$1, %cl
	movzbl	%cl, %edx
	movb	%dl, %cl
	movb	%cl, -314(%rbp)
	jmp	.LBB9_102
.LBB9_98:                               # %if.else.201
                                        #   in Loop: Header=BB9_88 Depth=1
	xorl	%eax, %eax
	movb	%al, %cl
	cmpq	$0, -48(%rbp)
	movb	%cl, -1090(%rbp)        # 1-byte Spill
	je	.LBB9_101
# BB#99:                                # %land.lhs.true.203
                                        #   in Loop: Header=BB9_88 Depth=1
	xorl	%eax, %eax
	movb	%al, %cl
	movq	-40(%rbp), %rdx
	cmpq	-144(%rbp), %rdx
	movb	%cl, -1090(%rbp)        # 1-byte Spill
	ja	.LBB9_101
# BB#100:                               # %land.rhs.206
                                        #   in Loop: Header=BB9_88 Depth=1
	movq	-144(%rbp), %rax
	movq	-40(%rbp), %rcx
	addq	-48(%rbp), %rcx
	cmpq	%rcx, %rax
	setbe	%dl
	movb	%dl, -1090(%rbp)        # 1-byte Spill
.LBB9_101:                              # %land.end.210
                                        #   in Loop: Header=BB9_88 Depth=1
	movb	-1090(%rbp), %al        # 1-byte Reload
	xorb	$-1, %al
	andb	$1, %al
	movzbl	%al, %ecx
	movb	%cl, %al
	movb	%al, -314(%rbp)
.LBB9_102:                              # %if.end.213
                                        #   in Loop: Header=BB9_88 Depth=1
	cmpq	$0, -200(%rbp)
	je	.LBB9_111
# BB#103:                               # %if.then.217
                                        #   in Loop: Header=BB9_88 Depth=1
	cmpl	$0, -252(%rbp)
	je	.LBB9_105
# BB#104:                               # %lor.lhs.false.219
                                        #   in Loop: Header=BB9_88 Depth=1
	movsbl	-314(%rbp), %eax
	cmpl	$0, %eax
	je	.LBB9_110
.LBB9_105:                              # %if.then.222
                                        #   in Loop: Header=BB9_88 Depth=1
	movl	$1, -252(%rbp)
	movq	-144(%rbp), %rax
	movq	%rax, -280(%rbp)
	movq	$1, -104(%rbp)
.LBB9_106:                              # %for.cond.223
                                        #   Parent Loop BB9_88 Depth=1
                                        # =>  This Inner Loop Header: Depth=2
	movq	-104(%rbp), %rax
	cmpq	-232(%rbp), %rax
	jae	.LBB9_109
# BB#107:                               # %for.body.226
                                        #   in Loop: Header=BB9_106 Depth=2
	movq	-104(%rbp), %rax
	movq	-240(%rbp), %rcx
	movq	(%rcx,%rax,8), %rax
	movq	-104(%rbp), %rcx
	movq	-264(%rbp), %rdx
	movq	%rax, (%rdx,%rcx,8)
	movq	-104(%rbp), %rax
	movq	-248(%rbp), %rcx
	movq	(%rcx,%rax,8), %rax
	movq	-104(%rbp), %rcx
	movq	-272(%rbp), %rdx
	movq	%rax, (%rdx,%rcx,8)
# BB#108:                               # %for.inc.231
                                        #   in Loop: Header=BB9_106 Depth=2
	movq	-104(%rbp), %rax
	addq	$1, %rax
	movq	%rax, -104(%rbp)
	jmp	.LBB9_106
.LBB9_109:                              # %for.end.233
                                        #   in Loop: Header=BB9_88 Depth=1
	jmp	.LBB9_110
.LBB9_110:                              # %if.end.234
                                        #   in Loop: Header=BB9_88 Depth=1
	jmp	.LBB9_1427
.LBB9_111:                              # %if.else.235
	cmpl	$0, -252(%rbp)
	je	.LBB9_123
# BB#112:                               # %land.lhs.true.237
	cmpb	$0, -314(%rbp)
	jne	.LBB9_123
# BB#113:                               # %if.then.239
	jmp	.LBB9_114
.LBB9_114:                              # %restore_best_regs
	movq	-280(%rbp), %rax
	movq	%rax, -144(%rbp)
	movq	-144(%rbp), %rax
	cmpq	-40(%rbp), %rax
	jb	.LBB9_117
# BB#115:                               # %land.lhs.true.242
	movq	-144(%rbp), %rax
	cmpq	-112(%rbp), %rax
	ja	.LBB9_117
# BB#116:                               # %cond.true.245
	movq	-128(%rbp), %rax
	movq	%rax, -1104(%rbp)       # 8-byte Spill
	jmp	.LBB9_118
.LBB9_117:                              # %cond.false.246
	movq	-136(%rbp), %rax
	movq	%rax, -1104(%rbp)       # 8-byte Spill
.LBB9_118:                              # %cond.end.247
	movq	-1104(%rbp), %rax       # 8-byte Reload
	movq	%rax, -152(%rbp)
	movq	$1, -104(%rbp)
.LBB9_119:                              # %for.cond.249
                                        # =>This Inner Loop Header: Depth=1
	movq	-104(%rbp), %rax
	cmpq	-232(%rbp), %rax
	jae	.LBB9_122
# BB#120:                               # %for.body.252
                                        #   in Loop: Header=BB9_119 Depth=1
	movq	-104(%rbp), %rax
	movq	-264(%rbp), %rcx
	movq	(%rcx,%rax,8), %rax
	movq	-104(%rbp), %rcx
	movq	-240(%rbp), %rdx
	movq	%rax, (%rdx,%rcx,8)
	movq	-104(%rbp), %rax
	movq	-272(%rbp), %rcx
	movq	(%rcx,%rax,8), %rax
	movq	-104(%rbp), %rcx
	movq	-248(%rbp), %rdx
	movq	%rax, (%rdx,%rcx,8)
# BB#121:                               # %for.inc.257
                                        #   in Loop: Header=BB9_119 Depth=1
	movq	-104(%rbp), %rax
	addq	$1, %rax
	movq	%rax, -104(%rbp)
	jmp	.LBB9_119
.LBB9_122:                              # %for.end.259
	jmp	.LBB9_123
.LBB9_123:                              # %if.end.260
	jmp	.LBB9_124
.LBB9_124:                              # %if.end.261
	jmp	.LBB9_125
.LBB9_125:                              # %if.end.262
	jmp	.LBB9_126
.LBB9_126:                              # %succeed_label
	cmpq	$0, -80(%rbp)
	je	.LBB9_222
# BB#127:                               # %land.lhs.true.264
	movq	-32(%rbp), %rax
	movw	56(%rax), %cx
	shrw	$4, %cx
	andw	$1, %cx
	movzwl	%cx, %edx
	cmpl	$0, %edx
	jne	.LBB9_222
# BB#128:                               # %if.then.270
	movq	-32(%rbp), %rax
	movw	56(%rax), %cx
	shrw	$1, %cx
	andw	$3, %cx
	movzwl	%cx, %edx
	cmpl	$0, %edx
	jne	.LBB9_158
# BB#129:                               # %if.then.277
	movl	$30, %eax
	movl	%eax, %ecx
	movq	-232(%rbp), %rdx
	addq	$1, %rdx
	cmpq	%rdx, %rcx
	jbe	.LBB9_131
# BB#130:                               # %cond.true.281
	movl	$30, %eax
	movl	%eax, %ecx
	movq	%rcx, -1112(%rbp)       # 8-byte Spill
	jmp	.LBB9_132
.LBB9_131:                              # %cond.false.282
	movq	-232(%rbp), %rax
	addq	$1, %rax
	movq	%rax, -1112(%rbp)       # 8-byte Spill
.LBB9_132:                              # %cond.end.284
	movq	-1112(%rbp), %rax       # 8-byte Reload
	movl	%eax, %ecx
	movq	-80(%rbp), %rax
	movl	%ecx, (%rax)
	movq	-80(%rbp), %rax
	movl	(%rax), %ecx
	movl	%ecx, %eax
	shlq	$3, %rax
	movq	%rax, %rdi
	callq	xmalloc
	movq	-80(%rbp), %rdi
	movq	%rax, 8(%rdi)
	movq	-80(%rbp), %rax
	movl	(%rax), %ecx
	movl	%ecx, %eax
	shlq	$3, %rax
	movq	%rax, %rdi
	callq	xmalloc
	movq	-80(%rbp), %rdi
	movq	%rax, 16(%rdi)
	movq	-80(%rbp), %rax
	cmpq	$0, 8(%rax)
	je	.LBB9_134
# BB#133:                               # %lor.lhs.false.299
	movq	-80(%rbp), %rax
	cmpq	$0, 16(%rax)
	jne	.LBB9_157
.LBB9_134:                              # %if.then.303
	jmp	.LBB9_135
.LBB9_135:                              # %do.body.304
	jmp	.LBB9_136
.LBB9_136:                              # %do.body.305
	cmpq	$0, -240(%rbp)
	je	.LBB9_138
# BB#137:                               # %if.then.307
	movq	$0, -240(%rbp)
.LBB9_138:                              # %if.end.308
	jmp	.LBB9_139
.LBB9_139:                              # %do.end.309
	jmp	.LBB9_140
.LBB9_140:                              # %do.body.310
	cmpq	$0, -248(%rbp)
	je	.LBB9_142
# BB#141:                               # %if.then.312
	movq	$0, -248(%rbp)
.LBB9_142:                              # %if.end.313
	jmp	.LBB9_143
.LBB9_143:                              # %do.end.314
	jmp	.LBB9_144
.LBB9_144:                              # %do.body.315
	cmpq	$0, -264(%rbp)
	je	.LBB9_146
# BB#145:                               # %if.then.317
	movq	$0, -264(%rbp)
.LBB9_146:                              # %if.end.318
	jmp	.LBB9_147
.LBB9_147:                              # %do.end.319
	jmp	.LBB9_148
.LBB9_148:                              # %do.body.320
	cmpq	$0, -272(%rbp)
	je	.LBB9_150
# BB#149:                               # %if.then.322
	movq	$0, -272(%rbp)
.LBB9_150:                              # %if.end.323
	jmp	.LBB9_151
.LBB9_151:                              # %do.end.324
	jmp	.LBB9_152
.LBB9_152:                              # %do.body.325
	testb	$1, -297(%rbp)
	je	.LBB9_154
# BB#153:                               # %if.then.327
	xorl	%edi, %edi
	movb	$0, -297(%rbp)
	movq	-296(%rbp), %rax
	movq	%rax, -1120(%rbp)       # 8-byte Spill
	callq	builtin_lisp_symbol
	movq	-1120(%rbp), %rdi       # 8-byte Reload
	movq	%rax, %rsi
	callq	unbind_to
	movq	%rax, -1128(%rbp)       # 8-byte Spill
.LBB9_154:                              # %if.end.330
	jmp	.LBB9_155
.LBB9_155:                              # %do.end.331
	jmp	.LBB9_156
.LBB9_156:                              # %do.end.332
	movq	$-2, -24(%rbp)
	jmp	.LBB9_1520
.LBB9_157:                              # %if.end.333
	movq	-32(%rbp), %rax
	movw	56(%rax), %cx
	andw	$-7, %cx
	orw	$2, %cx
	movw	%cx, 56(%rax)
	jmp	.LBB9_189
.LBB9_158:                              # %if.else.337
	movq	-32(%rbp), %rax
	movw	56(%rax), %cx
	shrw	$1, %cx
	andw	$3, %cx
	movzwl	%cx, %edx
	cmpl	$1, %edx
	jne	.LBB9_187
# BB#159:                               # %if.then.345
	movq	-80(%rbp), %rax
	movl	(%rax), %ecx
	movl	%ecx, %eax
	movq	-232(%rbp), %rdx
	addq	$1, %rdx
	cmpq	%rdx, %rax
	jae	.LBB9_186
# BB#160:                               # %if.then.351
	movq	-232(%rbp), %rax
	addq	$1, %rax
	movl	%eax, %ecx
	movq	-80(%rbp), %rax
	movl	%ecx, (%rax)
	movq	-80(%rbp), %rax
	movq	8(%rax), %rax
	movq	-80(%rbp), %rdx
	movl	(%rdx), %ecx
	movl	%ecx, %edx
	shlq	$3, %rdx
	movq	%rax, %rdi
	movq	%rdx, %rsi
	callq	xrealloc
	movq	-80(%rbp), %rdx
	movq	%rax, 8(%rdx)
	movq	-80(%rbp), %rax
	movq	16(%rax), %rax
	movq	-80(%rbp), %rdx
	movl	(%rdx), %ecx
	movl	%ecx, %edx
	shlq	$3, %rdx
	movq	%rax, %rdi
	movq	%rdx, %rsi
	callq	xrealloc
	movq	-80(%rbp), %rdx
	movq	%rax, 16(%rdx)
	movq	-80(%rbp), %rax
	cmpq	$0, 8(%rax)
	je	.LBB9_162
# BB#161:                               # %lor.lhs.false.370
	movq	-80(%rbp), %rax
	cmpq	$0, 16(%rax)
	jne	.LBB9_185
.LBB9_162:                              # %if.then.374
	jmp	.LBB9_163
.LBB9_163:                              # %do.body.375
	jmp	.LBB9_164
.LBB9_164:                              # %do.body.376
	cmpq	$0, -240(%rbp)
	je	.LBB9_166
# BB#165:                               # %if.then.378
	movq	$0, -240(%rbp)
.LBB9_166:                              # %if.end.379
	jmp	.LBB9_167
.LBB9_167:                              # %do.end.380
	jmp	.LBB9_168
.LBB9_168:                              # %do.body.381
	cmpq	$0, -248(%rbp)
	je	.LBB9_170
# BB#169:                               # %if.then.383
	movq	$0, -248(%rbp)
.LBB9_170:                              # %if.end.384
	jmp	.LBB9_171
.LBB9_171:                              # %do.end.385
	jmp	.LBB9_172
.LBB9_172:                              # %do.body.386
	cmpq	$0, -264(%rbp)
	je	.LBB9_174
# BB#173:                               # %if.then.388
	movq	$0, -264(%rbp)
.LBB9_174:                              # %if.end.389
	jmp	.LBB9_175
.LBB9_175:                              # %do.end.390
	jmp	.LBB9_176
.LBB9_176:                              # %do.body.391
	cmpq	$0, -272(%rbp)
	je	.LBB9_178
# BB#177:                               # %if.then.393
	movq	$0, -272(%rbp)
.LBB9_178:                              # %if.end.394
	jmp	.LBB9_179
.LBB9_179:                              # %do.end.395
	jmp	.LBB9_180
.LBB9_180:                              # %do.body.396
	testb	$1, -297(%rbp)
	je	.LBB9_182
# BB#181:                               # %if.then.398
	xorl	%edi, %edi
	movb	$0, -297(%rbp)
	movq	-296(%rbp), %rax
	movq	%rax, -1136(%rbp)       # 8-byte Spill
	callq	builtin_lisp_symbol
	movq	-1136(%rbp), %rdi       # 8-byte Reload
	movq	%rax, %rsi
	callq	unbind_to
	movq	%rax, -1144(%rbp)       # 8-byte Spill
.LBB9_182:                              # %if.end.401
	jmp	.LBB9_183
.LBB9_183:                              # %do.end.402
	jmp	.LBB9_184
.LBB9_184:                              # %do.end.403
	movq	$-2, -24(%rbp)
	jmp	.LBB9_1520
.LBB9_185:                              # %if.end.404
	jmp	.LBB9_186
.LBB9_186:                              # %if.end.405
	jmp	.LBB9_188
.LBB9_187:                              # %if.else.406
	jmp	.LBB9_188
.LBB9_188:                              # %if.end.407
	jmp	.LBB9_189
.LBB9_189:                              # %if.end.408
	movq	-80(%rbp), %rax
	cmpl	$0, (%rax)
	jbe	.LBB9_196
# BB#190:                               # %if.then.412
	movq	-72(%rbp), %rax
	movq	-80(%rbp), %rcx
	movq	8(%rcx), %rcx
	movq	%rax, (%rcx)
	cmpq	$0, -48(%rbp)
	je	.LBB9_194
# BB#191:                               # %land.lhs.true.416
	movq	-40(%rbp), %rax
	cmpq	-144(%rbp), %rax
	ja	.LBB9_194
# BB#192:                               # %land.lhs.true.419
	movq	-144(%rbp), %rax
	movq	-40(%rbp), %rcx
	addq	-48(%rbp), %rcx
	cmpq	%rcx, %rax
	ja	.LBB9_194
# BB#193:                               # %cond.true.423
	movq	-144(%rbp), %rax
	movq	-40(%rbp), %rcx
	subq	%rcx, %rax
	movq	%rax, -1152(%rbp)       # 8-byte Spill
	jmp	.LBB9_195
.LBB9_194:                              # %cond.false.424
	movq	-144(%rbp), %rax
	movq	-56(%rbp), %rcx
	subq	%rcx, %rax
	addq	-48(%rbp), %rax
	movq	%rax, -1152(%rbp)       # 8-byte Spill
.LBB9_195:                              # %cond.end.429
	movq	-1152(%rbp), %rax       # 8-byte Reload
	movq	-80(%rbp), %rcx
	movq	16(%rcx), %rcx
	movq	%rax, (%rcx)
.LBB9_196:                              # %if.end.433
	movq	$1, -104(%rbp)
.LBB9_197:                              # %for.cond.434
                                        # =>This Inner Loop Header: Depth=1
	movq	-104(%rbp), %rax
	movq	-232(%rbp), %rcx
	movq	-80(%rbp), %rdx
	movl	(%rdx), %esi
	movl	%esi, %edx
	cmpq	%rdx, %rcx
	movq	%rax, -1160(%rbp)       # 8-byte Spill
	jae	.LBB9_199
# BB#198:                               # %cond.true.439
                                        #   in Loop: Header=BB9_197 Depth=1
	movq	-232(%rbp), %rax
	movq	%rax, -1168(%rbp)       # 8-byte Spill
	jmp	.LBB9_200
.LBB9_199:                              # %cond.false.440
                                        #   in Loop: Header=BB9_197 Depth=1
	movq	-80(%rbp), %rax
	movl	(%rax), %ecx
	movl	%ecx, %eax
	movq	%rax, -1168(%rbp)       # 8-byte Spill
.LBB9_200:                              # %cond.end.443
                                        #   in Loop: Header=BB9_197 Depth=1
	movq	-1168(%rbp), %rax       # 8-byte Reload
	movq	-1160(%rbp), %rcx       # 8-byte Reload
	cmpq	%rax, %rcx
	jae	.LBB9_217
# BB#201:                               # %for.body.447
                                        #   in Loop: Header=BB9_197 Depth=1
	movq	-104(%rbp), %rax
	movq	-240(%rbp), %rcx
	cmpq	$0, (%rcx,%rax,8)
	je	.LBB9_203
# BB#202:                               # %lor.lhs.false.451
                                        #   in Loop: Header=BB9_197 Depth=1
	movq	-104(%rbp), %rax
	movq	-248(%rbp), %rcx
	cmpq	$0, (%rcx,%rax,8)
	jne	.LBB9_204
.LBB9_203:                              # %if.then.455
                                        #   in Loop: Header=BB9_197 Depth=1
	movq	-104(%rbp), %rax
	movq	-80(%rbp), %rcx
	movq	16(%rcx), %rcx
	movq	$-1, (%rcx,%rax,8)
	movq	-104(%rbp), %rax
	movq	-80(%rbp), %rcx
	movq	8(%rcx), %rcx
	movq	$-1, (%rcx,%rax,8)
	jmp	.LBB9_215
.LBB9_204:                              # %if.else.460
                                        #   in Loop: Header=BB9_197 Depth=1
	cmpq	$0, -48(%rbp)
	je	.LBB9_208
# BB#205:                               # %land.lhs.true.462
                                        #   in Loop: Header=BB9_197 Depth=1
	movq	-40(%rbp), %rax
	movq	-104(%rbp), %rcx
	movq	-240(%rbp), %rdx
	cmpq	(%rdx,%rcx,8), %rax
	ja	.LBB9_208
# BB#206:                               # %land.lhs.true.466
                                        #   in Loop: Header=BB9_197 Depth=1
	movq	-104(%rbp), %rax
	movq	-240(%rbp), %rcx
	movq	(%rcx,%rax,8), %rax
	movq	-40(%rbp), %rcx
	addq	-48(%rbp), %rcx
	cmpq	%rcx, %rax
	ja	.LBB9_208
# BB#207:                               # %cond.true.471
                                        #   in Loop: Header=BB9_197 Depth=1
	movq	-104(%rbp), %rax
	movq	-240(%rbp), %rcx
	movq	(%rcx,%rax,8), %rax
	movq	-40(%rbp), %rcx
	subq	%rcx, %rax
	movq	%rax, -1176(%rbp)       # 8-byte Spill
	jmp	.LBB9_209
.LBB9_208:                              # %cond.false.476
                                        #   in Loop: Header=BB9_197 Depth=1
	movq	-104(%rbp), %rax
	movq	-240(%rbp), %rcx
	movq	(%rcx,%rax,8), %rax
	movq	-56(%rbp), %rcx
	subq	%rcx, %rax
	addq	-48(%rbp), %rax
	movq	%rax, -1176(%rbp)       # 8-byte Spill
.LBB9_209:                              # %cond.end.482
                                        #   in Loop: Header=BB9_197 Depth=1
	movq	-1176(%rbp), %rax       # 8-byte Reload
	movq	-104(%rbp), %rcx
	movq	-80(%rbp), %rdx
	movq	8(%rdx), %rdx
	movq	%rax, (%rdx,%rcx,8)
	cmpq	$0, -48(%rbp)
	je	.LBB9_213
# BB#210:                               # %land.lhs.true.487
                                        #   in Loop: Header=BB9_197 Depth=1
	movq	-40(%rbp), %rax
	movq	-104(%rbp), %rcx
	movq	-248(%rbp), %rdx
	cmpq	(%rdx,%rcx,8), %rax
	ja	.LBB9_213
# BB#211:                               # %land.lhs.true.491
                                        #   in Loop: Header=BB9_197 Depth=1
	movq	-104(%rbp), %rax
	movq	-248(%rbp), %rcx
	movq	(%rcx,%rax,8), %rax
	movq	-40(%rbp), %rcx
	addq	-48(%rbp), %rcx
	cmpq	%rcx, %rax
	ja	.LBB9_213
# BB#212:                               # %cond.true.496
                                        #   in Loop: Header=BB9_197 Depth=1
	movq	-104(%rbp), %rax
	movq	-248(%rbp), %rcx
	movq	(%rcx,%rax,8), %rax
	movq	-40(%rbp), %rcx
	subq	%rcx, %rax
	movq	%rax, -1184(%rbp)       # 8-byte Spill
	jmp	.LBB9_214
.LBB9_213:                              # %cond.false.501
                                        #   in Loop: Header=BB9_197 Depth=1
	movq	-104(%rbp), %rax
	movq	-248(%rbp), %rcx
	movq	(%rcx,%rax,8), %rax
	movq	-56(%rbp), %rcx
	subq	%rcx, %rax
	addq	-48(%rbp), %rax
	movq	%rax, -1184(%rbp)       # 8-byte Spill
.LBB9_214:                              # %cond.end.507
                                        #   in Loop: Header=BB9_197 Depth=1
	movq	-1184(%rbp), %rax       # 8-byte Reload
	movq	-104(%rbp), %rcx
	movq	-80(%rbp), %rdx
	movq	16(%rdx), %rdx
	movq	%rax, (%rdx,%rcx,8)
.LBB9_215:                              # %if.end.511
                                        #   in Loop: Header=BB9_197 Depth=1
	jmp	.LBB9_216
.LBB9_216:                              # %for.inc.512
                                        #   in Loop: Header=BB9_197 Depth=1
	movq	-104(%rbp), %rax
	addq	$1, %rax
	movq	%rax, -104(%rbp)
	jmp	.LBB9_197
.LBB9_217:                              # %for.end.514
	movq	-232(%rbp), %rax
	movq	%rax, -104(%rbp)
.LBB9_218:                              # %for.cond.515
                                        # =>This Inner Loop Header: Depth=1
	movq	-104(%rbp), %rax
	movq	-80(%rbp), %rcx
	movl	(%rcx), %edx
	movl	%edx, %ecx
	cmpq	%rcx, %rax
	jae	.LBB9_221
# BB#219:                               # %for.body.520
                                        #   in Loop: Header=BB9_218 Depth=1
	movq	-104(%rbp), %rax
	movq	-80(%rbp), %rcx
	movq	16(%rcx), %rcx
	movq	$-1, (%rcx,%rax,8)
	movq	-104(%rbp), %rax
	movq	-80(%rbp), %rcx
	movq	8(%rcx), %rcx
	movq	$-1, (%rcx,%rax,8)
# BB#220:                               # %for.inc.525
                                        #   in Loop: Header=BB9_218 Depth=1
	movq	-104(%rbp), %rax
	addq	$1, %rax
	movq	%rax, -104(%rbp)
	jmp	.LBB9_218
.LBB9_221:                              # %for.end.527
	jmp	.LBB9_222
.LBB9_222:                              # %if.end.528
	cmpq	$0, -48(%rbp)
	je	.LBB9_226
# BB#223:                               # %land.lhs.true.530
	movq	-40(%rbp), %rax
	cmpq	-144(%rbp), %rax
	ja	.LBB9_226
# BB#224:                               # %land.lhs.true.533
	movq	-144(%rbp), %rax
	movq	-40(%rbp), %rcx
	addq	-48(%rbp), %rcx
	cmpq	%rcx, %rax
	ja	.LBB9_226
# BB#225:                               # %cond.true.537
	movq	-144(%rbp), %rax
	movq	-40(%rbp), %rcx
	subq	%rcx, %rax
	movq	%rax, -1192(%rbp)       # 8-byte Spill
	jmp	.LBB9_227
.LBB9_226:                              # %cond.false.541
	movq	-144(%rbp), %rax
	movq	-56(%rbp), %rcx
	subq	%rcx, %rax
	addq	-48(%rbp), %rax
	movq	%rax, -1192(%rbp)       # 8-byte Spill
.LBB9_227:                              # %cond.end.546
	movq	-1192(%rbp), %rax       # 8-byte Reload
	subq	-72(%rbp), %rax
	movq	%rax, -312(%rbp)
# BB#228:                               # %do.body.549
	jmp	.LBB9_229
.LBB9_229:                              # %do.body.550
	cmpq	$0, -240(%rbp)
	je	.LBB9_231
# BB#230:                               # %if.then.552
	movq	$0, -240(%rbp)
.LBB9_231:                              # %if.end.553
	jmp	.LBB9_232
.LBB9_232:                              # %do.end.554
	jmp	.LBB9_233
.LBB9_233:                              # %do.body.555
	cmpq	$0, -248(%rbp)
	je	.LBB9_235
# BB#234:                               # %if.then.557
	movq	$0, -248(%rbp)
.LBB9_235:                              # %if.end.558
	jmp	.LBB9_236
.LBB9_236:                              # %do.end.559
	jmp	.LBB9_237
.LBB9_237:                              # %do.body.560
	cmpq	$0, -264(%rbp)
	je	.LBB9_239
# BB#238:                               # %if.then.562
	movq	$0, -264(%rbp)
.LBB9_239:                              # %if.end.563
	jmp	.LBB9_240
.LBB9_240:                              # %do.end.564
	jmp	.LBB9_241
.LBB9_241:                              # %do.body.565
	cmpq	$0, -272(%rbp)
	je	.LBB9_243
# BB#242:                               # %if.then.567
	movq	$0, -272(%rbp)
.LBB9_243:                              # %if.end.568
	jmp	.LBB9_244
.LBB9_244:                              # %do.end.569
	jmp	.LBB9_245
.LBB9_245:                              # %do.body.570
	testb	$1, -297(%rbp)
	je	.LBB9_247
# BB#246:                               # %if.then.572
	xorl	%edi, %edi
	movb	$0, -297(%rbp)
	movq	-296(%rbp), %rax
	movq	%rax, -1200(%rbp)       # 8-byte Spill
	callq	builtin_lisp_symbol
	movq	-1200(%rbp), %rdi       # 8-byte Reload
	movq	%rax, %rsi
	callq	unbind_to
	movq	%rax, -1208(%rbp)       # 8-byte Spill
.LBB9_247:                              # %if.end.575
	jmp	.LBB9_248
.LBB9_248:                              # %do.end.576
	jmp	.LBB9_249
.LBB9_249:                              # %do.end.577
	movq	-312(%rbp), %rax
	movq	%rax, -24(%rbp)
	jmp	.LBB9_1520
.LBB9_250:                              # %if.end.578
                                        #   in Loop: Header=BB9_88 Depth=1
	movq	-168(%rbp), %rax
	movq	%rax, %rcx
	incq	%rcx
	movq	%rcx, -168(%rbp)
	movzbl	(%rax), %edx
	movl	%edx, %eax
	movq	%rax, %rcx
	subq	$34, %rcx
	movq	%rax, -1216(%rbp)       # 8-byte Spill
	movq	%rcx, -1224(%rbp)       # 8-byte Spill
	ja	.LBB9_1425
# BB#1521:                              # %if.end.578
                                        #   in Loop: Header=BB9_88 Depth=1
	movq	-1216(%rbp), %rax       # 8-byte Reload
	movq	.LJTI9_0(,%rax,8), %rcx
	jmpq	*%rcx
.LBB9_251:                              # %sw.bb
                                        #   in Loop: Header=BB9_88 Depth=1
	jmp	.LBB9_1426
.LBB9_252:                              # %sw.bb.580
	jmp	.LBB9_126
.LBB9_253:                              # %sw.bb.581
                                        #   in Loop: Header=BB9_88 Depth=1
	movq	-168(%rbp), %rax
	movq	%rax, %rcx
	addq	$1, %rcx
	movq	%rcx, -168(%rbp)
	movzbl	(%rax), %edx
	movl	%edx, -92(%rbp)
	movq	-144(%rbp), %rax
	movq	%rax, -160(%rbp)
	cmpb	$0, -186(%rbp)
	je	.LBB9_294
# BB#254:                               # %if.then.585
                                        #   in Loop: Header=BB9_88 Depth=1
	jmp	.LBB9_255
.LBB9_255:                              # %do.body.586
                                        #   Parent Loop BB9_88 Depth=1
                                        # =>  This Loop Header: Depth=2
                                        #       Child Loop BB9_256 Depth 3
	jmp	.LBB9_256
.LBB9_256:                              # %while.cond
                                        #   Parent Loop BB9_88 Depth=1
                                        #     Parent Loop BB9_255 Depth=2
                                        # =>    This Inner Loop Header: Depth=3
	movq	-144(%rbp), %rax
	cmpq	-152(%rbp), %rax
	jne	.LBB9_260
# BB#257:                               # %while.body
                                        #   in Loop: Header=BB9_256 Depth=3
	movq	-152(%rbp), %rax
	cmpq	-136(%rbp), %rax
	jne	.LBB9_259
# BB#258:                               # %if.then.591
                                        #   in Loop: Header=BB9_88 Depth=1
	jmp	.LBB9_1427
.LBB9_259:                              # %if.end.592
                                        #   in Loop: Header=BB9_256 Depth=3
	movq	-56(%rbp), %rax
	movq	%rax, -144(%rbp)
	movq	-136(%rbp), %rax
	movq	%rax, -152(%rbp)
	jmp	.LBB9_256
.LBB9_260:                              # %while.end
                                        #   in Loop: Header=BB9_255 Depth=2
	cmpb	$0, -185(%rbp)
	je	.LBB9_271
# BB#261:                               # %if.then.594
                                        #   in Loop: Header=BB9_255 Depth=2
	movq	-168(%rbp), %rax
	movzbl	(%rax), %ecx
	andl	$128, %ecx
	cmpl	$0, %ecx
	jne	.LBB9_263
# BB#262:                               # %cond.true.598
                                        #   in Loop: Header=BB9_255 Depth=2
	movl	$1, -320(%rbp)
	movq	-168(%rbp), %rax
	movzbl	(%rax), %ecx
	movl	%ecx, -1228(%rbp)       # 4-byte Spill
	jmp	.LBB9_270
.LBB9_263:                              # %cond.false.601
                                        #   in Loop: Header=BB9_255 Depth=2
	movq	-168(%rbp), %rax
	movzbl	(%rax), %ecx
	andl	$32, %ecx
	cmpl	$0, %ecx
	jne	.LBB9_265
# BB#264:                               # %cond.true.606
                                        #   in Loop: Header=BB9_255 Depth=2
	xorl	%eax, %eax
	movl	$4194176, %ecx          # imm = 0x3FFF80
	movl	$2, -320(%rbp)
	movq	-168(%rbp), %rdx
	movzbl	(%rdx), %esi
	andl	$31, %esi
	shll	$6, %esi
	movq	-168(%rbp), %rdx
	movzbl	1(%rdx), %edi
	andl	$63, %edi
	orl	%edi, %esi
	movq	-168(%rbp), %rdx
	movzbl	(%rdx), %edi
	cmpl	$194, %edi
	cmovll	%ecx, %eax
	addl	%eax, %esi
	movl	%esi, -1232(%rbp)       # 4-byte Spill
	jmp	.LBB9_269
.LBB9_265:                              # %cond.false.619
                                        #   in Loop: Header=BB9_255 Depth=2
	movq	-168(%rbp), %rax
	movzbl	(%rax), %ecx
	andl	$16, %ecx
	cmpl	$0, %ecx
	jne	.LBB9_267
# BB#266:                               # %cond.true.624
                                        #   in Loop: Header=BB9_255 Depth=2
	movl	$3, -320(%rbp)
	movq	-168(%rbp), %rax
	movzbl	(%rax), %ecx
	andl	$15, %ecx
	shll	$12, %ecx
	movq	-168(%rbp), %rax
	movzbl	1(%rax), %edx
	andl	$63, %edx
	shll	$6, %edx
	orl	%edx, %ecx
	movq	-168(%rbp), %rax
	movzbl	2(%rax), %edx
	andl	$63, %edx
	orl	%edx, %ecx
	movl	%ecx, -1236(%rbp)       # 4-byte Spill
	jmp	.LBB9_268
.LBB9_267:                              # %cond.false.638
                                        #   in Loop: Header=BB9_255 Depth=2
	xorl	%eax, %eax
	movl	%eax, %esi
	leaq	-320(%rbp), %rdx
	movq	-168(%rbp), %rdi
	callq	string_char
	movl	%eax, -1236(%rbp)       # 4-byte Spill
.LBB9_268:                              # %cond.end.640
                                        #   in Loop: Header=BB9_255 Depth=2
	movl	-1236(%rbp), %eax       # 4-byte Reload
	movl	%eax, -1232(%rbp)       # 4-byte Spill
.LBB9_269:                              # %cond.end.642
                                        #   in Loop: Header=BB9_255 Depth=2
	movl	-1232(%rbp), %eax       # 4-byte Reload
	movl	%eax, -1228(%rbp)       # 4-byte Spill
.LBB9_270:                              # %cond.end.644
                                        #   in Loop: Header=BB9_255 Depth=2
	movl	-1228(%rbp), %eax       # 4-byte Reload
	movl	%eax, -328(%rbp)
	jmp	.LBB9_277
.LBB9_271:                              # %if.else.646
                                        #   in Loop: Header=BB9_255 Depth=2
	movb	$1, %al
	testb	$1, %al
	jne	.LBB9_272
	jmp	.LBB9_273
.LBB9_272:                              # %cond.true.647
                                        #   in Loop: Header=BB9_255 Depth=2
	movq	-168(%rbp), %rax
	movzbl	(%rax), %ecx
	addl	$0, %ecx
	cmpl	$128, %ecx
	jb	.LBB9_274
	jmp	.LBB9_275
.LBB9_273:                              # %cond.false.652
                                        #   in Loop: Header=BB9_255 Depth=2
	movq	-168(%rbp), %rax
	movzbl	(%rax), %ecx
	movl	%ecx, %eax
	addq	$0, %rax
	cmpq	$128, %rax
	jae	.LBB9_275
.LBB9_274:                              # %cond.true.657
                                        #   in Loop: Header=BB9_255 Depth=2
	movq	-168(%rbp), %rax
	movzbl	(%rax), %ecx
	movl	%ecx, -1240(%rbp)       # 4-byte Spill
	jmp	.LBB9_276
.LBB9_275:                              # %cond.false.659
                                        #   in Loop: Header=BB9_255 Depth=2
	movq	-168(%rbp), %rax
	movzbl	(%rax), %ecx
	addl	$4194048, %ecx          # imm = 0x3FFF00
	movl	%ecx, -1240(%rbp)       # 4-byte Spill
.LBB9_276:                              # %cond.end.662
                                        #   in Loop: Header=BB9_255 Depth=2
	movl	-1240(%rbp), %eax       # 4-byte Reload
	movl	%eax, -328(%rbp)
	movl	$1, -320(%rbp)
.LBB9_277:                              # %if.end.664
                                        #   in Loop: Header=BB9_255 Depth=2
	movq	-144(%rbp), %rax
	movzbl	(%rax), %ecx
	andl	$128, %ecx
	cmpl	$0, %ecx
	jne	.LBB9_279
# BB#278:                               # %cond.true.669
                                        #   in Loop: Header=BB9_255 Depth=2
	movl	$1, -324(%rbp)
	movq	-144(%rbp), %rax
	movzbl	(%rax), %ecx
	movl	%ecx, -1244(%rbp)       # 4-byte Spill
	jmp	.LBB9_286
.LBB9_279:                              # %cond.false.672
                                        #   in Loop: Header=BB9_255 Depth=2
	movq	-144(%rbp), %rax
	movzbl	(%rax), %ecx
	andl	$32, %ecx
	cmpl	$0, %ecx
	jne	.LBB9_281
# BB#280:                               # %cond.true.677
                                        #   in Loop: Header=BB9_255 Depth=2
	xorl	%eax, %eax
	movl	$4194176, %ecx          # imm = 0x3FFF80
	movl	$2, -324(%rbp)
	movq	-144(%rbp), %rdx
	movzbl	(%rdx), %esi
	andl	$31, %esi
	shll	$6, %esi
	movq	-144(%rbp), %rdx
	movzbl	1(%rdx), %edi
	andl	$63, %edi
	orl	%edi, %esi
	movq	-144(%rbp), %rdx
	movzbl	(%rdx), %edi
	cmpl	$194, %edi
	cmovll	%ecx, %eax
	addl	%eax, %esi
	movl	%esi, -1248(%rbp)       # 4-byte Spill
	jmp	.LBB9_285
.LBB9_281:                              # %cond.false.692
                                        #   in Loop: Header=BB9_255 Depth=2
	movq	-144(%rbp), %rax
	movzbl	(%rax), %ecx
	andl	$16, %ecx
	cmpl	$0, %ecx
	jne	.LBB9_283
# BB#282:                               # %cond.true.697
                                        #   in Loop: Header=BB9_255 Depth=2
	movl	$3, -324(%rbp)
	movq	-144(%rbp), %rax
	movzbl	(%rax), %ecx
	andl	$15, %ecx
	shll	$12, %ecx
	movq	-144(%rbp), %rax
	movzbl	1(%rax), %edx
	andl	$63, %edx
	shll	$6, %edx
	orl	%edx, %ecx
	movq	-144(%rbp), %rax
	movzbl	2(%rax), %edx
	andl	$63, %edx
	orl	%edx, %ecx
	movl	%ecx, -1252(%rbp)       # 4-byte Spill
	jmp	.LBB9_284
.LBB9_283:                              # %cond.false.711
                                        #   in Loop: Header=BB9_255 Depth=2
	xorl	%eax, %eax
	movl	%eax, %esi
	leaq	-324(%rbp), %rdx
	movq	-144(%rbp), %rdi
	callq	string_char
	movl	%eax, -1252(%rbp)       # 4-byte Spill
.LBB9_284:                              # %cond.end.713
                                        #   in Loop: Header=BB9_255 Depth=2
	movl	-1252(%rbp), %eax       # 4-byte Reload
	movl	%eax, -1248(%rbp)       # 4-byte Spill
.LBB9_285:                              # %cond.end.715
                                        #   in Loop: Header=BB9_255 Depth=2
	movl	-1248(%rbp), %eax       # 4-byte Reload
	movl	%eax, -1244(%rbp)       # 4-byte Spill
.LBB9_286:                              # %cond.end.717
                                        #   in Loop: Header=BB9_255 Depth=2
	movl	-1244(%rbp), %eax       # 4-byte Reload
	movl	%eax, -332(%rbp)
	cmpq	$2, -184(%rbp)
	je	.LBB9_288
# BB#287:                               # %cond.true.721
                                        #   in Loop: Header=BB9_255 Depth=2
	movq	-184(%rbp), %rdi
	movl	-332(%rbp), %esi
	callq	char_table_translate
	movl	%eax, -1256(%rbp)       # 4-byte Spill
	jmp	.LBB9_289
.LBB9_288:                              # %cond.false.723
                                        #   in Loop: Header=BB9_255 Depth=2
	movl	-332(%rbp), %eax
	movl	%eax, -1256(%rbp)       # 4-byte Spill
.LBB9_289:                              # %cond.end.724
                                        #   in Loop: Header=BB9_255 Depth=2
	movl	-1256(%rbp), %eax       # 4-byte Reload
	cmpl	-328(%rbp), %eax
	je	.LBB9_291
# BB#290:                               # %if.then.728
                                        #   in Loop: Header=BB9_88 Depth=1
	movq	-160(%rbp), %rax
	movq	%rax, -144(%rbp)
	jmp	.LBB9_1427
.LBB9_291:                              # %if.end.729
                                        #   in Loop: Header=BB9_255 Depth=2
	movl	-320(%rbp), %eax
	movq	-168(%rbp), %rcx
	movslq	%eax, %rdx
	addq	%rdx, %rcx
	movq	%rcx, -168(%rbp)
	movl	-324(%rbp), %eax
	movq	-144(%rbp), %rcx
	movslq	%eax, %rdx
	addq	%rdx, %rcx
	movq	%rcx, -144(%rbp)
	movl	-320(%rbp), %eax
	movl	-92(%rbp), %esi
	subl	%eax, %esi
	movl	%esi, -92(%rbp)
# BB#292:                               # %do.cond
                                        #   in Loop: Header=BB9_255 Depth=2
	cmpl	$0, -92(%rbp)
	jg	.LBB9_255
# BB#293:                               # %do.end.736
                                        #   in Loop: Header=BB9_88 Depth=1
	jmp	.LBB9_346
.LBB9_294:                              # %if.else.737
                                        #   in Loop: Header=BB9_88 Depth=1
	jmp	.LBB9_295
.LBB9_295:                              # %do.body.738
                                        #   Parent Loop BB9_88 Depth=1
                                        # =>  This Loop Header: Depth=2
                                        #       Child Loop BB9_296 Depth 3
	jmp	.LBB9_296
.LBB9_296:                              # %while.cond.742
                                        #   Parent Loop BB9_88 Depth=1
                                        #     Parent Loop BB9_295 Depth=2
                                        # =>    This Inner Loop Header: Depth=3
	movq	-144(%rbp), %rax
	cmpq	-152(%rbp), %rax
	jne	.LBB9_300
# BB#297:                               # %while.body.745
                                        #   in Loop: Header=BB9_296 Depth=3
	movq	-152(%rbp), %rax
	cmpq	-136(%rbp), %rax
	jne	.LBB9_299
# BB#298:                               # %if.then.748
                                        #   in Loop: Header=BB9_88 Depth=1
	jmp	.LBB9_1427
.LBB9_299:                              # %if.end.749
                                        #   in Loop: Header=BB9_296 Depth=3
	movq	-56(%rbp), %rax
	movq	%rax, -144(%rbp)
	movq	-136(%rbp), %rax
	movq	%rax, -152(%rbp)
	jmp	.LBB9_296
.LBB9_300:                              # %while.end.750
                                        #   in Loop: Header=BB9_295 Depth=2
	cmpb	$0, -185(%rbp)
	je	.LBB9_319
# BB#301:                               # %if.then.752
                                        #   in Loop: Header=BB9_295 Depth=2
	movq	-168(%rbp), %rax
	movzbl	(%rax), %ecx
	andl	$128, %ecx
	cmpl	$0, %ecx
	jne	.LBB9_303
# BB#302:                               # %cond.true.757
                                        #   in Loop: Header=BB9_295 Depth=2
	movl	$1, -336(%rbp)
	movq	-168(%rbp), %rax
	movzbl	(%rax), %ecx
	movl	%ecx, -1260(%rbp)       # 4-byte Spill
	jmp	.LBB9_310
.LBB9_303:                              # %cond.false.760
                                        #   in Loop: Header=BB9_295 Depth=2
	movq	-168(%rbp), %rax
	movzbl	(%rax), %ecx
	andl	$32, %ecx
	cmpl	$0, %ecx
	jne	.LBB9_305
# BB#304:                               # %cond.true.765
                                        #   in Loop: Header=BB9_295 Depth=2
	xorl	%eax, %eax
	movl	$4194176, %ecx          # imm = 0x3FFF80
	movl	$2, -336(%rbp)
	movq	-168(%rbp), %rdx
	movzbl	(%rdx), %esi
	andl	$31, %esi
	shll	$6, %esi
	movq	-168(%rbp), %rdx
	movzbl	1(%rdx), %edi
	andl	$63, %edi
	orl	%edi, %esi
	movq	-168(%rbp), %rdx
	movzbl	(%rdx), %edi
	cmpl	$194, %edi
	cmovll	%ecx, %eax
	addl	%eax, %esi
	movl	%esi, -1264(%rbp)       # 4-byte Spill
	jmp	.LBB9_309
.LBB9_305:                              # %cond.false.780
                                        #   in Loop: Header=BB9_295 Depth=2
	movq	-168(%rbp), %rax
	movzbl	(%rax), %ecx
	andl	$16, %ecx
	cmpl	$0, %ecx
	jne	.LBB9_307
# BB#306:                               # %cond.true.785
                                        #   in Loop: Header=BB9_295 Depth=2
	movl	$3, -336(%rbp)
	movq	-168(%rbp), %rax
	movzbl	(%rax), %ecx
	andl	$15, %ecx
	shll	$12, %ecx
	movq	-168(%rbp), %rax
	movzbl	1(%rax), %edx
	andl	$63, %edx
	shll	$6, %edx
	orl	%edx, %ecx
	movq	-168(%rbp), %rax
	movzbl	2(%rax), %edx
	andl	$63, %edx
	orl	%edx, %ecx
	movl	%ecx, -1268(%rbp)       # 4-byte Spill
	jmp	.LBB9_308
.LBB9_307:                              # %cond.false.799
                                        #   in Loop: Header=BB9_295 Depth=2
	xorl	%eax, %eax
	movl	%eax, %esi
	leaq	-336(%rbp), %rdx
	movq	-168(%rbp), %rdi
	callq	string_char
	movl	%eax, -1268(%rbp)       # 4-byte Spill
.LBB9_308:                              # %cond.end.801
                                        #   in Loop: Header=BB9_295 Depth=2
	movl	-1268(%rbp), %eax       # 4-byte Reload
	movl	%eax, -1264(%rbp)       # 4-byte Spill
.LBB9_309:                              # %cond.end.803
                                        #   in Loop: Header=BB9_295 Depth=2
	movl	-1264(%rbp), %eax       # 4-byte Reload
	movl	%eax, -1260(%rbp)       # 4-byte Spill
.LBB9_310:                              # %cond.end.805
                                        #   in Loop: Header=BB9_295 Depth=2
	movl	-1260(%rbp), %eax       # 4-byte Reload
	movb	$1, %cl
	movl	%eax, -340(%rbp)
	testb	$1, %cl
	jne	.LBB9_311
	jmp	.LBB9_312
.LBB9_311:                              # %cond.true.807
                                        #   in Loop: Header=BB9_295 Depth=2
	movl	-340(%rbp), %eax
	addl	$0, %eax
	cmpl	$128, %eax
	jb	.LBB9_313
	jmp	.LBB9_314
.LBB9_312:                              # %cond.false.811
                                        #   in Loop: Header=BB9_295 Depth=2
	movslq	-340(%rbp), %rax
	addq	$0, %rax
	cmpq	$128, %rax
	jae	.LBB9_314
.LBB9_313:                              # %cond.true.816
                                        #   in Loop: Header=BB9_295 Depth=2
	movl	-340(%rbp), %eax
	movl	%eax, -1272(%rbp)       # 4-byte Spill
	jmp	.LBB9_318
.LBB9_314:                              # %cond.false.817
                                        #   in Loop: Header=BB9_295 Depth=2
	cmpl	$4194175, -340(%rbp)    # imm = 0x3FFF7F
	jle	.LBB9_316
# BB#315:                               # %cond.true.820
                                        #   in Loop: Header=BB9_295 Depth=2
	movl	-340(%rbp), %eax
	subl	$4194048, %eax          # imm = 0x3FFF00
	movl	%eax, -1276(%rbp)       # 4-byte Spill
	jmp	.LBB9_317
.LBB9_316:                              # %cond.false.822
                                        #   in Loop: Header=BB9_295 Depth=2
	movl	$4294967295, %eax       # imm = 0xFFFFFFFF
	movl	%eax, -1276(%rbp)       # 4-byte Spill
	jmp	.LBB9_317
.LBB9_317:                              # %cond.end.823
                                        #   in Loop: Header=BB9_295 Depth=2
	movl	-1276(%rbp), %eax       # 4-byte Reload
	movl	%eax, -1272(%rbp)       # 4-byte Spill
.LBB9_318:                              # %cond.end.825
                                        #   in Loop: Header=BB9_295 Depth=2
	movl	-1272(%rbp), %eax       # 4-byte Reload
	movl	%eax, -340(%rbp)
	jmp	.LBB9_320
.LBB9_319:                              # %if.else.827
                                        #   in Loop: Header=BB9_295 Depth=2
	movq	-168(%rbp), %rax
	movzbl	(%rax), %ecx
	movl	%ecx, -340(%rbp)
	movl	$1, -336(%rbp)
.LBB9_320:                              # %if.end.829
                                        #   in Loop: Header=BB9_295 Depth=2
	movb	$1, %al
	testb	$1, %al
	jne	.LBB9_321
	jmp	.LBB9_322
.LBB9_321:                              # %cond.true.830
                                        #   in Loop: Header=BB9_295 Depth=2
	movq	-144(%rbp), %rax
	movzbl	(%rax), %ecx
	addl	$0, %ecx
	cmpl	$128, %ecx
	jb	.LBB9_323
	jmp	.LBB9_324
.LBB9_322:                              # %cond.false.835
                                        #   in Loop: Header=BB9_295 Depth=2
	movq	-144(%rbp), %rax
	movzbl	(%rax), %ecx
	movl	%ecx, %eax
	addq	$0, %rax
	cmpq	$128, %rax
	jae	.LBB9_324
.LBB9_323:                              # %cond.true.840
                                        #   in Loop: Header=BB9_295 Depth=2
	movq	-144(%rbp), %rax
	movzbl	(%rax), %ecx
	movl	%ecx, -1280(%rbp)       # 4-byte Spill
	jmp	.LBB9_325
.LBB9_324:                              # %cond.false.842
                                        #   in Loop: Header=BB9_295 Depth=2
	movq	-144(%rbp), %rax
	movzbl	(%rax), %ecx
	addl	$4194048, %ecx          # imm = 0x3FFF00
	movl	%ecx, -1280(%rbp)       # 4-byte Spill
.LBB9_325:                              # %cond.end.845
                                        #   in Loop: Header=BB9_295 Depth=2
	movl	-1280(%rbp), %eax       # 4-byte Reload
	movl	%eax, -344(%rbp)
	cmpl	$4194175, -344(%rbp)    # imm = 0x3FFF7F
	jg	.LBB9_340
# BB#326:                               # %if.then.849
                                        #   in Loop: Header=BB9_295 Depth=2
	cmpq	$2, -184(%rbp)
	je	.LBB9_328
# BB#327:                               # %cond.true.852
                                        #   in Loop: Header=BB9_295 Depth=2
	movq	-184(%rbp), %rdi
	movl	-344(%rbp), %esi
	callq	char_table_translate
	movl	%eax, -1284(%rbp)       # 4-byte Spill
	jmp	.LBB9_329
.LBB9_328:                              # %cond.false.854
                                        #   in Loop: Header=BB9_295 Depth=2
	movl	-344(%rbp), %eax
	movl	%eax, -1284(%rbp)       # 4-byte Spill
.LBB9_329:                              # %cond.end.855
                                        #   in Loop: Header=BB9_295 Depth=2
	movl	-1284(%rbp), %eax       # 4-byte Reload
	movb	$1, %cl
	movl	%eax, -344(%rbp)
	testb	$1, %cl
	jne	.LBB9_330
	jmp	.LBB9_331
.LBB9_330:                              # %cond.true.857
                                        #   in Loop: Header=BB9_295 Depth=2
	movl	-344(%rbp), %eax
	addl	$0, %eax
	cmpl	$128, %eax
	jb	.LBB9_332
	jmp	.LBB9_333
.LBB9_331:                              # %cond.false.861
                                        #   in Loop: Header=BB9_295 Depth=2
	movslq	-344(%rbp), %rax
	addq	$0, %rax
	cmpq	$128, %rax
	jae	.LBB9_333
.LBB9_332:                              # %cond.true.866
                                        #   in Loop: Header=BB9_295 Depth=2
	movl	-344(%rbp), %eax
	movl	%eax, -1288(%rbp)       # 4-byte Spill
	jmp	.LBB9_337
.LBB9_333:                              # %cond.false.867
                                        #   in Loop: Header=BB9_295 Depth=2
	cmpl	$4194175, -344(%rbp)    # imm = 0x3FFF7F
	jle	.LBB9_335
# BB#334:                               # %cond.true.870
                                        #   in Loop: Header=BB9_295 Depth=2
	movl	-344(%rbp), %eax
	subl	$4194048, %eax          # imm = 0x3FFF00
	movl	%eax, -1292(%rbp)       # 4-byte Spill
	jmp	.LBB9_336
.LBB9_335:                              # %cond.false.872
                                        #   in Loop: Header=BB9_295 Depth=2
	movl	$4294967295, %eax       # imm = 0xFFFFFFFF
	movl	%eax, -1292(%rbp)       # 4-byte Spill
	jmp	.LBB9_336
.LBB9_336:                              # %cond.end.873
                                        #   in Loop: Header=BB9_295 Depth=2
	movl	-1292(%rbp), %eax       # 4-byte Reload
	movl	%eax, -1288(%rbp)       # 4-byte Spill
.LBB9_337:                              # %cond.end.875
                                        #   in Loop: Header=BB9_295 Depth=2
	movl	-1288(%rbp), %eax       # 4-byte Reload
	movl	%eax, -344(%rbp)
	cmpl	$0, -344(%rbp)
	jge	.LBB9_339
# BB#338:                               # %if.then.879
                                        #   in Loop: Header=BB9_295 Depth=2
	movq	-144(%rbp), %rax
	movzbl	(%rax), %ecx
	movl	%ecx, -344(%rbp)
.LBB9_339:                              # %if.end.881
                                        #   in Loop: Header=BB9_295 Depth=2
	jmp	.LBB9_341
.LBB9_340:                              # %if.else.882
                                        #   in Loop: Header=BB9_295 Depth=2
	movq	-144(%rbp), %rax
	movzbl	(%rax), %ecx
	movl	%ecx, -344(%rbp)
.LBB9_341:                              # %if.end.884
                                        #   in Loop: Header=BB9_295 Depth=2
	movl	-344(%rbp), %eax
	cmpl	-340(%rbp), %eax
	je	.LBB9_343
# BB#342:                               # %if.then.887
                                        #   in Loop: Header=BB9_88 Depth=1
	movq	-160(%rbp), %rax
	movq	%rax, -144(%rbp)
	jmp	.LBB9_1427
.LBB9_343:                              # %if.end.888
                                        #   in Loop: Header=BB9_295 Depth=2
	movl	-336(%rbp), %eax
	movq	-168(%rbp), %rcx
	movslq	%eax, %rdx
	addq	%rdx, %rcx
	movq	%rcx, -168(%rbp)
	movq	-144(%rbp), %rcx
	addq	$1, %rcx
	movq	%rcx, -144(%rbp)
# BB#344:                               # %do.cond.892
                                        #   in Loop: Header=BB9_295 Depth=2
	movl	-92(%rbp), %eax
	addl	$-1, %eax
	movl	%eax, -92(%rbp)
	cmpl	$0, %eax
	jne	.LBB9_295
# BB#345:                               # %do.end.894
                                        #   in Loop: Header=BB9_88 Depth=1
	jmp	.LBB9_346
.LBB9_346:                              # %if.end.895
                                        #   in Loop: Header=BB9_88 Depth=1
	jmp	.LBB9_1426
.LBB9_347:                              # %sw.bb.896
                                        #   in Loop: Header=BB9_88 Depth=1
	jmp	.LBB9_348
.LBB9_348:                              # %while.cond.899
                                        #   Parent Loop BB9_88 Depth=1
                                        # =>  This Inner Loop Header: Depth=2
	movq	-144(%rbp), %rax
	cmpq	-152(%rbp), %rax
	jne	.LBB9_352
# BB#349:                               # %while.body.902
                                        #   in Loop: Header=BB9_348 Depth=2
	movq	-152(%rbp), %rax
	cmpq	-136(%rbp), %rax
	jne	.LBB9_351
# BB#350:                               # %if.then.905
                                        #   in Loop: Header=BB9_88 Depth=1
	jmp	.LBB9_1427
.LBB9_351:                              # %if.end.906
                                        #   in Loop: Header=BB9_348 Depth=2
	movq	-56(%rbp), %rax
	movq	%rax, -144(%rbp)
	movq	-136(%rbp), %rax
	movq	%rax, -152(%rbp)
	jmp	.LBB9_348
.LBB9_352:                              # %while.end.907
                                        #   in Loop: Header=BB9_88 Depth=1
	movsbl	-186(%rbp), %eax
	cmpl	$0, %eax
	je	.LBB9_363
# BB#353:                               # %cond.true.910
                                        #   in Loop: Header=BB9_88 Depth=1
	movq	-144(%rbp), %rax
	movzbl	(%rax), %ecx
	andl	$128, %ecx
	cmpl	$0, %ecx
	jne	.LBB9_355
# BB#354:                               # %cond.true.915
                                        #   in Loop: Header=BB9_88 Depth=1
	movl	$1, -348(%rbp)
	movq	-144(%rbp), %rax
	movzbl	(%rax), %ecx
	movl	%ecx, -1296(%rbp)       # 4-byte Spill
	jmp	.LBB9_362
.LBB9_355:                              # %cond.false.918
                                        #   in Loop: Header=BB9_88 Depth=1
	movq	-144(%rbp), %rax
	movzbl	(%rax), %ecx
	andl	$32, %ecx
	cmpl	$0, %ecx
	jne	.LBB9_357
# BB#356:                               # %cond.true.923
                                        #   in Loop: Header=BB9_88 Depth=1
	xorl	%eax, %eax
	movl	$4194176, %ecx          # imm = 0x3FFF80
	movl	$2, -348(%rbp)
	movq	-144(%rbp), %rdx
	movzbl	(%rdx), %esi
	andl	$31, %esi
	shll	$6, %esi
	movq	-144(%rbp), %rdx
	movzbl	1(%rdx), %edi
	andl	$63, %edi
	orl	%edi, %esi
	movq	-144(%rbp), %rdx
	movzbl	(%rdx), %edi
	cmpl	$194, %edi
	cmovll	%ecx, %eax
	addl	%eax, %esi
	movl	%esi, -1300(%rbp)       # 4-byte Spill
	jmp	.LBB9_361
.LBB9_357:                              # %cond.false.938
                                        #   in Loop: Header=BB9_88 Depth=1
	movq	-144(%rbp), %rax
	movzbl	(%rax), %ecx
	andl	$16, %ecx
	cmpl	$0, %ecx
	jne	.LBB9_359
# BB#358:                               # %cond.true.943
                                        #   in Loop: Header=BB9_88 Depth=1
	movl	$3, -348(%rbp)
	movq	-144(%rbp), %rax
	movzbl	(%rax), %ecx
	andl	$15, %ecx
	shll	$12, %ecx
	movq	-144(%rbp), %rax
	movzbl	1(%rax), %edx
	andl	$63, %edx
	shll	$6, %edx
	orl	%edx, %ecx
	movq	-144(%rbp), %rax
	movzbl	2(%rax), %edx
	andl	$63, %edx
	orl	%edx, %ecx
	movl	%ecx, -1304(%rbp)       # 4-byte Spill
	jmp	.LBB9_360
.LBB9_359:                              # %cond.false.957
                                        #   in Loop: Header=BB9_88 Depth=1
	xorl	%eax, %eax
	movl	%eax, %esi
	leaq	-348(%rbp), %rdx
	movq	-144(%rbp), %rdi
	callq	string_char
	movl	%eax, -1304(%rbp)       # 4-byte Spill
.LBB9_360:                              # %cond.end.959
                                        #   in Loop: Header=BB9_88 Depth=1
	movl	-1304(%rbp), %eax       # 4-byte Reload
	movl	%eax, -1300(%rbp)       # 4-byte Spill
.LBB9_361:                              # %cond.end.961
                                        #   in Loop: Header=BB9_88 Depth=1
	movl	-1300(%rbp), %eax       # 4-byte Reload
	movl	%eax, -1296(%rbp)       # 4-byte Spill
.LBB9_362:                              # %cond.end.963
                                        #   in Loop: Header=BB9_88 Depth=1
	movl	-1296(%rbp), %eax       # 4-byte Reload
	movl	%eax, -1308(%rbp)       # 4-byte Spill
	jmp	.LBB9_364
.LBB9_363:                              # %cond.false.965
                                        #   in Loop: Header=BB9_88 Depth=1
	movl	$1, -348(%rbp)
	movq	-144(%rbp), %rax
	movzbl	(%rax), %ecx
	movl	%ecx, -1308(%rbp)       # 4-byte Spill
.LBB9_364:                              # %cond.end.967
                                        #   in Loop: Header=BB9_88 Depth=1
	movl	-1308(%rbp), %eax       # 4-byte Reload
	movl	%eax, -352(%rbp)
	cmpq	$2, -184(%rbp)
	je	.LBB9_366
# BB#365:                               # %cond.true.971
                                        #   in Loop: Header=BB9_88 Depth=1
	movq	-184(%rbp), %rdi
	movl	-352(%rbp), %esi
	callq	char_table_translate
	movl	%eax, -1312(%rbp)       # 4-byte Spill
	jmp	.LBB9_367
.LBB9_366:                              # %cond.false.973
                                        #   in Loop: Header=BB9_88 Depth=1
	movl	-352(%rbp), %eax
	movl	%eax, -1312(%rbp)       # 4-byte Spill
.LBB9_367:                              # %cond.end.974
                                        #   in Loop: Header=BB9_88 Depth=1
	movl	-1312(%rbp), %eax       # 4-byte Reload
	movl	%eax, -352(%rbp)
	movq	-32(%rbp), %rcx
	movq	24(%rcx), %rcx
	andq	$64, %rcx
	cmpq	$0, %rcx
	jne	.LBB9_369
# BB#368:                               # %land.lhs.true.978
                                        #   in Loop: Header=BB9_88 Depth=1
	cmpl	$10, -352(%rbp)
	je	.LBB9_371
.LBB9_369:                              # %lor.lhs.false.981
                                        #   in Loop: Header=BB9_88 Depth=1
	movq	-32(%rbp), %rax
	movq	24(%rax), %rax
	andq	$128, %rax
	cmpq	$0, %rax
	je	.LBB9_372
# BB#370:                               # %land.lhs.true.985
                                        #   in Loop: Header=BB9_88 Depth=1
	cmpl	$0, -352(%rbp)
	jne	.LBB9_372
.LBB9_371:                              # %if.then.988
                                        #   in Loop: Header=BB9_88 Depth=1
	jmp	.LBB9_1427
.LBB9_372:                              # %if.end.989
                                        #   in Loop: Header=BB9_88 Depth=1
	movl	-348(%rbp), %eax
	movq	-144(%rbp), %rcx
	movslq	%eax, %rdx
	addq	%rdx, %rcx
	movq	%rcx, -144(%rbp)
	jmp	.LBB9_1426
.LBB9_373:                              # %sw.bb.992
                                        #   in Loop: Header=BB9_88 Depth=1
	movq	-168(%rbp), %rax
	movzbl	-1(%rax), %ecx
	cmpl	$5, %ecx
	sete	%dl
	andb	$1, %dl
	movzbl	%dl, %ecx
	movb	%cl, %dl
	movb	%dl, -361(%rbp)
	movl	$0, -384(%rbp)
	movb	$0, -385(%rbp)
	movq	-168(%rbp), %rax
	movzbl	(%rax), %ecx
	andl	$128, %ecx
	movl	%ecx, -380(%rbp)
	cmpl	$0, -380(%rbp)
	je	.LBB9_375
# BB#374:                               # %if.then.1003
                                        #   in Loop: Header=BB9_88 Depth=1
	leaq	-376(%rbp), %rdi
	movq	-168(%rbp), %rax
	movzbl	(%rax), %ecx
	andl	$127, %ecx
	addl	$4, %ecx
	movslq	%ecx, %rax
	movq	-168(%rbp), %rdx
	addq	$-1, %rdx
	addq	%rax, %rdx
	movq	%rdx, -376(%rbp)
	callq	extract_number_and_incr
	movl	%eax, -384(%rbp)
.LBB9_375:                              # %if.end.1012
                                        #   in Loop: Header=BB9_88 Depth=1
	jmp	.LBB9_376
.LBB9_376:                              # %while.cond.1013
                                        #   Parent Loop BB9_88 Depth=1
                                        # =>  This Inner Loop Header: Depth=2
	movq	-144(%rbp), %rax
	cmpq	-152(%rbp), %rax
	jne	.LBB9_380
# BB#377:                               # %while.body.1016
                                        #   in Loop: Header=BB9_376 Depth=2
	movq	-152(%rbp), %rax
	cmpq	-136(%rbp), %rax
	jne	.LBB9_379
# BB#378:                               # %if.then.1019
                                        #   in Loop: Header=BB9_88 Depth=1
	jmp	.LBB9_1427
.LBB9_379:                              # %if.end.1020
                                        #   in Loop: Header=BB9_376 Depth=2
	movq	-56(%rbp), %rax
	movq	%rax, -144(%rbp)
	movq	-136(%rbp), %rax
	movq	%rax, -152(%rbp)
	jmp	.LBB9_376
.LBB9_380:                              # %while.end.1021
                                        #   in Loop: Header=BB9_88 Depth=1
	movsbl	-186(%rbp), %eax
	cmpl	$0, %eax
	je	.LBB9_391
# BB#381:                               # %cond.true.1024
                                        #   in Loop: Header=BB9_88 Depth=1
	movq	-144(%rbp), %rax
	movzbl	(%rax), %ecx
	andl	$128, %ecx
	cmpl	$0, %ecx
	jne	.LBB9_383
# BB#382:                               # %cond.true.1029
                                        #   in Loop: Header=BB9_88 Depth=1
	movl	$1, -368(%rbp)
	movq	-144(%rbp), %rax
	movzbl	(%rax), %ecx
	movl	%ecx, -1316(%rbp)       # 4-byte Spill
	jmp	.LBB9_390
.LBB9_383:                              # %cond.false.1032
                                        #   in Loop: Header=BB9_88 Depth=1
	movq	-144(%rbp), %rax
	movzbl	(%rax), %ecx
	andl	$32, %ecx
	cmpl	$0, %ecx
	jne	.LBB9_385
# BB#384:                               # %cond.true.1037
                                        #   in Loop: Header=BB9_88 Depth=1
	xorl	%eax, %eax
	movl	$4194176, %ecx          # imm = 0x3FFF80
	movl	$2, -368(%rbp)
	movq	-144(%rbp), %rdx
	movzbl	(%rdx), %esi
	andl	$31, %esi
	shll	$6, %esi
	movq	-144(%rbp), %rdx
	movzbl	1(%rdx), %edi
	andl	$63, %edi
	orl	%edi, %esi
	movq	-144(%rbp), %rdx
	movzbl	(%rdx), %edi
	cmpl	$194, %edi
	cmovll	%ecx, %eax
	addl	%eax, %esi
	movl	%esi, -1320(%rbp)       # 4-byte Spill
	jmp	.LBB9_389
.LBB9_385:                              # %cond.false.1052
                                        #   in Loop: Header=BB9_88 Depth=1
	movq	-144(%rbp), %rax
	movzbl	(%rax), %ecx
	andl	$16, %ecx
	cmpl	$0, %ecx
	jne	.LBB9_387
# BB#386:                               # %cond.true.1057
                                        #   in Loop: Header=BB9_88 Depth=1
	movl	$3, -368(%rbp)
	movq	-144(%rbp), %rax
	movzbl	(%rax), %ecx
	andl	$15, %ecx
	shll	$12, %ecx
	movq	-144(%rbp), %rax
	movzbl	1(%rax), %edx
	andl	$63, %edx
	shll	$6, %edx
	orl	%edx, %ecx
	movq	-144(%rbp), %rax
	movzbl	2(%rax), %edx
	andl	$63, %edx
	orl	%edx, %ecx
	movl	%ecx, -1324(%rbp)       # 4-byte Spill
	jmp	.LBB9_388
.LBB9_387:                              # %cond.false.1071
                                        #   in Loop: Header=BB9_88 Depth=1
	xorl	%eax, %eax
	movl	%eax, %esi
	leaq	-368(%rbp), %rdx
	movq	-144(%rbp), %rdi
	callq	string_char
	movl	%eax, -1324(%rbp)       # 4-byte Spill
.LBB9_388:                              # %cond.end.1073
                                        #   in Loop: Header=BB9_88 Depth=1
	movl	-1324(%rbp), %eax       # 4-byte Reload
	movl	%eax, -1320(%rbp)       # 4-byte Spill
.LBB9_389:                              # %cond.end.1075
                                        #   in Loop: Header=BB9_88 Depth=1
	movl	-1320(%rbp), %eax       # 4-byte Reload
	movl	%eax, -1316(%rbp)       # 4-byte Spill
.LBB9_390:                              # %cond.end.1077
                                        #   in Loop: Header=BB9_88 Depth=1
	movl	-1316(%rbp), %eax       # 4-byte Reload
	movl	%eax, -1328(%rbp)       # 4-byte Spill
	jmp	.LBB9_392
.LBB9_391:                              # %cond.false.1079
                                        #   in Loop: Header=BB9_88 Depth=1
	movl	$1, -368(%rbp)
	movq	-144(%rbp), %rax
	movzbl	(%rax), %ecx
	movl	%ecx, -1328(%rbp)       # 4-byte Spill
.LBB9_392:                              # %cond.end.1081
                                        #   in Loop: Header=BB9_88 Depth=1
	movl	-1328(%rbp), %eax       # 4-byte Reload
	movl	%eax, -356(%rbp)
	movl	%eax, -360(%rbp)
	cmpb	$0, -186(%rbp)
	je	.LBB9_407
# BB#393:                               # %if.then.1084
                                        #   in Loop: Header=BB9_88 Depth=1
	cmpq	$2, -184(%rbp)
	je	.LBB9_395
# BB#394:                               # %cond.true.1087
                                        #   in Loop: Header=BB9_88 Depth=1
	movq	-184(%rbp), %rdi
	movl	-356(%rbp), %esi
	callq	char_table_translate
	movl	%eax, -1332(%rbp)       # 4-byte Spill
	jmp	.LBB9_396
.LBB9_395:                              # %cond.false.1089
                                        #   in Loop: Header=BB9_88 Depth=1
	movl	-356(%rbp), %eax
	movl	%eax, -1332(%rbp)       # 4-byte Spill
.LBB9_396:                              # %cond.end.1090
                                        #   in Loop: Header=BB9_88 Depth=1
	movl	-1332(%rbp), %eax       # 4-byte Reload
	movb	$1, %cl
	movl	%eax, -356(%rbp)
	testb	$1, %cl
	jne	.LBB9_397
	jmp	.LBB9_398
.LBB9_397:                              # %cond.true.1092
                                        #   in Loop: Header=BB9_88 Depth=1
	movl	-356(%rbp), %eax
	addl	$0, %eax
	cmpl	$128, %eax
	jb	.LBB9_399
	jmp	.LBB9_400
.LBB9_398:                              # %cond.false.1096
                                        #   in Loop: Header=BB9_88 Depth=1
	movl	-356(%rbp), %eax
	movl	%eax, %ecx
	addq	$0, %rcx
	cmpq	$128, %rcx
	jae	.LBB9_400
.LBB9_399:                              # %cond.true.1101
                                        #   in Loop: Header=BB9_88 Depth=1
	movl	-356(%rbp), %eax
	movl	%eax, -1336(%rbp)       # 4-byte Spill
	jmp	.LBB9_404
.LBB9_400:                              # %cond.false.1102
                                        #   in Loop: Header=BB9_88 Depth=1
	cmpl	$4194175, -356(%rbp)    # imm = 0x3FFF7F
	jbe	.LBB9_402
# BB#401:                               # %cond.true.1105
                                        #   in Loop: Header=BB9_88 Depth=1
	movl	-356(%rbp), %eax
	subl	$4194048, %eax          # imm = 0x3FFF00
	movl	%eax, -1340(%rbp)       # 4-byte Spill
	jmp	.LBB9_403
.LBB9_402:                              # %cond.false.1107
                                        #   in Loop: Header=BB9_88 Depth=1
	movl	$4294967295, %eax       # imm = 0xFFFFFFFF
	movl	%eax, -1340(%rbp)       # 4-byte Spill
	jmp	.LBB9_403
.LBB9_403:                              # %cond.end.1108
                                        #   in Loop: Header=BB9_88 Depth=1
	movl	-1340(%rbp), %eax       # 4-byte Reload
	movl	%eax, -1336(%rbp)       # 4-byte Spill
.LBB9_404:                              # %cond.end.1110
                                        #   in Loop: Header=BB9_88 Depth=1
	movl	-1336(%rbp), %eax       # 4-byte Reload
	movl	%eax, -392(%rbp)
	cmpl	$0, -392(%rbp)
	jl	.LBB9_406
# BB#405:                               # %if.then.1114
                                        #   in Loop: Header=BB9_88 Depth=1
	movb	$1, -385(%rbp)
	movl	-392(%rbp), %eax
	movl	%eax, -356(%rbp)
.LBB9_406:                              # %if.end.1115
                                        #   in Loop: Header=BB9_88 Depth=1
	jmp	.LBB9_429
.LBB9_407:                              # %if.else.1116
                                        #   in Loop: Header=BB9_88 Depth=1
	movb	$1, %al
	testb	$1, %al
	jne	.LBB9_408
	jmp	.LBB9_409
.LBB9_408:                              # %cond.true.1118
                                        #   in Loop: Header=BB9_88 Depth=1
	movl	-356(%rbp), %eax
	addl	$0, %eax
	cmpl	$128, %eax
	jb	.LBB9_410
	jmp	.LBB9_411
.LBB9_409:                              # %cond.false.1122
                                        #   in Loop: Header=BB9_88 Depth=1
	movl	-356(%rbp), %eax
	movl	%eax, %ecx
	addq	$0, %rcx
	cmpq	$128, %rcx
	jae	.LBB9_411
.LBB9_410:                              # %cond.true.1127
                                        #   in Loop: Header=BB9_88 Depth=1
	movl	-356(%rbp), %eax
	movl	%eax, -1344(%rbp)       # 4-byte Spill
	jmp	.LBB9_412
.LBB9_411:                              # %cond.false.1128
                                        #   in Loop: Header=BB9_88 Depth=1
	movl	-356(%rbp), %eax
	addl	$4194048, %eax          # imm = 0x3FFF00
	movl	%eax, -1344(%rbp)       # 4-byte Spill
.LBB9_412:                              # %cond.end.1130
                                        #   in Loop: Header=BB9_88 Depth=1
	movl	-1344(%rbp), %eax       # 4-byte Reload
	movl	%eax, -396(%rbp)
	cmpl	$4194175, -396(%rbp)    # imm = 0x3FFF7F
	jg	.LBB9_427
# BB#413:                               # %if.then.1134
                                        #   in Loop: Header=BB9_88 Depth=1
	cmpq	$2, -184(%rbp)
	je	.LBB9_415
# BB#414:                               # %cond.true.1137
                                        #   in Loop: Header=BB9_88 Depth=1
	movq	-184(%rbp), %rdi
	movl	-396(%rbp), %esi
	callq	char_table_translate
	movl	%eax, -1348(%rbp)       # 4-byte Spill
	jmp	.LBB9_416
.LBB9_415:                              # %cond.false.1139
                                        #   in Loop: Header=BB9_88 Depth=1
	movl	-396(%rbp), %eax
	movl	%eax, -1348(%rbp)       # 4-byte Spill
.LBB9_416:                              # %cond.end.1140
                                        #   in Loop: Header=BB9_88 Depth=1
	movl	-1348(%rbp), %eax       # 4-byte Reload
	movb	$1, %cl
	movl	%eax, -396(%rbp)
	testb	$1, %cl
	jne	.LBB9_417
	jmp	.LBB9_418
.LBB9_417:                              # %cond.true.1142
                                        #   in Loop: Header=BB9_88 Depth=1
	movl	-396(%rbp), %eax
	addl	$0, %eax
	cmpl	$128, %eax
	jb	.LBB9_419
	jmp	.LBB9_420
.LBB9_418:                              # %cond.false.1146
                                        #   in Loop: Header=BB9_88 Depth=1
	movslq	-396(%rbp), %rax
	addq	$0, %rax
	cmpq	$128, %rax
	jae	.LBB9_420
.LBB9_419:                              # %cond.true.1151
                                        #   in Loop: Header=BB9_88 Depth=1
	movl	-396(%rbp), %eax
	movl	%eax, -1352(%rbp)       # 4-byte Spill
	jmp	.LBB9_424
.LBB9_420:                              # %cond.false.1152
                                        #   in Loop: Header=BB9_88 Depth=1
	cmpl	$4194175, -396(%rbp)    # imm = 0x3FFF7F
	jle	.LBB9_422
# BB#421:                               # %cond.true.1155
                                        #   in Loop: Header=BB9_88 Depth=1
	movl	-396(%rbp), %eax
	subl	$4194048, %eax          # imm = 0x3FFF00
	movl	%eax, -1356(%rbp)       # 4-byte Spill
	jmp	.LBB9_423
.LBB9_422:                              # %cond.false.1157
                                        #   in Loop: Header=BB9_88 Depth=1
	movl	$4294967295, %eax       # imm = 0xFFFFFFFF
	movl	%eax, -1356(%rbp)       # 4-byte Spill
	jmp	.LBB9_423
.LBB9_423:                              # %cond.end.1158
                                        #   in Loop: Header=BB9_88 Depth=1
	movl	-1356(%rbp), %eax       # 4-byte Reload
	movl	%eax, -1352(%rbp)       # 4-byte Spill
.LBB9_424:                              # %cond.end.1160
                                        #   in Loop: Header=BB9_88 Depth=1
	movl	-1352(%rbp), %eax       # 4-byte Reload
	movl	%eax, -396(%rbp)
	cmpl	$0, -396(%rbp)
	jl	.LBB9_426
# BB#425:                               # %if.then.1164
                                        #   in Loop: Header=BB9_88 Depth=1
	movb	$1, -385(%rbp)
	movl	-396(%rbp), %eax
	movl	%eax, -356(%rbp)
.LBB9_426:                              # %if.end.1165
                                        #   in Loop: Header=BB9_88 Depth=1
	jmp	.LBB9_428
.LBB9_427:                              # %if.else.1166
                                        #   in Loop: Header=BB9_88 Depth=1
	movb	$1, -385(%rbp)
.LBB9_428:                              # %if.end.1167
                                        #   in Loop: Header=BB9_88 Depth=1
	jmp	.LBB9_429
.LBB9_429:                              # %if.end.1168
                                        #   in Loop: Header=BB9_88 Depth=1
	movsbl	-385(%rbp), %eax
	cmpl	$0, %eax
	je	.LBB9_435
# BB#430:                               # %land.lhs.true.1171
                                        #   in Loop: Header=BB9_88 Depth=1
	cmpl	$256, -356(%rbp)        # imm = 0x100
	jae	.LBB9_435
# BB#431:                               # %if.then.1174
                                        #   in Loop: Header=BB9_88 Depth=1
	movl	-356(%rbp), %eax
	movq	-168(%rbp), %rcx
	movzbl	(%rcx), %edx
	andl	$127, %edx
	shll	$3, %edx
	cmpl	%edx, %eax
	jae	.LBB9_434
# BB#432:                               # %land.lhs.true.1182
                                        #   in Loop: Header=BB9_88 Depth=1
	movl	$1, %eax
	movl	-356(%rbp), %ecx
	shrl	$3, %ecx
	addl	$1, %ecx
	movl	%ecx, %ecx
	movl	%ecx, %edx
	movq	-168(%rbp), %rsi
	movzbl	(%rsi,%rdx), %ecx
	movl	-356(%rbp), %edi
	andl	$7, %edi
	movl	%ecx, -1360(%rbp)       # 4-byte Spill
	movl	%edi, %ecx
                                        # kill: CL<def> ECX<kill>
	shll	%cl, %eax
	movl	-1360(%rbp), %edi       # 4-byte Reload
	andl	%eax, %edi
	cmpl	$0, %edi
	je	.LBB9_434
# BB#433:                               # %if.then.1190
                                        #   in Loop: Header=BB9_88 Depth=1
	cmpb	$0, -361(%rbp)
	setne	%al
	xorb	$-1, %al
	andb	$1, %al
	movzbl	%al, %ecx
	movb	%cl, %al
	movb	%al, -361(%rbp)
.LBB9_434:                              # %if.end.1195
                                        #   in Loop: Header=BB9_88 Depth=1
	jmp	.LBB9_533
.LBB9_435:                              # %if.else.1196
                                        #   in Loop: Header=BB9_88 Depth=1
	cmpl	$0, -380(%rbp)
	je	.LBB9_532
# BB#436:                               # %if.then.1198
                                        #   in Loop: Header=BB9_88 Depth=1
	xorl	%eax, %eax
	movb	%al, %cl
	movq	-168(%rbp), %rdx
	movzbl	(%rdx), %eax
	andl	$127, %eax
	addl	$2, %eax
	movslq	%eax, %rdx
	movq	-168(%rbp), %rsi
	movzbl	-1(%rsi,%rdx), %eax
	movq	-168(%rbp), %rdx
	movzbl	(%rdx), %edi
	andl	$127, %edi
	addl	$3, %edi
	movslq	%edi, %rdx
	movq	-168(%rbp), %rsi
	movzbl	-1(%rsi,%rdx), %edi
	shll	$8, %edi
	addl	%edi, %eax
	movl	%eax, -400(%rbp)
	movl	-400(%rbp), %eax
	andl	$2, %eax
	cmpl	$0, %eax
	movb	%cl, -1361(%rbp)        # 1-byte Spill
	je	.LBB9_443
# BB#437:                               # %land.rhs.1221
                                        #   in Loop: Header=BB9_88 Depth=1
	movl	-356(%rbp), %edi
	callq	lowercasep
	movb	$1, %cl
	testb	$1, %al
	movb	%cl, -1362(%rbp)        # 1-byte Spill
	jne	.LBB9_442
# BB#438:                               # %lor.rhs
                                        #   in Loop: Header=BB9_88 Depth=1
	xorl	%eax, %eax
	movb	%al, %cl
	movl	-360(%rbp), %eax
	cmpl	-356(%rbp), %eax
	movb	%cl, -1363(%rbp)        # 1-byte Spill
	je	.LBB9_441
# BB#439:                               # %land.lhs.true.1226
                                        #   in Loop: Header=BB9_88 Depth=1
	movl	-356(%rbp), %eax
	movl	-360(%rbp), %edi
	movl	%eax, -1368(%rbp)       # 4-byte Spill
	callq	upcase
	xorl	%edi, %edi
	movb	%dil, %cl
	movl	-1368(%rbp), %edi       # 4-byte Reload
	cmpl	%eax, %edi
	movb	%cl, -1363(%rbp)        # 1-byte Spill
	jne	.LBB9_441
# BB#440:                               # %land.rhs.1230
                                        #   in Loop: Header=BB9_88 Depth=1
	movl	-356(%rbp), %edi
	callq	uppercasep
	movb	%al, -1363(%rbp)        # 1-byte Spill
.LBB9_441:                              # %land.end.1233
                                        #   in Loop: Header=BB9_88 Depth=1
	movb	-1363(%rbp), %al        # 1-byte Reload
	movb	%al, -1362(%rbp)        # 1-byte Spill
.LBB9_442:                              # %lor.end
                                        #   in Loop: Header=BB9_88 Depth=1
	movb	-1362(%rbp), %al        # 1-byte Reload
	movb	%al, -1361(%rbp)        # 1-byte Spill
.LBB9_443:                              # %land.end.1235
                                        #   in Loop: Header=BB9_88 Depth=1
	movb	-1361(%rbp), %al        # 1-byte Reload
	xorl	%ecx, %ecx
	movb	%cl, %dl
	andb	$1, %al
	movzbl	%al, %ecx
	movl	-400(%rbp), %esi
	andl	$32, %esi
	orl	%esi, %ecx
	movl	-400(%rbp), %esi
	andl	$4, %esi
	cmpl	$0, %esi
	movl	%ecx, -1372(%rbp)       # 4-byte Spill
	movb	%dl, -1373(%rbp)        # 1-byte Spill
	je	.LBB9_458
# BB#444:                               # %land.rhs.1241
                                        #   in Loop: Header=BB9_88 Depth=1
	cmpl	$128, -356(%rbp)
	jae	.LBB9_456
# BB#445:                               # %cond.true.1244
                                        #   in Loop: Header=BB9_88 Depth=1
	xorl	%eax, %eax
	movb	%al, %cl
	cmpl	$32, -356(%rbp)
	movb	%cl, -1374(%rbp)        # 1-byte Spill
	jbe	.LBB9_455
# BB#446:                               # %land.lhs.true.1247
                                        #   in Loop: Header=BB9_88 Depth=1
	xorl	%eax, %eax
	movb	%al, %cl
	cmpl	$127, -356(%rbp)
	movb	%cl, -1374(%rbp)        # 1-byte Spill
	jae	.LBB9_455
# BB#447:                               # %land.rhs.1250
                                        #   in Loop: Header=BB9_88 Depth=1
	cmpl	$97, -356(%rbp)
	jb	.LBB9_449
# BB#448:                               # %land.lhs.true.1253
                                        #   in Loop: Header=BB9_88 Depth=1
	movb	$1, %al
	cmpl	$122, -356(%rbp)
	movb	%al, -1375(%rbp)        # 1-byte Spill
	jbe	.LBB9_454
.LBB9_449:                              # %lor.lhs.false.1256
                                        #   in Loop: Header=BB9_88 Depth=1
	cmpl	$65, -356(%rbp)
	jb	.LBB9_451
# BB#450:                               # %land.lhs.true.1259
                                        #   in Loop: Header=BB9_88 Depth=1
	movb	$1, %al
	cmpl	$90, -356(%rbp)
	movb	%al, -1375(%rbp)        # 1-byte Spill
	jbe	.LBB9_454
.LBB9_451:                              # %lor.rhs.1262
                                        #   in Loop: Header=BB9_88 Depth=1
	xorl	%eax, %eax
	movb	%al, %cl
	cmpl	$48, -356(%rbp)
	movb	%cl, -1376(%rbp)        # 1-byte Spill
	jb	.LBB9_453
# BB#452:                               # %land.rhs.1265
                                        #   in Loop: Header=BB9_88 Depth=1
	cmpl	$57, -356(%rbp)
	setbe	%al
	movb	%al, -1376(%rbp)        # 1-byte Spill
.LBB9_453:                              # %land.end.1268
                                        #   in Loop: Header=BB9_88 Depth=1
	movb	-1376(%rbp), %al        # 1-byte Reload
	movb	%al, -1375(%rbp)        # 1-byte Spill
.LBB9_454:                              # %lor.end.1270
                                        #   in Loop: Header=BB9_88 Depth=1
	movb	-1375(%rbp), %al        # 1-byte Reload
	xorb	$-1, %al
	movb	%al, -1374(%rbp)        # 1-byte Spill
.LBB9_455:                              # %land.end.1273
                                        #   in Loop: Header=BB9_88 Depth=1
	movb	-1374(%rbp), %al        # 1-byte Reload
	andb	$1, %al
	movzbl	%al, %ecx
	movl	%ecx, -1380(%rbp)       # 4-byte Spill
	jmp	.LBB9_457
.LBB9_456:                              # %cond.false.1275
                                        #   in Loop: Header=BB9_88 Depth=1
	movl	$1, %esi
	movl	-356(%rbp), %edi
	callq	syntax_property
	cmpl	$2, %eax
	setne	%cl
	andb	$1, %cl
	movzbl	%cl, %eax
	movl	%eax, -1380(%rbp)       # 4-byte Spill
.LBB9_457:                              # %cond.end.1279
                                        #   in Loop: Header=BB9_88 Depth=1
	movl	-1380(%rbp), %eax       # 4-byte Reload
	cmpl	$0, %eax
	setne	%cl
	movb	%cl, -1373(%rbp)        # 1-byte Spill
.LBB9_458:                              # %land.end.1282
                                        #   in Loop: Header=BB9_88 Depth=1
	movb	-1373(%rbp), %al        # 1-byte Reload
	xorl	%ecx, %ecx
	movb	%cl, %dl
	andb	$1, %al
	movzbl	%al, %ecx
	movl	-1372(%rbp), %esi       # 4-byte Reload
	orl	%ecx, %esi
	movl	-400(%rbp), %ecx
	andl	$8, %ecx
	cmpl	$0, %ecx
	movl	%esi, -1384(%rbp)       # 4-byte Spill
	movb	%dl, -1385(%rbp)        # 1-byte Spill
	je	.LBB9_460
# BB#459:                               # %land.rhs.1287
                                        #   in Loop: Header=BB9_88 Depth=1
	movl	$1, %esi
	movl	-356(%rbp), %edi
	callq	syntax_property
	cmpl	$0, %eax
	sete	%cl
	movb	%cl, -1385(%rbp)        # 1-byte Spill
.LBB9_460:                              # %land.end.1291
                                        #   in Loop: Header=BB9_88 Depth=1
	movb	-1385(%rbp), %al        # 1-byte Reload
	xorl	%ecx, %ecx
	movb	%cl, %dl
	andb	$1, %al
	movzbl	%al, %ecx
	movl	-1384(%rbp), %esi       # 4-byte Reload
	orl	%ecx, %esi
	movl	-400(%rbp), %ecx
	andl	$16, %ecx
	cmpl	$0, %ecx
	movl	%esi, -1392(%rbp)       # 4-byte Spill
	movb	%dl, -1393(%rbp)        # 1-byte Spill
	je	.LBB9_467
# BB#461:                               # %land.rhs.1296
                                        #   in Loop: Header=BB9_88 Depth=1
	movl	-356(%rbp), %edi
	callq	uppercasep
	movb	$1, %cl
	testb	$1, %al
	movb	%cl, -1394(%rbp)        # 1-byte Spill
	jne	.LBB9_466
# BB#462:                               # %lor.rhs.1299
                                        #   in Loop: Header=BB9_88 Depth=1
	xorl	%eax, %eax
	movb	%al, %cl
	movl	-360(%rbp), %eax
	cmpl	-356(%rbp), %eax
	movb	%cl, -1395(%rbp)        # 1-byte Spill
	je	.LBB9_465
# BB#463:                               # %land.lhs.true.1302
                                        #   in Loop: Header=BB9_88 Depth=1
	movl	-356(%rbp), %eax
	movl	-360(%rbp), %edi
	movl	%eax, -1400(%rbp)       # 4-byte Spill
	callq	downcase
	xorl	%edi, %edi
	movb	%dil, %cl
	movl	-1400(%rbp), %edi       # 4-byte Reload
	cmpl	%eax, %edi
	movb	%cl, -1395(%rbp)        # 1-byte Spill
	jne	.LBB9_465
# BB#464:                               # %land.rhs.1306
                                        #   in Loop: Header=BB9_88 Depth=1
	movl	-356(%rbp), %edi
	callq	lowercasep
	movb	%al, -1395(%rbp)        # 1-byte Spill
.LBB9_465:                              # %land.end.1309
                                        #   in Loop: Header=BB9_88 Depth=1
	movb	-1395(%rbp), %al        # 1-byte Reload
	movb	%al, -1394(%rbp)        # 1-byte Spill
.LBB9_466:                              # %lor.end.1311
                                        #   in Loop: Header=BB9_88 Depth=1
	movb	-1394(%rbp), %al        # 1-byte Reload
	movb	%al, -1393(%rbp)        # 1-byte Spill
.LBB9_467:                              # %land.end.1312
                                        #   in Loop: Header=BB9_88 Depth=1
	movb	-1393(%rbp), %al        # 1-byte Reload
	xorl	%ecx, %ecx
	movb	%cl, %dl
	andb	$1, %al
	movzbl	%al, %ecx
	movl	-1392(%rbp), %esi       # 4-byte Reload
	orl	%ecx, %esi
	movl	-400(%rbp), %ecx
	andl	$1, %ecx
	cmpl	$0, %ecx
	movl	%esi, -1404(%rbp)       # 4-byte Spill
	movb	%dl, -1405(%rbp)        # 1-byte Spill
	je	.LBB9_469
# BB#468:                               # %land.rhs.1317
                                        #   in Loop: Header=BB9_88 Depth=1
	movl	$1, %esi
	movl	-356(%rbp), %edi
	callq	syntax_property
	cmpl	$2, %eax
	sete	%cl
	movb	%cl, -1405(%rbp)        # 1-byte Spill
.LBB9_469:                              # %land.end.1321
                                        #   in Loop: Header=BB9_88 Depth=1
	movb	-1405(%rbp), %al        # 1-byte Reload
	xorl	%ecx, %ecx
	movb	%cl, %dl
	andb	$1, %al
	movzbl	%al, %ecx
	movl	-1404(%rbp), %esi       # 4-byte Reload
	orl	%ecx, %esi
	movl	-400(%rbp), %ecx
	andl	$64, %ecx
	cmpl	$0, %ecx
	movl	%esi, -1412(%rbp)       # 4-byte Spill
	movb	%dl, -1413(%rbp)        # 1-byte Spill
	je	.LBB9_479
# BB#470:                               # %land.rhs.1326
                                        #   in Loop: Header=BB9_88 Depth=1
	cmpl	$128, -356(%rbp)
	jae	.LBB9_477
# BB#471:                               # %cond.true.1329
                                        #   in Loop: Header=BB9_88 Depth=1
	cmpl	$97, -356(%rbp)
	jb	.LBB9_473
# BB#472:                               # %land.lhs.true.1332
                                        #   in Loop: Header=BB9_88 Depth=1
	movb	$1, %al
	cmpl	$122, -356(%rbp)
	movb	%al, -1414(%rbp)        # 1-byte Spill
	jbe	.LBB9_476
.LBB9_473:                              # %lor.rhs.1335
                                        #   in Loop: Header=BB9_88 Depth=1
	xorl	%eax, %eax
	movb	%al, %cl
	cmpl	$65, -356(%rbp)
	movb	%cl, -1415(%rbp)        # 1-byte Spill
	jb	.LBB9_475
# BB#474:                               # %land.rhs.1338
                                        #   in Loop: Header=BB9_88 Depth=1
	cmpl	$90, -356(%rbp)
	setbe	%al
	movb	%al, -1415(%rbp)        # 1-byte Spill
.LBB9_475:                              # %land.end.1341
                                        #   in Loop: Header=BB9_88 Depth=1
	movb	-1415(%rbp), %al        # 1-byte Reload
	movb	%al, -1414(%rbp)        # 1-byte Spill
.LBB9_476:                              # %lor.end.1343
                                        #   in Loop: Header=BB9_88 Depth=1
	movb	-1414(%rbp), %al        # 1-byte Reload
	andb	$1, %al
	movzbl	%al, %ecx
	movl	%ecx, -1420(%rbp)       # 4-byte Spill
	jmp	.LBB9_478
.LBB9_477:                              # %cond.false.1344
                                        #   in Loop: Header=BB9_88 Depth=1
	movl	-356(%rbp), %edi
	callq	alphabeticp
	andb	$1, %al
	movzbl	%al, %edi
	movl	%edi, -1420(%rbp)       # 4-byte Spill
.LBB9_478:                              # %cond.end.1347
                                        #   in Loop: Header=BB9_88 Depth=1
	movl	-1420(%rbp), %eax       # 4-byte Reload
	cmpl	$0, %eax
	setne	%cl
	movb	%cl, -1413(%rbp)        # 1-byte Spill
.LBB9_479:                              # %land.end.1350
                                        #   in Loop: Header=BB9_88 Depth=1
	movb	-1413(%rbp), %al        # 1-byte Reload
	xorl	%ecx, %ecx
	movb	%cl, %dl
	andb	$1, %al
	movzbl	%al, %ecx
	movl	-1412(%rbp), %esi       # 4-byte Reload
	orl	%ecx, %esi
	movl	-400(%rbp), %ecx
	andl	$128, %ecx
	cmpl	$0, %ecx
	movl	%esi, -1424(%rbp)       # 4-byte Spill
	movb	%dl, -1425(%rbp)        # 1-byte Spill
	je	.LBB9_493
# BB#480:                               # %land.rhs.1355
                                        #   in Loop: Header=BB9_88 Depth=1
	cmpl	$128, -356(%rbp)
	jae	.LBB9_489
# BB#481:                               # %cond.true.1358
                                        #   in Loop: Header=BB9_88 Depth=1
	cmpl	$97, -356(%rbp)
	jb	.LBB9_483
# BB#482:                               # %land.lhs.true.1361
                                        #   in Loop: Header=BB9_88 Depth=1
	movb	$1, %al
	cmpl	$122, -356(%rbp)
	movb	%al, -1426(%rbp)        # 1-byte Spill
	jbe	.LBB9_488
.LBB9_483:                              # %lor.lhs.false.1364
                                        #   in Loop: Header=BB9_88 Depth=1
	cmpl	$65, -356(%rbp)
	jb	.LBB9_485
# BB#484:                               # %land.lhs.true.1367
                                        #   in Loop: Header=BB9_88 Depth=1
	movb	$1, %al
	cmpl	$90, -356(%rbp)
	movb	%al, -1426(%rbp)        # 1-byte Spill
	jbe	.LBB9_488
.LBB9_485:                              # %lor.rhs.1370
                                        #   in Loop: Header=BB9_88 Depth=1
	xorl	%eax, %eax
	movb	%al, %cl
	cmpl	$48, -356(%rbp)
	movb	%cl, -1427(%rbp)        # 1-byte Spill
	jb	.LBB9_487
# BB#486:                               # %land.rhs.1373
                                        #   in Loop: Header=BB9_88 Depth=1
	cmpl	$57, -356(%rbp)
	setbe	%al
	movb	%al, -1427(%rbp)        # 1-byte Spill
.LBB9_487:                              # %land.end.1376
                                        #   in Loop: Header=BB9_88 Depth=1
	movb	-1427(%rbp), %al        # 1-byte Reload
	movb	%al, -1426(%rbp)        # 1-byte Spill
.LBB9_488:                              # %lor.end.1378
                                        #   in Loop: Header=BB9_88 Depth=1
	movb	-1426(%rbp), %al        # 1-byte Reload
	andb	$1, %al
	movzbl	%al, %ecx
	movl	%ecx, -1432(%rbp)       # 4-byte Spill
	jmp	.LBB9_492
.LBB9_489:                              # %cond.false.1380
                                        #   in Loop: Header=BB9_88 Depth=1
	movl	-356(%rbp), %edi
	callq	alphabeticp
	movb	$1, %cl
	testb	$1, %al
	movb	%cl, -1433(%rbp)        # 1-byte Spill
	jne	.LBB9_491
# BB#490:                               # %lor.rhs.1383
                                        #   in Loop: Header=BB9_88 Depth=1
	movl	-356(%rbp), %edi
	callq	decimalnump
	movb	%al, -1433(%rbp)        # 1-byte Spill
.LBB9_491:                              # %lor.end.1386
                                        #   in Loop: Header=BB9_88 Depth=1
	movb	-1433(%rbp), %al        # 1-byte Reload
	andb	$1, %al
	movzbl	%al, %ecx
	movl	%ecx, -1432(%rbp)       # 4-byte Spill
.LBB9_492:                              # %cond.end.1388
                                        #   in Loop: Header=BB9_88 Depth=1
	movl	-1432(%rbp), %eax       # 4-byte Reload
	cmpl	$0, %eax
	setne	%cl
	movb	%cl, -1425(%rbp)        # 1-byte Spill
.LBB9_493:                              # %land.end.1391
                                        #   in Loop: Header=BB9_88 Depth=1
	movb	-1425(%rbp), %al        # 1-byte Reload
	xorl	%ecx, %ecx
	movb	%cl, %dl
	andb	$1, %al
	movzbl	%al, %ecx
	movl	-1424(%rbp), %esi       # 4-byte Reload
	orl	%ecx, %esi
	movl	-400(%rbp), %ecx
	andl	$256, %ecx              # imm = 0x100
	cmpl	$0, %ecx
	movl	%esi, -1440(%rbp)       # 4-byte Spill
	movb	%dl, -1441(%rbp)        # 1-byte Spill
	je	.LBB9_504
# BB#494:                               # %land.rhs.1396
                                        #   in Loop: Header=BB9_88 Depth=1
	movb	$1, %al
	testb	$1, %al
	jne	.LBB9_495
	jmp	.LBB9_496
.LBB9_495:                              # %cond.true.1397
                                        #   in Loop: Header=BB9_88 Depth=1
	movl	-356(%rbp), %eax
	addl	$0, %eax
	cmpl	$256, %eax              # imm = 0x100
	jb	.LBB9_497
	jmp	.LBB9_502
.LBB9_496:                              # %cond.false.1401
                                        #   in Loop: Header=BB9_88 Depth=1
	movl	-356(%rbp), %eax
	movl	%eax, %ecx
	addq	$0, %rcx
	cmpq	$256, %rcx              # imm = 0x100
	jae	.LBB9_502
.LBB9_497:                              # %cond.true.1406
                                        #   in Loop: Header=BB9_88 Depth=1
	xorl	%eax, %eax
	movb	%al, %cl
	cmpl	$32, -356(%rbp)
	movb	%cl, -1442(%rbp)        # 1-byte Spill
	jbe	.LBB9_501
# BB#498:                               # %land.rhs.1409
                                        #   in Loop: Header=BB9_88 Depth=1
	xorl	%eax, %eax
	movb	%al, %cl
	cmpl	$127, -356(%rbp)
	movb	%cl, -1443(%rbp)        # 1-byte Spill
	jb	.LBB9_500
# BB#499:                               # %land.rhs.1412
                                        #   in Loop: Header=BB9_88 Depth=1
	cmpl	$160, -356(%rbp)
	setbe	%al
	movb	%al, -1443(%rbp)        # 1-byte Spill
.LBB9_500:                              # %land.end.1415
                                        #   in Loop: Header=BB9_88 Depth=1
	movb	-1443(%rbp), %al        # 1-byte Reload
	xorb	$-1, %al
	movb	%al, -1442(%rbp)        # 1-byte Spill
.LBB9_501:                              # %land.end.1419
                                        #   in Loop: Header=BB9_88 Depth=1
	movb	-1442(%rbp), %al        # 1-byte Reload
	andb	$1, %al
	movzbl	%al, %ecx
	movl	%ecx, -1448(%rbp)       # 4-byte Spill
	jmp	.LBB9_503
.LBB9_502:                              # %cond.false.1421
                                        #   in Loop: Header=BB9_88 Depth=1
	movl	-356(%rbp), %edi
	callq	graphicp
	andb	$1, %al
	movzbl	%al, %edi
	movl	%edi, -1448(%rbp)       # 4-byte Spill
.LBB9_503:                              # %cond.end.1424
                                        #   in Loop: Header=BB9_88 Depth=1
	movl	-1448(%rbp), %eax       # 4-byte Reload
	cmpl	$0, %eax
	setne	%cl
	movb	%cl, -1441(%rbp)        # 1-byte Spill
.LBB9_504:                              # %land.end.1427
                                        #   in Loop: Header=BB9_88 Depth=1
	movb	-1441(%rbp), %al        # 1-byte Reload
	xorl	%ecx, %ecx
	movb	%cl, %dl
	andb	$1, %al
	movzbl	%al, %ecx
	movl	-1440(%rbp), %esi       # 4-byte Reload
	orl	%ecx, %esi
	movl	-400(%rbp), %ecx
	andl	$512, %ecx              # imm = 0x200
	cmpl	$0, %ecx
	movl	%esi, -1452(%rbp)       # 4-byte Spill
	movb	%dl, -1453(%rbp)        # 1-byte Spill
	je	.LBB9_515
# BB#505:                               # %land.rhs.1432
                                        #   in Loop: Header=BB9_88 Depth=1
	movb	$1, %al
	testb	$1, %al
	jne	.LBB9_506
	jmp	.LBB9_507
.LBB9_506:                              # %cond.true.1433
                                        #   in Loop: Header=BB9_88 Depth=1
	movl	-356(%rbp), %eax
	addl	$0, %eax
	cmpl	$256, %eax              # imm = 0x100
	jb	.LBB9_508
	jmp	.LBB9_513
.LBB9_507:                              # %cond.false.1437
                                        #   in Loop: Header=BB9_88 Depth=1
	movl	-356(%rbp), %eax
	movl	%eax, %ecx
	addq	$0, %rcx
	cmpq	$256, %rcx              # imm = 0x100
	jae	.LBB9_513
.LBB9_508:                              # %cond.true.1442
                                        #   in Loop: Header=BB9_88 Depth=1
	xorl	%eax, %eax
	movb	%al, %cl
	cmpl	$32, -356(%rbp)
	movb	%cl, -1454(%rbp)        # 1-byte Spill
	jb	.LBB9_512
# BB#509:                               # %land.rhs.1445
                                        #   in Loop: Header=BB9_88 Depth=1
	xorl	%eax, %eax
	movb	%al, %cl
	cmpl	$127, -356(%rbp)
	movb	%cl, -1455(%rbp)        # 1-byte Spill
	jb	.LBB9_511
# BB#510:                               # %land.rhs.1448
                                        #   in Loop: Header=BB9_88 Depth=1
	cmpl	$159, -356(%rbp)
	setbe	%al
	movb	%al, -1455(%rbp)        # 1-byte Spill
.LBB9_511:                              # %land.end.1451
                                        #   in Loop: Header=BB9_88 Depth=1
	movb	-1455(%rbp), %al        # 1-byte Reload
	xorb	$-1, %al
	movb	%al, -1454(%rbp)        # 1-byte Spill
.LBB9_512:                              # %land.end.1455
                                        #   in Loop: Header=BB9_88 Depth=1
	movb	-1454(%rbp), %al        # 1-byte Reload
	andb	$1, %al
	movzbl	%al, %ecx
	movl	%ecx, -1460(%rbp)       # 4-byte Spill
	jmp	.LBB9_514
.LBB9_513:                              # %cond.false.1457
                                        #   in Loop: Header=BB9_88 Depth=1
	movl	-356(%rbp), %edi
	callq	printablep
	andb	$1, %al
	movzbl	%al, %edi
	movl	%edi, -1460(%rbp)       # 4-byte Spill
.LBB9_514:                              # %cond.end.1460
                                        #   in Loop: Header=BB9_88 Depth=1
	movl	-1460(%rbp), %eax       # 4-byte Reload
	cmpl	$0, %eax
	setne	%cl
	movb	%cl, -1453(%rbp)        # 1-byte Spill
.LBB9_515:                              # %land.end.1463
                                        #   in Loop: Header=BB9_88 Depth=1
	movb	-1453(%rbp), %al        # 1-byte Reload
	andb	$1, %al
	movzbl	%al, %ecx
	movl	-1452(%rbp), %edx       # 4-byte Reload
	orl	%ecx, %edx
	cmpl	$0, %edx
	je	.LBB9_517
# BB#516:                               # %if.then.1467
                                        #   in Loop: Header=BB9_88 Depth=1
	cmpb	$0, -361(%rbp)
	setne	%al
	xorb	$-1, %al
	andb	$1, %al
	movzbl	%al, %ecx
	movb	%cl, %al
	movb	%al, -361(%rbp)
	jmp	.LBB9_531
.LBB9_517:                              # %if.else.1472
                                        #   in Loop: Header=BB9_88 Depth=1
	jmp	.LBB9_518
.LBB9_518:                              # %do.body.1473
                                        #   in Loop: Header=BB9_88 Depth=1
	movq	-376(%rbp), %rax
	movl	-384(%rbp), %ecx
	shll	$1, %ecx
	imull	$3, %ecx, %ecx
	movslq	%ecx, %rdx
	addq	%rdx, %rax
	movq	%rax, -424(%rbp)
	movq	-376(%rbp), %rax
	movq	%rax, -416(%rbp)
.LBB9_519:                              # %for.cond.1478
                                        #   Parent Loop BB9_88 Depth=1
                                        # =>  This Inner Loop Header: Depth=2
	movq	-416(%rbp), %rax
	cmpq	-424(%rbp), %rax
	jae	.LBB9_529
# BB#520:                               # %for.body.1481
                                        #   in Loop: Header=BB9_519 Depth=2
	jmp	.LBB9_521
.LBB9_521:                              # %do.body.1482
                                        #   in Loop: Header=BB9_519 Depth=2
	movq	-416(%rbp), %rax
	movzbl	(%rax), %ecx
	movq	-416(%rbp), %rax
	movzbl	1(%rax), %edx
	shll	$8, %edx
	orl	%edx, %ecx
	movq	-416(%rbp), %rax
	movzbl	2(%rax), %edx
	shll	$16, %edx
	orl	%edx, %ecx
	movl	%ecx, -404(%rbp)
# BB#522:                               # %do.end.1494
                                        #   in Loop: Header=BB9_519 Depth=2
	jmp	.LBB9_523
.LBB9_523:                              # %do.body.1495
                                        #   in Loop: Header=BB9_519 Depth=2
	movq	-416(%rbp), %rax
	movzbl	3(%rax), %ecx
	movq	-416(%rbp), %rax
	movzbl	4(%rax), %edx
	shll	$8, %edx
	orl	%edx, %ecx
	movq	-416(%rbp), %rax
	movzbl	5(%rax), %edx
	shll	$16, %edx
	orl	%edx, %ecx
	movl	%ecx, -408(%rbp)
# BB#524:                               # %do.end.1510
                                        #   in Loop: Header=BB9_519 Depth=2
	movl	-404(%rbp), %eax
	cmpl	-356(%rbp), %eax
	ja	.LBB9_527
# BB#525:                               # %land.lhs.true.1513
                                        #   in Loop: Header=BB9_519 Depth=2
	movl	-356(%rbp), %eax
	cmpl	-408(%rbp), %eax
	ja	.LBB9_527
# BB#526:                               # %if.then.1516
                                        #   in Loop: Header=BB9_88 Depth=1
	cmpb	$0, -361(%rbp)
	setne	%al
	xorb	$-1, %al
	andb	$1, %al
	movzbl	%al, %ecx
	movb	%cl, %al
	movb	%al, -361(%rbp)
	jmp	.LBB9_529
.LBB9_527:                              # %if.end.1521
                                        #   in Loop: Header=BB9_519 Depth=2
	jmp	.LBB9_528
.LBB9_528:                              # %for.inc.1522
                                        #   in Loop: Header=BB9_519 Depth=2
	movq	-416(%rbp), %rax
	addq	$6, %rax
	movq	%rax, -416(%rbp)
	jmp	.LBB9_519
.LBB9_529:                              # %for.end.1524
                                        #   in Loop: Header=BB9_88 Depth=1
	jmp	.LBB9_530
.LBB9_530:                              # %do.end.1526
                                        #   in Loop: Header=BB9_88 Depth=1
	jmp	.LBB9_531
.LBB9_531:                              # %if.end.1527
                                        #   in Loop: Header=BB9_88 Depth=1
	jmp	.LBB9_532
.LBB9_532:                              # %if.end.1528
                                        #   in Loop: Header=BB9_88 Depth=1
	jmp	.LBB9_533
.LBB9_533:                              # %if.end.1529
                                        #   in Loop: Header=BB9_88 Depth=1
	cmpl	$0, -380(%rbp)
	je	.LBB9_535
# BB#534:                               # %if.then.1531
                                        #   in Loop: Header=BB9_88 Depth=1
	movq	-376(%rbp), %rax
	movl	-384(%rbp), %ecx
	shll	$1, %ecx
	imull	$3, %ecx, %ecx
	movslq	%ecx, %rdx
	addq	%rdx, %rax
	movq	%rax, -168(%rbp)
	jmp	.LBB9_536
.LBB9_535:                              # %if.else.1536
                                        #   in Loop: Header=BB9_88 Depth=1
	movq	-168(%rbp), %rax
	movzbl	(%rax), %ecx
	andl	$127, %ecx
	addl	$1, %ecx
	movq	-168(%rbp), %rax
	movslq	%ecx, %rdx
	addq	%rdx, %rax
	movq	%rax, -168(%rbp)
.LBB9_536:                              # %if.end.1544
                                        #   in Loop: Header=BB9_88 Depth=1
	cmpb	$0, -361(%rbp)
	jne	.LBB9_538
# BB#537:                               # %if.then.1546
                                        #   in Loop: Header=BB9_88 Depth=1
	jmp	.LBB9_1427
.LBB9_538:                              # %if.end.1547
                                        #   in Loop: Header=BB9_88 Depth=1
	movl	-368(%rbp), %eax
	movq	-144(%rbp), %rcx
	movslq	%eax, %rdx
	addq	%rdx, %rcx
	movq	%rcx, -144(%rbp)
	jmp	.LBB9_1426
.LBB9_539:                              # %sw.bb.1550
                                        #   in Loop: Header=BB9_88 Depth=1
	jmp	.LBB9_540
.LBB9_540:                              # %do.body.1551
                                        #   in Loop: Header=BB9_88 Depth=1
	movq	-168(%rbp), %rax
	movzbl	(%rax), %ecx
	movl	%ecx, %eax
	movq	%rax, -440(%rbp)
.LBB9_541:                              # %while.cond.1553
                                        #   Parent Loop BB9_88 Depth=1
                                        # =>  This Inner Loop Header: Depth=2
	movq	-216(%rbp), %rax
	subq	-208(%rbp), %rax
	cmpq	$3, %rax
	ja	.LBB9_568
# BB#542:                               # %while.body.1559
                                        #   in Loop: Header=BB9_541 Depth=2
	movq	-216(%rbp), %rax
	shlq	$3, %rax
	imulq	$20, re_max_failures, %rcx
	cmpq	%rcx, %rax
	jb	.LBB9_544
# BB#543:                               # %cond.true.1565
                                        #   in Loop: Header=BB9_541 Depth=2
	xorl	%eax, %eax
	movb	%al, %cl
	testb	$1, %cl
	jne	.LBB9_567
	jmp	.LBB9_566
.LBB9_544:                              # %cond.false.1566
                                        #   in Loop: Header=BB9_541 Depth=2
	imulq	$20, re_max_failures, %rax
	movq	-216(%rbp), %rcx
	shlq	$3, %rcx
	shlq	$2, %rcx
	cmpq	%rcx, %rax
	jae	.LBB9_546
# BB#545:                               # %cond.true.1573
                                        #   in Loop: Header=BB9_541 Depth=2
	imulq	$20, re_max_failures, %rax
	movq	%rax, -1472(%rbp)       # 8-byte Spill
	jmp	.LBB9_547
.LBB9_546:                              # %cond.false.1575
                                        #   in Loop: Header=BB9_541 Depth=2
	movq	-216(%rbp), %rax
	shlq	$3, %rax
	shlq	$2, %rax
	movq	%rax, -1472(%rbp)       # 8-byte Spill
.LBB9_547:                              # %cond.end.1579
                                        #   in Loop: Header=BB9_541 Depth=2
	movq	-1472(%rbp), %rax       # 8-byte Reload
	cmpq	-288(%rbp), %rax
	ja	.LBB9_555
# BB#548:                               # %cond.true.1583
                                        #   in Loop: Header=BB9_541 Depth=2
	imulq	$20, re_max_failures, %rax
	movq	-216(%rbp), %rcx
	shlq	$3, %rcx
	shlq	$2, %rcx
	cmpq	%rcx, %rax
	jae	.LBB9_550
# BB#549:                               # %cond.true.1590
                                        #   in Loop: Header=BB9_541 Depth=2
	imulq	$20, re_max_failures, %rax
	movq	%rax, -1480(%rbp)       # 8-byte Spill
	jmp	.LBB9_551
.LBB9_550:                              # %cond.false.1592
                                        #   in Loop: Header=BB9_541 Depth=2
	movq	-216(%rbp), %rax
	shlq	$3, %rax
	shlq	$2, %rax
	movq	%rax, -1480(%rbp)       # 8-byte Spill
.LBB9_551:                              # %cond.end.1596
                                        #   in Loop: Header=BB9_541 Depth=2
	movq	-1480(%rbp), %rax       # 8-byte Reload
	movq	-288(%rbp), %rcx
	subq	%rax, %rcx
	movq	%rcx, -288(%rbp)
	imulq	$20, re_max_failures, %rax
	movq	-216(%rbp), %rcx
	shlq	$3, %rcx
	shlq	$2, %rcx
	cmpq	%rcx, %rax
	jae	.LBB9_553
# BB#552:                               # %cond.true.1605
                                        #   in Loop: Header=BB9_541 Depth=2
	imulq	$20, re_max_failures, %rax
	movq	%rax, -1488(%rbp)       # 8-byte Spill
	jmp	.LBB9_554
.LBB9_553:                              # %cond.false.1607
                                        #   in Loop: Header=BB9_541 Depth=2
	movq	-216(%rbp), %rax
	shlq	$3, %rax
	shlq	$2, %rax
	movq	%rax, -1488(%rbp)       # 8-byte Spill
.LBB9_554:                              # %cond.end.1611
                                        #   in Loop: Header=BB9_541 Depth=2
	movq	-1488(%rbp), %rax       # 8-byte Reload
	addq	$15, %rax
	andq	$-16, %rax
	movq	%rsp, %rcx
	subq	%rax, %rcx
	movq	%rcx, %rsp
	movq	%rcx, -1496(%rbp)       # 8-byte Spill
	jmp	.LBB9_559
.LBB9_555:                              # %cond.false.1613
                                        #   in Loop: Header=BB9_541 Depth=2
	movb	$1, -297(%rbp)
	imulq	$20, re_max_failures, %rax
	movq	-216(%rbp), %rcx
	shlq	$3, %rcx
	shlq	$2, %rcx
	cmpq	%rcx, %rax
	jae	.LBB9_557
# BB#556:                               # %cond.true.1620
                                        #   in Loop: Header=BB9_541 Depth=2
	imulq	$20, re_max_failures, %rax
	movq	%rax, -1504(%rbp)       # 8-byte Spill
	jmp	.LBB9_558
.LBB9_557:                              # %cond.false.1622
                                        #   in Loop: Header=BB9_541 Depth=2
	movq	-216(%rbp), %rax
	shlq	$3, %rax
	shlq	$2, %rax
	movq	%rax, -1504(%rbp)       # 8-byte Spill
.LBB9_558:                              # %cond.end.1626
                                        #   in Loop: Header=BB9_541 Depth=2
	movq	-1504(%rbp), %rax       # 8-byte Reload
	movq	%rax, %rdi
	callq	record_xmalloc
	movq	%rax, -1496(%rbp)       # 8-byte Spill
.LBB9_559:                              # %cond.end.1629
                                        #   in Loop: Header=BB9_541 Depth=2
	movq	-1496(%rbp), %rax       # 8-byte Reload
	movq	%rax, -432(%rbp)
	movq	-432(%rbp), %rax
	movq	-224(%rbp), %rcx
	movq	-216(%rbp), %rdx
	shlq	$3, %rdx
	movq	%rax, %rdi
	movq	%rcx, %rsi
	movq	%rax, -1512(%rbp)       # 8-byte Spill
	callq	memcpy
	movq	-1512(%rbp), %rax       # 8-byte Reload
	movq	%rax, -224(%rbp)
	cmpq	$0, -224(%rbp)
	jne	.LBB9_561
# BB#560:                               # %cond.true.1638
                                        #   in Loop: Header=BB9_541 Depth=2
	xorl	%eax, %eax
	movl	%eax, -1516(%rbp)       # 4-byte Spill
	jmp	.LBB9_565
.LBB9_561:                              # %cond.false.1639
                                        #   in Loop: Header=BB9_541 Depth=2
	imulq	$20, re_max_failures, %rax
	movq	-216(%rbp), %rcx
	shlq	$3, %rcx
	shlq	$2, %rcx
	cmpq	%rcx, %rax
	jae	.LBB9_563
# BB#562:                               # %cond.true.1646
                                        #   in Loop: Header=BB9_541 Depth=2
	imulq	$20, re_max_failures, %rax
	movq	%rax, -1528(%rbp)       # 8-byte Spill
	jmp	.LBB9_564
.LBB9_563:                              # %cond.false.1648
                                        #   in Loop: Header=BB9_541 Depth=2
	movq	-216(%rbp), %rax
	shlq	$3, %rax
	shlq	$2, %rax
	movq	%rax, -1528(%rbp)       # 8-byte Spill
.LBB9_564:                              # %cond.end.1652
                                        #   in Loop: Header=BB9_541 Depth=2
	movq	-1528(%rbp), %rax       # 8-byte Reload
	movl	$1, %ecx
	shrq	$3, %rax
	movq	%rax, -216(%rbp)
	movl	%ecx, -1516(%rbp)       # 4-byte Spill
.LBB9_565:                              # %cond.end.1656
                                        #   in Loop: Header=BB9_541 Depth=2
	movl	-1516(%rbp), %eax       # 4-byte Reload
	cmpl	$0, %eax
	jne	.LBB9_567
.LBB9_566:                              # %if.then.1659
	movq	$-2, -24(%rbp)
	jmp	.LBB9_1520
.LBB9_567:                              # %if.end.1660
                                        #   in Loop: Header=BB9_541 Depth=2
	jmp	.LBB9_541
.LBB9_568:                              # %while.end.1661
                                        #   in Loop: Header=BB9_88 Depth=1
	movq	-440(%rbp), %rax
	movq	-240(%rbp), %rcx
	movq	(%rcx,%rax,8), %rax
	movq	-208(%rbp), %rcx
	movq	%rcx, %rdx
	addq	$1, %rdx
	movq	%rdx, -208(%rbp)
	movq	-224(%rbp), %rdx
	movq	%rax, (%rdx,%rcx,8)
	movq	-440(%rbp), %rax
	movq	-248(%rbp), %rcx
	movq	(%rcx,%rax,8), %rax
	movq	-208(%rbp), %rcx
	movq	%rcx, %rdx
	addq	$1, %rdx
	movq	%rdx, -208(%rbp)
	movq	-224(%rbp), %rdx
	movq	%rax, (%rdx,%rcx,8)
	movq	-440(%rbp), %rax
	movq	-208(%rbp), %rcx
	movq	%rcx, %rdx
	addq	$1, %rdx
	movq	%rdx, -208(%rbp)
	movq	-224(%rbp), %rdx
	movq	%rax, (%rdx,%rcx,8)
# BB#569:                               # %do.end.1678
                                        #   in Loop: Header=BB9_88 Depth=1
	movq	-144(%rbp), %rax
	movq	-168(%rbp), %rcx
	movzbl	(%rcx), %edx
	movl	%edx, %ecx
	movq	-240(%rbp), %rsi
	movq	%rax, (%rsi,%rcx,8)
	movq	-168(%rbp), %rax
	movzbl	(%rax), %edx
	movl	%edx, %eax
	movq	-248(%rbp), %rcx
	movq	$0, (%rcx,%rax,8)
	movq	-168(%rbp), %rax
	addq	$1, %rax
	movq	%rax, -168(%rbp)
	jmp	.LBB9_1426
.LBB9_570:                              # %sw.bb.1684
                                        #   in Loop: Header=BB9_88 Depth=1
	movq	-144(%rbp), %rax
	movq	-168(%rbp), %rcx
	movzbl	(%rcx), %edx
	movl	%edx, %ecx
	movq	-248(%rbp), %rsi
	movq	%rax, (%rsi,%rcx,8)
	movq	-168(%rbp), %rax
	addq	$1, %rax
	movq	%rax, -168(%rbp)
	jmp	.LBB9_1426
.LBB9_571:                              # %sw.bb.1688
                                        #   in Loop: Header=BB9_88 Depth=1
	movq	-168(%rbp), %rax
	movq	%rax, %rcx
	addq	$1, %rcx
	movq	%rcx, -168(%rbp)
	movzbl	(%rax), %edx
	movl	%edx, -460(%rbp)
	movslq	-460(%rbp), %rax
	movq	-240(%rbp), %rcx
	cmpq	$0, (%rcx,%rax,8)
	je	.LBB9_573
# BB#572:                               # %lor.lhs.false.1695
                                        #   in Loop: Header=BB9_88 Depth=1
	movslq	-460(%rbp), %rax
	movq	-248(%rbp), %rcx
	cmpq	$0, (%rcx,%rax,8)
	jne	.LBB9_574
.LBB9_573:                              # %if.then.1700
                                        #   in Loop: Header=BB9_88 Depth=1
	jmp	.LBB9_1427
.LBB9_574:                              # %if.end.1701
                                        #   in Loop: Header=BB9_88 Depth=1
	xorl	%eax, %eax
	movb	%al, %cl
	movslq	-460(%rbp), %rdx
	movq	-240(%rbp), %rsi
	movq	(%rsi,%rdx,8), %rdx
	movq	%rdx, -448(%rbp)
	movq	-144(%rbp), %rdx
	movq	%rdx, -160(%rbp)
	cmpq	$0, -48(%rbp)
	movb	%cl, -1529(%rbp)        # 1-byte Spill
	je	.LBB9_577
# BB#575:                               # %land.lhs.true.1705
                                        #   in Loop: Header=BB9_88 Depth=1
	xorl	%eax, %eax
	movb	%al, %cl
	movq	-40(%rbp), %rdx
	movslq	-460(%rbp), %rsi
	movq	-240(%rbp), %rdi
	cmpq	(%rdi,%rsi,8), %rdx
	movb	%cl, -1529(%rbp)        # 1-byte Spill
	ja	.LBB9_577
# BB#576:                               # %land.rhs.1710
                                        #   in Loop: Header=BB9_88 Depth=1
	movslq	-460(%rbp), %rax
	movq	-240(%rbp), %rcx
	movq	(%rcx,%rax,8), %rax
	movq	-40(%rbp), %rcx
	addq	-48(%rbp), %rcx
	cmpq	%rcx, %rax
	setbe	%dl
	movb	%dl, -1529(%rbp)        # 1-byte Spill
.LBB9_577:                              # %land.end.1716
                                        #   in Loop: Header=BB9_88 Depth=1
	movb	-1529(%rbp), %al        # 1-byte Reload
	xorl	%ecx, %ecx
	movb	%cl, %dl
	andb	$1, %al
	movzbl	%al, %ecx
	cmpq	$0, -48(%rbp)
	movl	%ecx, -1536(%rbp)       # 4-byte Spill
	movb	%dl, -1537(%rbp)        # 1-byte Spill
	je	.LBB9_580
# BB#578:                               # %land.lhs.true.1719
                                        #   in Loop: Header=BB9_88 Depth=1
	xorl	%eax, %eax
	movb	%al, %cl
	movq	-40(%rbp), %rdx
	movslq	-460(%rbp), %rsi
	movq	-248(%rbp), %rdi
	cmpq	(%rdi,%rsi,8), %rdx
	movb	%cl, -1537(%rbp)        # 1-byte Spill
	ja	.LBB9_580
# BB#579:                               # %land.rhs.1724
                                        #   in Loop: Header=BB9_88 Depth=1
	movslq	-460(%rbp), %rax
	movq	-248(%rbp), %rcx
	movq	(%rcx,%rax,8), %rax
	movq	-40(%rbp), %rcx
	addq	-48(%rbp), %rcx
	cmpq	%rcx, %rax
	setbe	%dl
	movb	%dl, -1537(%rbp)        # 1-byte Spill
.LBB9_580:                              # %land.end.1730
                                        #   in Loop: Header=BB9_88 Depth=1
	movb	-1537(%rbp), %al        # 1-byte Reload
	andb	$1, %al
	movzbl	%al, %ecx
	movl	-1536(%rbp), %edx       # 4-byte Reload
	cmpl	%ecx, %edx
	jne	.LBB9_582
# BB#581:                               # %cond.true.1734
                                        #   in Loop: Header=BB9_88 Depth=1
	movslq	-460(%rbp), %rax
	movq	-248(%rbp), %rcx
	movq	(%rcx,%rax,8), %rax
	movq	%rax, -1552(%rbp)       # 8-byte Spill
	jmp	.LBB9_583
.LBB9_582:                              # %cond.false.1737
                                        #   in Loop: Header=BB9_88 Depth=1
	movq	-128(%rbp), %rax
	movq	%rax, -1552(%rbp)       # 8-byte Spill
.LBB9_583:                              # %cond.end.1738
                                        #   in Loop: Header=BB9_88 Depth=1
	movq	-1552(%rbp), %rax       # 8-byte Reload
	movq	%rax, -456(%rbp)
.LBB9_584:                              # %for.cond.1740
                                        #   Parent Loop BB9_88 Depth=1
                                        # =>  This Loop Header: Depth=2
                                        #       Child Loop BB9_585 Depth 3
                                        #       Child Loop BB9_594 Depth 3
	jmp	.LBB9_585
.LBB9_585:                              # %while.cond.1742
                                        #   Parent Loop BB9_88 Depth=1
                                        #     Parent Loop BB9_584 Depth=2
                                        # =>    This Inner Loop Header: Depth=3
	movq	-448(%rbp), %rax
	cmpq	-456(%rbp), %rax
	jne	.LBB9_591
# BB#586:                               # %while.body.1745
                                        #   in Loop: Header=BB9_585 Depth=3
	movq	-456(%rbp), %rax
	cmpq	-136(%rbp), %rax
	jne	.LBB9_588
# BB#587:                               # %if.then.1748
                                        #   in Loop: Header=BB9_584 Depth=2
	jmp	.LBB9_591
.LBB9_588:                              # %if.end.1749
                                        #   in Loop: Header=BB9_585 Depth=3
	movq	-456(%rbp), %rax
	movslq	-460(%rbp), %rcx
	movq	-248(%rbp), %rdx
	cmpq	(%rdx,%rcx,8), %rax
	jne	.LBB9_590
# BB#589:                               # %if.then.1754
                                        #   in Loop: Header=BB9_584 Depth=2
	jmp	.LBB9_591
.LBB9_590:                              # %if.end.1755
                                        #   in Loop: Header=BB9_585 Depth=3
	movq	-56(%rbp), %rax
	movq	%rax, -448(%rbp)
	movslq	-460(%rbp), %rax
	movq	-248(%rbp), %rcx
	movq	(%rcx,%rax,8), %rax
	movq	%rax, -456(%rbp)
	jmp	.LBB9_585
.LBB9_591:                              # %while.end.1758
                                        #   in Loop: Header=BB9_584 Depth=2
	movq	-448(%rbp), %rax
	cmpq	-456(%rbp), %rax
	jne	.LBB9_593
# BB#592:                               # %if.then.1761
                                        #   in Loop: Header=BB9_88 Depth=1
	jmp	.LBB9_605
.LBB9_593:                              # %if.end.1762
                                        #   in Loop: Header=BB9_584 Depth=2
	jmp	.LBB9_594
.LBB9_594:                              # %while.cond.1763
                                        #   Parent Loop BB9_88 Depth=1
                                        #     Parent Loop BB9_584 Depth=2
                                        # =>    This Inner Loop Header: Depth=3
	movq	-144(%rbp), %rax
	cmpq	-152(%rbp), %rax
	jne	.LBB9_598
# BB#595:                               # %while.body.1766
                                        #   in Loop: Header=BB9_594 Depth=3
	movq	-152(%rbp), %rax
	cmpq	-136(%rbp), %rax
	jne	.LBB9_597
# BB#596:                               # %if.then.1769
                                        #   in Loop: Header=BB9_88 Depth=1
	jmp	.LBB9_1427
.LBB9_597:                              # %if.end.1770
                                        #   in Loop: Header=BB9_594 Depth=3
	movq	-56(%rbp), %rax
	movq	%rax, -144(%rbp)
	movq	-136(%rbp), %rax
	movq	%rax, -152(%rbp)
	jmp	.LBB9_594
.LBB9_598:                              # %while.end.1771
                                        #   in Loop: Header=BB9_584 Depth=2
	movq	-152(%rbp), %rax
	movq	-144(%rbp), %rcx
	subq	%rcx, %rax
	movq	%rax, -472(%rbp)
	movq	-472(%rbp), %rax
	movq	-456(%rbp), %rcx
	movq	-448(%rbp), %rdx
	subq	%rdx, %rcx
	cmpq	%rcx, %rax
	jle	.LBB9_600
# BB#599:                               # %if.then.1780
                                        #   in Loop: Header=BB9_584 Depth=2
	movq	-456(%rbp), %rax
	movq	-448(%rbp), %rcx
	subq	%rcx, %rax
	movq	%rax, -472(%rbp)
.LBB9_600:                              # %if.end.1784
                                        #   in Loop: Header=BB9_584 Depth=2
	cmpq	$2, -184(%rbp)
	je	.LBB9_602
# BB#601:                               # %cond.true.1787
                                        #   in Loop: Header=BB9_584 Depth=2
	movq	-144(%rbp), %rdi
	movq	-448(%rbp), %rsi
	movq	-472(%rbp), %rdx
	movq	-184(%rbp), %rcx
	movsbl	-186(%rbp), %r8d
	callq	bcmp_translate
	cmpl	$0, %eax
	jne	.LBB9_603
	jmp	.LBB9_604
.LBB9_602:                              # %cond.false.1791
                                        #   in Loop: Header=BB9_584 Depth=2
	movq	-144(%rbp), %rdi
	movq	-448(%rbp), %rsi
	movq	-472(%rbp), %rdx
	callq	memcmp
	cmpl	$0, %eax
	je	.LBB9_604
.LBB9_603:                              # %if.then.1794
                                        #   in Loop: Header=BB9_88 Depth=1
	movq	-160(%rbp), %rax
	movq	%rax, -144(%rbp)
	jmp	.LBB9_1427
.LBB9_604:                              # %if.end.1795
                                        #   in Loop: Header=BB9_584 Depth=2
	movq	-472(%rbp), %rax
	addq	-144(%rbp), %rax
	movq	%rax, -144(%rbp)
	movq	-472(%rbp), %rax
	addq	-448(%rbp), %rax
	movq	%rax, -448(%rbp)
	jmp	.LBB9_584
.LBB9_605:                              # %for.end.1798
                                        #   in Loop: Header=BB9_88 Depth=1
	jmp	.LBB9_1426
.LBB9_606:                              # %sw.bb.1799
                                        #   in Loop: Header=BB9_88 Depth=1
	movq	-144(%rbp), %rax
	cmpq	$0, -48(%rbp)
	movq	%rax, -1560(%rbp)       # 8-byte Spill
	je	.LBB9_608
# BB#607:                               # %cond.true.1801
                                        #   in Loop: Header=BB9_88 Depth=1
	movq	-40(%rbp), %rax
	movq	%rax, -1568(%rbp)       # 8-byte Spill
	jmp	.LBB9_609
.LBB9_608:                              # %cond.false.1802
                                        #   in Loop: Header=BB9_88 Depth=1
	movq	-56(%rbp), %rax
	movq	%rax, -1568(%rbp)       # 8-byte Spill
.LBB9_609:                              # %cond.end.1803
                                        #   in Loop: Header=BB9_88 Depth=1
	movq	-1568(%rbp), %rax       # 8-byte Reload
	movq	-1560(%rbp), %rcx       # 8-byte Reload
	cmpq	%rax, %rcx
	je	.LBB9_611
# BB#610:                               # %lor.lhs.false.1807
                                        #   in Loop: Header=BB9_88 Depth=1
	cmpq	$0, -64(%rbp)
	jne	.LBB9_614
.LBB9_611:                              # %if.then.1809
                                        #   in Loop: Header=BB9_88 Depth=1
	movq	-32(%rbp), %rax
	movw	56(%rax), %cx
	shrw	$5, %cx
	andw	$1, %cx
	movzwl	%cx, %edx
	cmpl	$0, %edx
	jne	.LBB9_613
# BB#612:                               # %if.then.1815
                                        #   in Loop: Header=BB9_88 Depth=1
	jmp	.LBB9_1426
.LBB9_613:                              # %if.end.1816
                                        #   in Loop: Header=BB9_88 Depth=1
	jmp	.LBB9_651
.LBB9_614:                              # %if.else.1817
                                        #   in Loop: Header=BB9_88 Depth=1
	jmp	.LBB9_615
.LBB9_615:                              # %do.body.1819
                                        #   in Loop: Header=BB9_88 Depth=1
	cmpb	$0, -186(%rbp)
	je	.LBB9_638
# BB#616:                               # %if.then.1821
                                        #   in Loop: Header=BB9_88 Depth=1
	movq	-144(%rbp), %rax
	cmpq	-56(%rbp), %rax
	jne	.LBB9_618
# BB#617:                               # %cond.true.1824
                                        #   in Loop: Header=BB9_88 Depth=1
	movq	-112(%rbp), %rax
	movq	%rax, -1576(%rbp)       # 8-byte Spill
	jmp	.LBB9_619
.LBB9_618:                              # %cond.false.1825
                                        #   in Loop: Header=BB9_88 Depth=1
	movq	-144(%rbp), %rax
	movq	%rax, -1576(%rbp)       # 8-byte Spill
.LBB9_619:                              # %cond.end.1826
                                        #   in Loop: Header=BB9_88 Depth=1
	movq	-1576(%rbp), %rax       # 8-byte Reload
	movq	%rax, -488(%rbp)
	movq	-144(%rbp), %rax
	cmpq	-56(%rbp), %rax
	jbe	.LBB9_622
# BB#620:                               # %land.lhs.true.1830
                                        #   in Loop: Header=BB9_88 Depth=1
	movq	-144(%rbp), %rax
	cmpq	-120(%rbp), %rax
	ja	.LBB9_622
# BB#621:                               # %cond.true.1833
                                        #   in Loop: Header=BB9_88 Depth=1
	movq	-56(%rbp), %rax
	movq	%rax, -1584(%rbp)       # 8-byte Spill
	jmp	.LBB9_623
.LBB9_622:                              # %cond.false.1834
                                        #   in Loop: Header=BB9_88 Depth=1
	movq	-40(%rbp), %rax
	movq	%rax, -1584(%rbp)       # 8-byte Spill
.LBB9_623:                              # %cond.end.1835
                                        #   in Loop: Header=BB9_88 Depth=1
	movq	-1584(%rbp), %rax       # 8-byte Reload
	movq	%rax, -496(%rbp)
.LBB9_624:                              # %while.cond.1837
                                        #   Parent Loop BB9_88 Depth=1
                                        # =>  This Inner Loop Header: Depth=2
	xorl	%eax, %eax
	movb	%al, %cl
	movq	-488(%rbp), %rdx
	movq	%rdx, %rsi
	addq	$-1, %rsi
	movq	%rsi, -488(%rbp)
	cmpq	-496(%rbp), %rdx
	movb	%cl, -1585(%rbp)        # 1-byte Spill
	jbe	.LBB9_626
# BB#625:                               # %land.rhs.1841
                                        #   in Loop: Header=BB9_624 Depth=2
	movq	-488(%rbp), %rax
	movzbl	(%rax), %ecx
	andl	$192, %ecx
	cmpl	$128, %ecx
	setne	%dl
	xorb	$-1, %dl
	movb	%dl, -1585(%rbp)        # 1-byte Spill
.LBB9_626:                              # %land.end.1848
                                        #   in Loop: Header=BB9_624 Depth=2
	movb	-1585(%rbp), %al        # 1-byte Reload
	testb	$1, %al
	jne	.LBB9_627
	jmp	.LBB9_628
.LBB9_627:                              # %while.body.1850
                                        #   in Loop: Header=BB9_624 Depth=2
	jmp	.LBB9_624
.LBB9_628:                              # %while.end.1851
                                        #   in Loop: Header=BB9_88 Depth=1
	movq	-488(%rbp), %rax
	movzbl	(%rax), %ecx
	andl	$128, %ecx
	cmpl	$0, %ecx
	jne	.LBB9_630
# BB#629:                               # %cond.true.1856
                                        #   in Loop: Header=BB9_88 Depth=1
	movq	-488(%rbp), %rax
	movzbl	(%rax), %ecx
	movl	%ecx, -1592(%rbp)       # 4-byte Spill
	jmp	.LBB9_637
.LBB9_630:                              # %cond.false.1859
                                        #   in Loop: Header=BB9_88 Depth=1
	movq	-488(%rbp), %rax
	movzbl	(%rax), %ecx
	andl	$32, %ecx
	cmpl	$0, %ecx
	jne	.LBB9_632
# BB#631:                               # %cond.true.1864
                                        #   in Loop: Header=BB9_88 Depth=1
	xorl	%eax, %eax
	movl	$4194176, %ecx          # imm = 0x3FFF80
	movq	-488(%rbp), %rdx
	movzbl	(%rdx), %esi
	andl	$31, %esi
	shll	$6, %esi
	movq	-488(%rbp), %rdx
	movzbl	1(%rdx), %edi
	andl	$63, %edi
	orl	%edi, %esi
	movq	-488(%rbp), %rdx
	movzbl	(%rdx), %edi
	cmpl	$194, %edi
	cmovll	%ecx, %eax
	addl	%eax, %esi
	movl	%esi, -1596(%rbp)       # 4-byte Spill
	jmp	.LBB9_636
.LBB9_632:                              # %cond.false.1879
                                        #   in Loop: Header=BB9_88 Depth=1
	movq	-488(%rbp), %rax
	movzbl	(%rax), %ecx
	andl	$16, %ecx
	cmpl	$0, %ecx
	jne	.LBB9_634
# BB#633:                               # %cond.true.1884
                                        #   in Loop: Header=BB9_88 Depth=1
	movq	-488(%rbp), %rax
	movzbl	(%rax), %ecx
	andl	$15, %ecx
	shll	$12, %ecx
	movq	-488(%rbp), %rax
	movzbl	1(%rax), %edx
	andl	$63, %edx
	shll	$6, %edx
	orl	%edx, %ecx
	movq	-488(%rbp), %rax
	movzbl	2(%rax), %edx
	andl	$63, %edx
	orl	%edx, %ecx
	movl	%ecx, -1600(%rbp)       # 4-byte Spill
	jmp	.LBB9_635
.LBB9_634:                              # %cond.false.1898
                                        #   in Loop: Header=BB9_88 Depth=1
	xorl	%eax, %eax
	movl	%eax, %ecx
	movq	-488(%rbp), %rdi
	movq	%rcx, %rsi
	movq	%rcx, %rdx
	callq	string_char
	movl	%eax, -1600(%rbp)       # 4-byte Spill
.LBB9_635:                              # %cond.end.1900
                                        #   in Loop: Header=BB9_88 Depth=1
	movl	-1600(%rbp), %eax       # 4-byte Reload
	movl	%eax, -1596(%rbp)       # 4-byte Spill
.LBB9_636:                              # %cond.end.1902
                                        #   in Loop: Header=BB9_88 Depth=1
	movl	-1596(%rbp), %eax       # 4-byte Reload
	movl	%eax, -1592(%rbp)       # 4-byte Spill
.LBB9_637:                              # %cond.end.1904
                                        #   in Loop: Header=BB9_88 Depth=1
	movl	-1592(%rbp), %eax       # 4-byte Reload
	movl	%eax, -476(%rbp)
	jmp	.LBB9_647
.LBB9_638:                              # %if.else.1906
                                        #   in Loop: Header=BB9_88 Depth=1
	movq	-144(%rbp), %rax
	cmpq	-56(%rbp), %rax
	jne	.LBB9_640
# BB#639:                               # %cond.true.1909
                                        #   in Loop: Header=BB9_88 Depth=1
	movq	-112(%rbp), %rax
	movq	%rax, -1608(%rbp)       # 8-byte Spill
	jmp	.LBB9_641
.LBB9_640:                              # %cond.false.1910
                                        #   in Loop: Header=BB9_88 Depth=1
	movq	-144(%rbp), %rax
	movq	%rax, -1608(%rbp)       # 8-byte Spill
.LBB9_641:                              # %cond.end.1911
                                        #   in Loop: Header=BB9_88 Depth=1
	movq	-1608(%rbp), %rax       # 8-byte Reload
	movb	$1, %cl
	movzbl	-1(%rax), %edx
	movl	%edx, -476(%rbp)
	testb	$1, %cl
	jne	.LBB9_642
	jmp	.LBB9_643
.LBB9_642:                              # %cond.true.1915
                                        #   in Loop: Header=BB9_88 Depth=1
	movl	-476(%rbp), %eax
	addl	$0, %eax
	cmpl	$128, %eax
	jb	.LBB9_644
	jmp	.LBB9_645
.LBB9_643:                              # %cond.false.1919
                                        #   in Loop: Header=BB9_88 Depth=1
	movl	-476(%rbp), %eax
	movl	%eax, %ecx
	addq	$0, %rcx
	cmpq	$128, %rcx
	jae	.LBB9_645
.LBB9_644:                              # %cond.true.1924
                                        #   in Loop: Header=BB9_88 Depth=1
	movl	-476(%rbp), %eax
	movl	%eax, -1612(%rbp)       # 4-byte Spill
	jmp	.LBB9_646
.LBB9_645:                              # %cond.false.1925
                                        #   in Loop: Header=BB9_88 Depth=1
	movl	-476(%rbp), %eax
	addl	$4194048, %eax          # imm = 0x3FFF00
	movl	%eax, -1612(%rbp)       # 4-byte Spill
.LBB9_646:                              # %cond.end.1927
                                        #   in Loop: Header=BB9_88 Depth=1
	movl	-1612(%rbp), %eax       # 4-byte Reload
	movl	%eax, -476(%rbp)
.LBB9_647:                              # %if.end.1929
                                        #   in Loop: Header=BB9_88 Depth=1
	jmp	.LBB9_648
.LBB9_648:                              # %do.end.1931
                                        #   in Loop: Header=BB9_88 Depth=1
	cmpl	$10, -476(%rbp)
	jne	.LBB9_650
# BB#649:                               # %if.then.1934
                                        #   in Loop: Header=BB9_88 Depth=1
	jmp	.LBB9_1426
.LBB9_650:                              # %if.end.1935
                                        #   in Loop: Header=BB9_88 Depth=1
	jmp	.LBB9_651
.LBB9_651:                              # %if.end.1936
                                        #   in Loop: Header=BB9_88 Depth=1
	jmp	.LBB9_1427
.LBB9_652:                              # %sw.bb.1937
                                        #   in Loop: Header=BB9_88 Depth=1
	movq	-144(%rbp), %rax
	cmpq	-120(%rbp), %rax
	jne	.LBB9_656
# BB#653:                               # %if.then.1940
                                        #   in Loop: Header=BB9_88 Depth=1
	movq	-32(%rbp), %rax
	movw	56(%rax), %cx
	shrw	$6, %cx
	andw	$1, %cx
	movzwl	%cx, %edx
	cmpl	$0, %edx
	jne	.LBB9_655
# BB#654:                               # %if.then.1946
                                        #   in Loop: Header=BB9_88 Depth=1
	jmp	.LBB9_1426
.LBB9_655:                              # %if.end.1947
                                        #   in Loop: Header=BB9_88 Depth=1
	jmp	.LBB9_661
.LBB9_656:                              # %if.else.1948
                                        #   in Loop: Header=BB9_88 Depth=1
	movq	-144(%rbp), %rax
	cmpq	-112(%rbp), %rax
	jne	.LBB9_658
# BB#657:                               # %if.then.1951
                                        #   in Loop: Header=BB9_88 Depth=1
	movq	-56(%rbp), %rax
	movq	%rax, -144(%rbp)
	movq	-136(%rbp), %rax
	movq	%rax, -152(%rbp)
.LBB9_658:                              # %if.end.1952
                                        #   in Loop: Header=BB9_88 Depth=1
	movq	-144(%rbp), %rax
	movzbl	(%rax), %ecx
	cmpl	$10, %ecx
	jne	.LBB9_660
# BB#659:                               # %if.then.1956
                                        #   in Loop: Header=BB9_88 Depth=1
	jmp	.LBB9_1426
.LBB9_660:                              # %if.end.1957
                                        #   in Loop: Header=BB9_88 Depth=1
	jmp	.LBB9_661
.LBB9_661:                              # %if.end.1958
                                        #   in Loop: Header=BB9_88 Depth=1
	jmp	.LBB9_1427
.LBB9_662:                              # %sw.bb.1959
                                        #   in Loop: Header=BB9_88 Depth=1
	movq	-144(%rbp), %rax
	cmpq	$0, -48(%rbp)
	movq	%rax, -1624(%rbp)       # 8-byte Spill
	je	.LBB9_664
# BB#663:                               # %cond.true.1961
                                        #   in Loop: Header=BB9_88 Depth=1
	movq	-40(%rbp), %rax
	movq	%rax, -1632(%rbp)       # 8-byte Spill
	jmp	.LBB9_665
.LBB9_664:                              # %cond.false.1962
                                        #   in Loop: Header=BB9_88 Depth=1
	movq	-56(%rbp), %rax
	movq	%rax, -1632(%rbp)       # 8-byte Spill
.LBB9_665:                              # %cond.end.1963
                                        #   in Loop: Header=BB9_88 Depth=1
	movq	-1632(%rbp), %rax       # 8-byte Reload
	movq	-1624(%rbp), %rcx       # 8-byte Reload
	cmpq	%rax, %rcx
	je	.LBB9_667
# BB#666:                               # %lor.lhs.false.1967
                                        #   in Loop: Header=BB9_88 Depth=1
	cmpq	$0, -64(%rbp)
	jne	.LBB9_668
