	.text
	.file	"xterm.bc"
	.globl	x_display_info_for_display
	.align	16, 0x90
	.type	x_display_info_for_display,@function
x_display_info_for_display:             # @x_display_info_for_display
	.cfi_startproc
# BB#0:                                 # %entry
	pushq	%rbp
.Ltmp0:
	.cfi_def_cfa_offset 16
.Ltmp1:
	.cfi_offset %rbp, -16
	movq	%rsp, %rbp
.Ltmp2:
	.cfi_def_cfa_register %rbp
	movq	%rdi, -16(%rbp)
	movq	x_display_list, %rdi
	movq	%rdi, -24(%rbp)
.LBB0_1:                                # %for.cond
                                        # =>This Inner Loop Header: Depth=1
	cmpq	$0, -24(%rbp)
	je	.LBB0_6
# BB#2:                                 # %for.body
                                        #   in Loop: Header=BB0_1 Depth=1
	movq	-24(%rbp), %rax
	movq	16(%rax), %rax
	cmpq	-16(%rbp), %rax
	jne	.LBB0_4
# BB#3:                                 # %if.then
	movq	-24(%rbp), %rax
	movq	%rax, -8(%rbp)
	jmp	.LBB0_7
.LBB0_4:                                # %if.end
                                        #   in Loop: Header=BB0_1 Depth=1
	jmp	.LBB0_5
.LBB0_5:                                # %for.inc
                                        #   in Loop: Header=BB0_1 Depth=1
	movq	-24(%rbp), %rax
	movq	(%rax), %rax
	movq	%rax, -24(%rbp)
	jmp	.LBB0_1
.LBB0_6:                                # %for.end
	movq	$0, -8(%rbp)
.LBB0_7:                                # %return
	movq	-8(%rbp), %rax
	popq	%rbp
	retq
.Lfunc_end0:
	.size	x_display_info_for_display, .Lfunc_end0-x_display_info_for_display
	.cfi_endproc

	.section	.rodata.cst8,"aM",@progbits,8
	.align	8
.LCPI1_0:
	.quad	4607182418800017408     # double 1
.LCPI1_1:
	.quad	4636737291354636288     # double 100
.LCPI1_2:
	.quad	4751297606873776128     # double 4294967295
.LCPI1_3:
	.quad	4890909195324358656     # double 9.2233720368547758E+18
	.text
	.globl	x_set_frame_alpha
	.align	16, 0x90
	.type	x_set_frame_alpha,@function
x_set_frame_alpha:                      # @x_set_frame_alpha
	.cfi_startproc
# BB#0:                                 # %entry
	pushq	%rbp
.Ltmp3:
	.cfi_def_cfa_offset 16
.Ltmp4:
	.cfi_offset %rbp, -16
	movq	%rsp, %rbp
.Ltmp5:
	.cfi_def_cfa_register %rbp
	pushq	%r15
	pushq	%r14
	pushq	%r12
	pushq	%rbx
	subq	$240, %rsp
.Ltmp6:
	.cfi_offset %rbx, -48
.Ltmp7:
	.cfi_offset %r12, -40
.Ltmp8:
	.cfi_offset %r14, -32
.Ltmp9:
	.cfi_offset %r15, -24
	movq	%rdi, -40(%rbp)
	movq	-40(%rbp), %rdi
	movq	384(%rdi), %rdi
	movq	424(%rdi), %rdi
	movq	%rdi, -48(%rbp)
	movq	-40(%rbp), %rdi
	movq	384(%rdi), %rdi
	movq	424(%rdi), %rdi
	movq	16(%rdi), %rdi
	movq	%rdi, -56(%rbp)
	movq	-40(%rbp), %rdi
	movq	384(%rdi), %rdi
	cmpq	$0, 80(%rdi)
	je	.LBB1_6
# BB#1:                                 # %cond.true
	movq	-40(%rbp), %rax
	movq	384(%rax), %rax
	cmpq	$0, 80(%rax)
	je	.LBB1_4
# BB#2:                                 # %land.lhs.true
	movq	-40(%rbp), %rax
	movq	384(%rax), %rax
	movq	80(%rax), %rdi
	callq	gtk_widget_get_window
	cmpq	$0, %rax
	je	.LBB1_4
# BB#3:                                 # %cond.true.14
	movq	-40(%rbp), %rax
	movq	384(%rax), %rax
	movq	80(%rax), %rdi
	callq	gtk_widget_get_window
	movq	%rax, %rdi
	callq	gdk_x11_drawable_get_xid
	movq	%rax, -152(%rbp)        # 8-byte Spill
	jmp	.LBB1_5
.LBB1_4:                                # %cond.false
	xorl	%eax, %eax
	movl	%eax, %ecx
	movq	%rcx, -152(%rbp)        # 8-byte Spill
	jmp	.LBB1_5
.LBB1_5:                                # %cond.end
	movq	-152(%rbp), %rax        # 8-byte Reload
	movq	%rax, -160(%rbp)        # 8-byte Spill
	jmp	.LBB1_7
.LBB1_6:                                # %cond.false.20
	movq	-40(%rbp), %rax
	movq	384(%rax), %rax
	movq	56(%rax), %rax
	movq	%rax, -160(%rbp)        # 8-byte Spill
.LBB1_7:                                # %cond.end.23
	movq	-160(%rbp), %rax        # 8-byte Reload
	movsd	.LCPI1_0, %xmm0         # xmm0 = mem[0],zero
	movq	%rax, -64(%rbp)
	movsd	%xmm0, -72(%rbp)
	movsd	%xmm0, -80(%rbp)
	movq	-48(%rbp), %rax
	movq	616(%rax), %rax
	cmpq	-40(%rbp), %rax
	jne	.LBB1_9
# BB#8:                                 # %if.then
	movq	-40(%rbp), %rax
	movsd	440(%rax), %xmm0        # xmm0 = mem[0],zero
	movsd	%xmm0, -72(%rbp)
	jmp	.LBB1_10
.LBB1_9:                                # %if.else
	movq	-40(%rbp), %rax
	movsd	448(%rax), %xmm0        # xmm0 = mem[0],zero
	movsd	%xmm0, -72(%rbp)
.LBB1_10:                               # %if.end
	movq	globals+880, %rax
	andq	$7, %rax
	movl	%eax, %ecx
	cmpl	$7, %ecx
	jne	.LBB1_12
# BB#11:                                # %if.then.30
	movq	globals+880, %rdi
	callq	XFLOAT_DATA
	movsd	%xmm0, -80(%rbp)
	jmp	.LBB1_15
.LBB1_12:                               # %if.else.32
	movq	globals+880, %rax
	andq	$7, %rax
	movl	%eax, %ecx
	andl	$-5, %ecx
	cmpl	$2, %ecx
	jne	.LBB1_14
# BB#13:                                # %if.then.38
	movsd	.LCPI1_1, %xmm0         # xmm0 = mem[0],zero
	movq	globals+880, %rax
	sarq	$2, %rax
	cvtsi2sdq	%rax, %xmm1
	divsd	%xmm0, %xmm1
	movsd	%xmm1, -80(%rbp)
.LBB1_14:                               # %if.end.40
	jmp	.LBB1_15
.LBB1_15:                               # %if.end.41
	xorps	%xmm0, %xmm0
	ucomisd	-72(%rbp), %xmm0
	jbe	.LBB1_17
# BB#16:                                # %if.then.44
	jmp	.LBB1_33
.LBB1_17:                               # %if.else.45
	movsd	.LCPI1_0, %xmm0         # xmm0 = mem[0],zero
	movsd	-72(%rbp), %xmm1        # xmm1 = mem[0],zero
	ucomisd	%xmm0, %xmm1
	jbe	.LBB1_19
# BB#18:                                # %if.then.48
	movsd	.LCPI1_0, %xmm0         # xmm0 = mem[0],zero
	movsd	%xmm0, -72(%rbp)
	jmp	.LBB1_24
.LBB1_19:                               # %if.else.49
	xorps	%xmm0, %xmm0
	movsd	-72(%rbp), %xmm1        # xmm1 = mem[0],zero
	ucomisd	%xmm0, %xmm1
	jb	.LBB1_23
# BB#20:                                # %land.lhs.true.52
	movsd	-72(%rbp), %xmm0        # xmm0 = mem[0],zero
	movsd	-80(%rbp), %xmm1        # xmm1 = mem[0],zero
	ucomisd	%xmm0, %xmm1
	jbe	.LBB1_23
# BB#21:                                # %land.lhs.true.55
	movsd	.LCPI1_0, %xmm0         # xmm0 = mem[0],zero
	ucomisd	-80(%rbp), %xmm0
	jb	.LBB1_23
# BB#22:                                # %if.then.58
	movsd	-80(%rbp), %xmm0        # xmm0 = mem[0],zero
	movsd	%xmm0, -72(%rbp)
.LBB1_23:                               # %if.end.59
	jmp	.LBB1_24
.LBB1_24:                               # %if.end.60
	jmp	.LBB1_25
.LBB1_25:                               # %if.end.61
	movsd	-72(%rbp), %xmm0        # xmm0 = mem[0],zero
	movsd	.LCPI1_2(%rip), %xmm1   # xmm1 = mem[0],zero
	mulsd	%xmm1, %xmm0
	movsd	.LCPI1_3(%rip), %xmm1   # xmm1 = mem[0],zero
	movaps	%xmm0, %xmm2
	subsd	%xmm1, %xmm2
	cvttsd2si	%xmm2, %rax
	movabsq	$-9223372036854775808, %rcx # imm = 0x8000000000000000
	xorq	%rcx, %rax
	cvttsd2si	%xmm0, %rcx
	ucomisd	%xmm1, %xmm0
	cmovbq	%rcx, %rax
	movq	%rax, -88(%rbp)
	movq	-56(%rbp), %rdi
	callq	x_catch_errors
	movq	-40(%rbp), %rdi
	callq	x_find_topmost_parent
	movq	%rax, -96(%rbp)
	cmpq	$0, -96(%rbp)
	je	.LBB1_27
# BB#26:                                # %if.then.66
	movl	$6, %eax
	movl	%eax, %ecx
	movl	$32, %r8d
	xorl	%r9d, %r9d
	movl	$1, %eax
	leaq	-88(%rbp), %rdx
	movq	-56(%rbp), %rdi
	movq	-96(%rbp), %rsi
	movq	-48(%rbp), %r10
	movq	984(%r10), %r10
	movq	%rdx, -168(%rbp)        # 8-byte Spill
	movq	%r10, %rdx
	movq	-168(%rbp), %r10        # 8-byte Reload
	movq	%r10, (%rsp)
	movl	$1, 8(%rsp)
	movl	%eax, -172(%rbp)        # 4-byte Spill
	callq	XChangeProperty
	movl	%eax, -176(%rbp)        # 4-byte Spill
.LBB1_27:                               # %if.end.68
	xorl	%eax, %eax
	movl	%eax, %ecx
	movl	$1, %eax
	movl	%eax, %r8d
	xorl	%r9d, %r9d
	movl	$6, %eax
	movl	%eax, %edx
	leaq	-112(%rbp), %rsi
	leaq	-120(%rbp), %rdi
	leaq	-128(%rbp), %r10
	leaq	-136(%rbp), %r11
	leaq	-104(%rbp), %rbx
	movq	-56(%rbp), %r14
	movq	-64(%rbp), %r15
	movq	-48(%rbp), %r12
	movq	984(%r12), %r12
	movq	%rdi, -184(%rbp)        # 8-byte Spill
	movq	%r14, %rdi
	movq	%rsi, -192(%rbp)        # 8-byte Spill
	movq	%r15, %rsi
	movq	%rdx, -200(%rbp)        # 8-byte Spill
	movq	%r12, %rdx
	movq	$6, (%rsp)
	movq	-192(%rbp), %r14        # 8-byte Reload
	movq	%r14, 8(%rsp)
	movq	-184(%rbp), %r15        # 8-byte Reload
	movq	%r15, 16(%rsp)
	movq	%r10, 24(%rsp)
	movq	%r11, 32(%rsp)
	movq	%rbx, 40(%rsp)
	callq	XGetWindowProperty
	movl	%eax, -116(%rbp)
	cmpl	$0, -116(%rbp)
	jne	.LBB1_32
# BB#28:                                # %land.lhs.true.73
	cmpq	$0, -112(%rbp)
	je	.LBB1_32
# BB#29:                                # %if.then.76
	movq	-104(%rbp), %rax
	movq	(%rax), %rax
	movq	%rax, -144(%rbp)
	movq	-104(%rbp), %rdi
	callq	XFree
	movq	-144(%rbp), %rdi
	cmpq	-88(%rbp), %rdi
	movl	%eax, -204(%rbp)        # 4-byte Spill
	jne	.LBB1_31
# BB#30:                                # %if.then.80
	callq	x_uncatch_errors
	jmp	.LBB1_33
.LBB1_31:                               # %if.end.81
	jmp	.LBB1_32
.LBB1_32:                               # %if.end.82
	movl	$6, %eax
	movl	%eax, %ecx
	movl	$32, %r8d
	xorl	%r9d, %r9d
	movl	$1, %eax
	leaq	-88(%rbp), %rdx
	movq	-56(%rbp), %rdi
	movq	-64(%rbp), %rsi
	movq	-48(%rbp), %r10
	movq	984(%r10), %r10
	movq	%rdx, -216(%rbp)        # 8-byte Spill
	movq	%r10, %rdx
	movq	-216(%rbp), %r10        # 8-byte Reload
	movq	%r10, (%rsp)
	movl	$1, 8(%rsp)
	movl	%eax, -220(%rbp)        # 4-byte Spill
	callq	XChangeProperty
	movl	%eax, -224(%rbp)        # 4-byte Spill
	callq	x_uncatch_errors
.LBB1_33:                               # %return
	addq	$240, %rsp
	popq	%rbx
	popq	%r12
	popq	%r14
	popq	%r15
	popq	%rbp
	retq
.Lfunc_end1:
	.size	x_set_frame_alpha, .Lfunc_end1-x_set_frame_alpha
	.cfi_endproc

	.globl	x_catch_errors
	.align	16, 0x90
	.type	x_catch_errors,@function
x_catch_errors:                         # @x_catch_errors
	.cfi_startproc
# BB#0:                                 # %entry
	pushq	%rbp
.Ltmp10:
	.cfi_def_cfa_offset 16
.Ltmp11:
	.cfi_offset %rbp, -16
	movq	%rsp, %rbp
.Ltmp12:
	.cfi_def_cfa_register %rbp
	subq	$16, %rsp
	xorl	%eax, %eax
	movl	%eax, %ecx
	movq	%rdi, -8(%rbp)
	movq	-8(%rbp), %rdi
	movq	%rcx, %rsi
	movq	%rcx, %rdx
	callq	x_catch_errors_with_handler
	addq	$16, %rsp
	popq	%rbp
	retq
.Lfunc_end2:
	.size	x_catch_errors, .Lfunc_end2-x_catch_errors
	.cfi_endproc

	.align	16, 0x90
	.type	x_find_topmost_parent,@function
x_find_topmost_parent:                  # @x_find_topmost_parent
	.cfi_startproc
# BB#0:                                 # %entry
	pushq	%rbp
.Ltmp13:
	.cfi_def_cfa_offset 16
.Ltmp14:
	.cfi_offset %rbp, -16
	movq	%rsp, %rbp
.Ltmp15:
	.cfi_def_cfa_register %rbp
	subq	$64, %rsp
	movq	%rdi, -8(%rbp)
	movq	-8(%rbp), %rdi
	movq	384(%rdi), %rdi
	movq	%rdi, -16(%rbp)
	movq	$0, -24(%rbp)
	movq	-16(%rbp), %rdi
	movq	72(%rdi), %rdi
	movq	%rdi, -32(%rbp)
	movq	-8(%rbp), %rdi
	movq	384(%rdi), %rdi
	movq	424(%rdi), %rdi
	movq	16(%rdi), %rdi
	movq	%rdi, -40(%rbp)
.LBB3_1:                                # %while.cond
                                        # =>This Inner Loop Header: Depth=1
	movq	-32(%rbp), %rax
	movq	-8(%rbp), %rcx
	movq	384(%rcx), %rcx
	movq	424(%rcx), %rcx
	cmpq	104(%rcx), %rax
	je	.LBB3_6
# BB#2:                                 # %while.body
                                        #   in Loop: Header=BB3_1 Depth=1
	leaq	-48(%rbp), %rdx
	leaq	-32(%rbp), %rcx
	leaq	-56(%rbp), %r8
	leaq	-60(%rbp), %r9
	movq	-32(%rbp), %rax
	movq	%rax, -24(%rbp)
	movq	-40(%rbp), %rdi
	movq	-24(%rbp), %rsi
	callq	XQueryTree
	cmpl	$0, %eax
	je	.LBB3_4
# BB#3:                                 # %if.then
                                        #   in Loop: Header=BB3_1 Depth=1
	movq	-56(%rbp), %rax
	movq	%rax, %rdi
	callq	XFree
	movl	%eax, -64(%rbp)         # 4-byte Spill
	jmp	.LBB3_5
.LBB3_4:                                # %if.else
	jmp	.LBB3_6
.LBB3_5:                                # %if.end
                                        #   in Loop: Header=BB3_1 Depth=1
	jmp	.LBB3_1
.LBB3_6:                                # %while.end
	movq	-24(%rbp), %rax
	addq	$64, %rsp
	popq	%rbp
	retq
.Lfunc_end3:
	.size	x_find_topmost_parent, .Lfunc_end3-x_find_topmost_parent
	.cfi_endproc

	.globl	x_uncatch_errors
	.align	16, 0x90
	.type	x_uncatch_errors,@function
x_uncatch_errors:                       # @x_uncatch_errors
	.cfi_startproc
# BB#0:                                 # %entry
	pushq	%rbp
.Ltmp16:
	.cfi_def_cfa_offset 16
.Ltmp17:
	.cfi_offset %rbp, -16
	movq	%rsp, %rbp
.Ltmp18:
	.cfi_def_cfa_register %rbp
	subq	$16, %rsp
	callq	block_input
	movq	x_error_message, %rax
	movq	200(%rax), %rdi
	callq	x_display_info_for_display
	cmpq	$0, %rax
	je	.LBB4_4
# BB#1:                                 # %if.then
	jmp	.LBB4_2
.LBB4_2:                                # %do.body
	callq	gdk_window_process_all_updates
	xorl	%esi, %esi
	movq	x_error_message, %rax
	movq	200(%rax), %rdi
	callq	XSync
	movl	%eax, -12(%rbp)         # 4-byte Spill
# BB#3:                                 # %do.end
	jmp	.LBB4_4
.LBB4_4:                                # %if.end
	movq	x_error_message, %rax
	movq	%rax, -8(%rbp)
	movq	x_error_message, %rax
	movq	224(%rax), %rax
	movq	%rax, x_error_message
	movq	-8(%rbp), %rax
	movq	%rax, %rdi
	callq	xfree
	callq	unblock_input
	addq	$16, %rsp
	popq	%rbp
	retq
.Lfunc_end4:
	.size	x_uncatch_errors, .Lfunc_end4-x_uncatch_errors
	.cfi_endproc

	.globl	x_query_colors
	.align	16, 0x90
	.type	x_query_colors,@function
x_query_colors:                         # @x_query_colors
	.cfi_startproc
# BB#0:                                 # %entry
	pushq	%rbp
.Ltmp19:
	.cfi_def_cfa_offset 16
.Ltmp20:
	.cfi_offset %rbp, -16
	movq	%rsp, %rbp
.Ltmp21:
	.cfi_def_cfa_register %rbp
	subq	$112, %rsp
	movq	%rdi, -8(%rbp)
	movq	%rsi, -16(%rbp)
	movl	%edx, -20(%rbp)
	movq	-8(%rbp), %rsi
	movq	384(%rsi), %rsi
	movq	424(%rsi), %rsi
	movq	%rsi, -32(%rbp)
	movq	-32(%rbp), %rsi
	cmpl	$0, 748(%rsi)
	jle	.LBB5_6
# BB#1:                                 # %if.then
	movl	$4294967295, %eax       # imm = 0xFFFFFFFF
	movl	$1, %ecx
	movq	-32(%rbp), %rdx
	movl	748(%rdx), %esi
	movl	%ecx, -100(%rbp)        # 4-byte Spill
	movl	%esi, %ecx
                                        # kill: CL<def> ECX<kill>
	movl	-100(%rbp), %esi        # 4-byte Reload
	shll	%cl, %esi
	subl	$1, %esi
	movl	%esi, -52(%rbp)
	movq	-32(%rbp), %rdx
	movl	756(%rdx), %ecx
                                        # kill: CL<def> ECX<kill>
	movl	-100(%rbp), %esi        # 4-byte Reload
	shll	%cl, %esi
	subl	$1, %esi
	movl	%esi, -56(%rbp)
	movq	-32(%rbp), %rdx
	movl	752(%rdx), %ecx
                                        # kill: CL<def> ECX<kill>
	movl	-100(%rbp), %esi        # 4-byte Reload
	shll	%cl, %esi
	subl	$1, %esi
	movl	%esi, -60(%rbp)
	movl	%eax, -104(%rbp)        # 4-byte Spill
	xorl	%edx, %edx
	divl	-52(%rbp)
	movl	%eax, -40(%rbp)
	movl	-104(%rbp), %eax        # 4-byte Reload
	xorl	%esi, %esi
	movl	%esi, %edx
	divl	-56(%rbp)
	movl	%eax, -44(%rbp)
	movl	-104(%rbp), %eax        # 4-byte Reload
	xorl	%esi, %esi
	movl	%esi, %edx
	divl	-60(%rbp)
	movl	%eax, -48(%rbp)
	movl	$0, -36(%rbp)
.LBB5_2:                                # %for.cond
                                        # =>This Inner Loop Header: Depth=1
	movl	-36(%rbp), %eax
	cmpl	-20(%rbp), %eax
	jge	.LBB5_5
# BB#3:                                 # %for.body
                                        #   in Loop: Header=BB5_2 Depth=1
	movslq	-36(%rbp), %rax
	shlq	$4, %rax
	addq	-16(%rbp), %rax
	movq	(%rax), %rax
	movq	%rax, -80(%rbp)
	movq	-80(%rbp), %rax
	movq	-32(%rbp), %rcx
	movl	760(%rcx), %edx
	movl	%edx, %ecx
                                        # kill: CL<def> RCX<kill>
	shrq	%cl, %rax
	movl	-52(%rbp), %edx
	movl	%edx, %esi
	andq	%rsi, %rax
	movl	%eax, %edx
	movl	%edx, -64(%rbp)
	movq	-80(%rbp), %rax
	movq	-32(%rbp), %rsi
	movl	768(%rsi), %edx
	movl	%edx, %ecx
                                        # kill: CL<def> RCX<kill>
	shrq	%cl, %rax
	movl	-56(%rbp), %edx
	movl	%edx, %esi
	andq	%rsi, %rax
	movl	%eax, %edx
	movl	%edx, -68(%rbp)
	movq	-80(%rbp), %rax
	movq	-32(%rbp), %rsi
	movl	764(%rsi), %edx
	movl	%edx, %ecx
                                        # kill: CL<def> RCX<kill>
	shrq	%cl, %rax
	movl	-60(%rbp), %edx
	movl	%edx, %esi
	andq	%rsi, %rax
	movl	%eax, %edx
	movl	%edx, -72(%rbp)
	movl	-64(%rbp), %edx
	imull	-40(%rbp), %edx
	shrl	$16, %edx
	movw	%dx, %di
	movslq	-36(%rbp), %rax
	shlq	$4, %rax
	addq	-16(%rbp), %rax
	movw	%di, 8(%rax)
	movl	-68(%rbp), %edx
	imull	-44(%rbp), %edx
	shrl	$16, %edx
	movw	%dx, %di
	movslq	-36(%rbp), %rax
	shlq	$4, %rax
	addq	-16(%rbp), %rax
	movw	%di, 10(%rax)
	movl	-72(%rbp), %edx
	imull	-48(%rbp), %edx
	shrl	$16, %edx
	movw	%dx, %di
	movslq	-36(%rbp), %rax
	shlq	$4, %rax
	addq	-16(%rbp), %rax
	movw	%di, 12(%rax)
# BB#4:                                 # %for.inc
                                        #   in Loop: Header=BB5_2 Depth=1
	movl	-36(%rbp), %eax
	addl	$1, %eax
	movl	%eax, -36(%rbp)
	jmp	.LBB5_2
.LBB5_5:                                # %for.end
	jmp	.LBB5_13
.LBB5_6:                                # %if.end
	movq	-32(%rbp), %rax
	cmpq	$0, 736(%rax)
	je	.LBB5_12
# BB#7:                                 # %if.then.35
	movl	$0, -84(%rbp)
.LBB5_8:                                # %for.cond.37
                                        # =>This Inner Loop Header: Depth=1
	movl	-84(%rbp), %eax
	cmpl	-20(%rbp), %eax
	jge	.LBB5_11
# BB#9:                                 # %for.body.40
                                        #   in Loop: Header=BB5_8 Depth=1
	movslq	-84(%rbp), %rax
	shlq	$4, %rax
	addq	-16(%rbp), %rax
	movq	(%rax), %rax
	movq	%rax, -96(%rbp)
	movslq	-84(%rbp), %rax
	shlq	$4, %rax
	addq	-16(%rbp), %rax
	movq	-96(%rbp), %rcx
	movq	-32(%rbp), %rdx
	shlq	$4, %rcx
	addq	736(%rdx), %rcx
	movq	(%rcx), %rdx
	movq	%rdx, (%rax)
	movq	8(%rcx), %rcx
	movq	%rcx, 8(%rax)
# BB#10:                                # %for.inc.49
                                        #   in Loop: Header=BB5_8 Depth=1
	movl	-84(%rbp), %eax
	addl	$1, %eax
	movl	%eax, -84(%rbp)
	jmp	.LBB5_8
.LBB5_11:                               # %for.end.51
	jmp	.LBB5_13
.LBB5_12:                               # %if.end.52
	movq	-8(%rbp), %rax
	movq	384(%rax), %rax
	movq	424(%rax), %rax
	movq	16(%rax), %rdi
	movq	-8(%rbp), %rax
	movq	384(%rax), %rax
	movq	424(%rax), %rax
	movq	80(%rax), %rsi
	movq	-16(%rbp), %rdx
	movl	-20(%rbp), %ecx
	callq	XQueryColors
	movl	%eax, -108(%rbp)        # 4-byte Spill
.LBB5_13:                               # %return
	addq	$112, %rsp
	popq	%rbp
	retq
.Lfunc_end5:
	.size	x_query_colors, .Lfunc_end5-x_query_colors
	.cfi_endproc

	.globl	x_query_color
	.align	16, 0x90
	.type	x_query_color,@function
x_query_color:                          # @x_query_color
	.cfi_startproc
# BB#0:                                 # %entry
	pushq	%rbp
.Ltmp22:
	.cfi_def_cfa_offset 16
.Ltmp23:
	.cfi_offset %rbp, -16
	movq	%rsp, %rbp
.Ltmp24:
	.cfi_def_cfa_register %rbp
	subq	$16, %rsp
	movl	$1, %edx
	movq	%rdi, -8(%rbp)
	movq	%rsi, -16(%rbp)
	movq	-8(%rbp), %rdi
	movq	-16(%rbp), %rsi
	callq	x_query_colors
	addq	$16, %rsp
	popq	%rbp
	retq
.Lfunc_end6:
	.size	x_query_color, .Lfunc_end6-x_query_color
	.cfi_endproc

	.globl	x_parse_color
	.align	16, 0x90
	.type	x_parse_color,@function
x_parse_color:                          # @x_parse_color
	.cfi_startproc
# BB#0:                                 # %entry
	pushq	%rbp
.Ltmp25:
	.cfi_def_cfa_offset 16
.Ltmp26:
	.cfi_offset %rbp, -16
	movq	%rsp, %rbp
.Ltmp27:
	.cfi_def_cfa_register %rbp
	subq	$64, %rsp
	movq	%rdi, -16(%rbp)
	movq	%rsi, -24(%rbp)
	movq	%rdx, -32(%rbp)
	movq	-16(%rbp), %rdx
	movq	384(%rdx), %rdx
	movq	424(%rdx), %rdx
	movq	16(%rdx), %rdx
	movq	%rdx, -40(%rbp)
	movq	-16(%rbp), %rdx
	movq	384(%rdx), %rdx
	movq	424(%rdx), %rdx
	movq	80(%rdx), %rdx
	movq	%rdx, -48(%rbp)
	movq	-24(%rbp), %rdx
	movsbl	(%rdx), %eax
	cmpl	$35, %eax
	jne	.LBB7_2
# BB#1:                                 # %if.then
	movq	-40(%rbp), %rdi
	movq	-48(%rbp), %rsi
	movq	-24(%rbp), %rdx
	movq	-32(%rbp), %rcx
	callq	XParseColor
	movl	%eax, -4(%rbp)
	jmp	.LBB7_11
.LBB7_2:                                # %if.end
	movq	-16(%rbp), %rax
	movq	384(%rax), %rax
	movq	424(%rax), %rax
	movq	728(%rax), %rax
	movq	%rax, -56(%rbp)
.LBB7_3:                                # %for.cond
                                        # =>This Inner Loop Header: Depth=1
	cmpq	$0, -56(%rbp)
	je	.LBB7_8
# BB#4:                                 # %for.body
                                        #   in Loop: Header=BB7_3 Depth=1
	movq	-56(%rbp), %rax
	movq	24(%rax), %rdi
	movq	-24(%rbp), %rsi
	callq	xstrcasecmp
	cmpl	$0, %eax
	jne	.LBB7_6
# BB#5:                                 # %if.then.11
	movq	-32(%rbp), %rax
	movq	-56(%rbp), %rcx
	movq	8(%rcx), %rdx
	movq	%rdx, (%rax)
	movq	16(%rcx), %rcx
	movq	%rcx, 8(%rax)
	movl	$1, -4(%rbp)
	jmp	.LBB7_11
.LBB7_6:                                # %if.end.12
                                        #   in Loop: Header=BB7_3 Depth=1
	jmp	.LBB7_7
.LBB7_7:                                # %for.inc
                                        #   in Loop: Header=BB7_3 Depth=1
	movq	-56(%rbp), %rax
	movq	(%rax), %rax
	movq	%rax, -56(%rbp)
	jmp	.LBB7_3
.LBB7_8:                                # %for.end
	movq	-40(%rbp), %rdi
	movq	-48(%rbp), %rsi
	movq	-24(%rbp), %rdx
	movq	-32(%rbp), %rcx
	callq	XParseColor
	cmpl	$0, %eax
	jne	.LBB7_10
# BB#9:                                 # %if.then.16
	movl	$0, -4(%rbp)
	jmp	.LBB7_11
.LBB7_10:                               # %if.end.17
	movl	$32, %eax
	movl	%eax, %edi
	callq	xzalloc
	movq	%rax, -56(%rbp)
	movq	-56(%rbp), %rax
	movq	-32(%rbp), %rdi
	movq	(%rdi), %rcx
	movq	%rcx, 8(%rax)
	movq	8(%rdi), %rcx
	movq	%rcx, 16(%rax)
	movq	-24(%rbp), %rdi
	callq	xstrdup
	movq	-56(%rbp), %rcx
	movq	%rax, 24(%rcx)
	movq	-16(%rbp), %rax
	movq	384(%rax), %rax
	movq	424(%rax), %rax
	movq	728(%rax), %rax
	movq	-56(%rbp), %rcx
	movq	%rax, (%rcx)
	movq	-56(%rbp), %rax
	movq	-16(%rbp), %rcx
	movq	384(%rcx), %rcx
	movq	424(%rcx), %rcx
	movq	%rax, 728(%rcx)
	movl	$1, -4(%rbp)
.LBB7_11:                               # %return
	movl	-4(%rbp), %eax
	addq	$64, %rsp
	popq	%rbp
	retq
.Lfunc_end7:
	.size	x_parse_color, .Lfunc_end7-x_parse_color
	.cfi_endproc

	.globl	x_alloc_nearest_color
	.align	16, 0x90
	.type	x_alloc_nearest_color,@function
x_alloc_nearest_color:                  # @x_alloc_nearest_color
	.cfi_startproc
# BB#0:                                 # %entry
	pushq	%rbp
.Ltmp28:
	.cfi_def_cfa_offset 16
.Ltmp29:
	.cfi_offset %rbp, -16
	movq	%rsp, %rbp
.Ltmp30:
	.cfi_def_cfa_register %rbp
	subq	$48, %rsp
	movq	%rdi, -16(%rbp)
	movq	%rsi, -24(%rbp)
	movq	%rdx, -32(%rbp)
	movq	-16(%rbp), %rdx
	movq	384(%rdx), %rdx
	movq	424(%rdx), %rdx
	movq	%rdx, -40(%rbp)
	movq	-16(%rbp), %rdi
	movq	-32(%rbp), %rsi
	callq	gamma_correct
	movq	-40(%rbp), %rdx
	cmpl	$0, 748(%rdx)
	jle	.LBB8_2
# BB#1:                                 # %if.then
	movq	-40(%rbp), %rdi
	movq	-32(%rbp), %rax
	movzwl	8(%rax), %esi
	movq	-32(%rbp), %rax
	movzwl	10(%rax), %edx
	movq	-32(%rbp), %rax
	movzwl	12(%rax), %ecx
	callq	x_make_truecolor_pixel
	movq	-32(%rbp), %rdi
	movq	%rax, (%rdi)
	movb	$1, -1(%rbp)
	jmp	.LBB8_3
.LBB8_2:                                # %if.end
	movq	-16(%rbp), %rax
	movq	384(%rax), %rax
	movq	424(%rax), %rax
	movq	16(%rax), %rdi
	movq	-24(%rbp), %rsi
	movq	-32(%rbp), %rdx
	callq	x_alloc_nearest_color_1
	andb	$1, %al
	movb	%al, -1(%rbp)
.LBB8_3:                                # %return
	movb	-1(%rbp), %al
	andb	$1, %al
	movzbl	%al, %eax
	addq	$48, %rsp
	popq	%rbp
	retq
.Lfunc_end8:
	.size	x_alloc_nearest_color, .Lfunc_end8-x_alloc_nearest_color
	.cfi_endproc

	.align	16, 0x90
	.type	x_alloc_nearest_color_1,@function
x_alloc_nearest_color_1:                # @x_alloc_nearest_color_1
	.cfi_startproc
# BB#0:                                 # %entry
	pushq	%rbp
.Ltmp31:
	.cfi_def_cfa_offset 16
.Ltmp32:
	.cfi_offset %rbp, -16
	movq	%rsp, %rbp
.Ltmp33:
	.cfi_def_cfa_register %rbp
	subq	$112, %rsp
	movq	%rdi, -8(%rbp)
	movq	%rsi, -16(%rbp)
	movq	%rdx, -24(%rbp)
	movq	-8(%rbp), %rdi
	movq	-16(%rbp), %rsi
	movq	-24(%rbp), %rdx
	callq	XAllocColor
	cmpl	$0, %eax
	setne	%cl
	andb	$1, %cl
	movb	%cl, -25(%rbp)
	movb	-25(%rbp), %cl
	andb	$1, %cl
	movzbl	%cl, %eax
	cmpl	$0, %eax
	jne	.LBB9_8
# BB#1:                                 # %if.then
	leaq	-52(%rbp), %rsi
	movl	$255, -40(%rbp)
	imull	$3, -40(%rbp), %eax
	movl	%eax, -44(%rbp)
	movl	-44(%rbp), %eax
	addl	$1, %eax
	movl	%eax, -48(%rbp)
	movq	-8(%rbp), %rdi
	callq	x_color_cells
	movq	%rax, -64(%rbp)
	movl	$0, -36(%rbp)
	movl	$0, -32(%rbp)
.LBB9_2:                                # %for.cond
                                        # =>This Inner Loop Header: Depth=1
	movl	-36(%rbp), %eax
	cmpl	-52(%rbp), %eax
	jge	.LBB9_7
# BB#3:                                 # %for.body
                                        #   in Loop: Header=BB9_2 Depth=1
	movq	-24(%rbp), %rax
	movzwl	8(%rax), %ecx
	sarl	$8, %ecx
	movslq	-36(%rbp), %rax
	shlq	$4, %rax
	addq	-64(%rbp), %rax
	movzwl	8(%rax), %edx
	sarl	$8, %edx
	subl	%edx, %ecx
	movl	%ecx, -68(%rbp)
	movq	-24(%rbp), %rax
	movzwl	10(%rax), %ecx
	sarl	$8, %ecx
	movslq	-36(%rbp), %rax
	shlq	$4, %rax
	addq	-64(%rbp), %rax
	movzwl	10(%rax), %edx
	sarl	$8, %edx
	subl	%edx, %ecx
	movl	%ecx, -72(%rbp)
	movq	-24(%rbp), %rax
	movzwl	12(%rax), %ecx
	sarl	$8, %ecx
	movslq	-36(%rbp), %rax
	shlq	$4, %rax
	addq	-64(%rbp), %rax
	movzwl	12(%rax), %edx
	sarl	$8, %edx
	subl	%edx, %ecx
	movl	%ecx, -76(%rbp)
	movl	-68(%rbp), %ecx
	imull	-68(%rbp), %ecx
	movl	-72(%rbp), %edx
	imull	-72(%rbp), %edx
	addl	%edx, %ecx
	movl	-76(%rbp), %edx
	imull	-76(%rbp), %edx
	addl	%edx, %ecx
	movl	%ecx, -80(%rbp)
	movl	-80(%rbp), %ecx
	cmpl	-48(%rbp), %ecx
	jge	.LBB9_5
# BB#4:                                 # %if.then.33
                                        #   in Loop: Header=BB9_2 Depth=1
	movl	-36(%rbp), %eax
	movl	%eax, -32(%rbp)
	movl	-80(%rbp), %eax
	movl	%eax, -48(%rbp)
.LBB9_5:                                # %if.end
                                        #   in Loop: Header=BB9_2 Depth=1
	jmp	.LBB9_6
.LBB9_6:                                # %for.inc
                                        #   in Loop: Header=BB9_2 Depth=1
	movl	-36(%rbp), %eax
	addl	$1, %eax
	movl	%eax, -36(%rbp)
	jmp	.LBB9_2
.LBB9_7:                                # %for.end
	movslq	-32(%rbp), %rax
	shlq	$4, %rax
	addq	-64(%rbp), %rax
	movw	8(%rax), %cx
	movq	-24(%rbp), %rax
	movw	%cx, 8(%rax)
	movslq	-32(%rbp), %rax
	shlq	$4, %rax
	addq	-64(%rbp), %rax
	movw	10(%rax), %cx
	movq	-24(%rbp), %rax
	movw	%cx, 10(%rax)
	movslq	-32(%rbp), %rax
	shlq	$4, %rax
	addq	-64(%rbp), %rax
	movw	12(%rax), %cx
	movq	-24(%rbp), %rax
	movw	%cx, 12(%rax)
	movq	-8(%rbp), %rdi
	movq	-16(%rbp), %rsi
	movq	-24(%rbp), %rdx
	callq	XAllocColor
	cmpl	$0, %eax
	setne	%r8b
	andb	$1, %r8b
	movb	%r8b, -25(%rbp)
	jmp	.LBB9_15
.LBB9_8:                                # %if.else
	movq	-8(%rbp), %rdi
	callq	x_display_info_for_display
	movq	%rax, -88(%rbp)
	movq	-88(%rbp), %rax
	cmpq	$0, 736(%rax)
	je	.LBB9_14
# BB#9:                                 # %land.lhs.true
	movb	$1, %al
	movq	-24(%rbp), %rcx
	movq	(%rcx), %rcx
	movq	-88(%rbp), %rdx
	shlq	$4, %rcx
	addq	736(%rdx), %rcx
	movq	%rcx, -96(%rbp)
	movq	-96(%rbp), %rcx
	movzwl	8(%rcx), %esi
	movq	-24(%rbp), %rcx
	movzwl	8(%rcx), %edi
	cmpl	%edi, %esi
	movb	%al, -97(%rbp)          # 1-byte Spill
	jne	.LBB9_12
# BB#10:                                # %lor.lhs.false
	movb	$1, %al
	movq	-96(%rbp), %rcx
	movzwl	12(%rcx), %edx
	movq	-24(%rbp), %rcx
	movzwl	12(%rcx), %esi
	cmpl	%esi, %edx
	movb	%al, -97(%rbp)          # 1-byte Spill
	jne	.LBB9_12
# BB#11:                                # %lor.rhs
	movq	-96(%rbp), %rax
	movzwl	10(%rax), %ecx
	movq	-24(%rbp), %rax
	movzwl	10(%rax), %edx
	cmpl	%edx, %ecx
	setne	%sil
	movb	%sil, -97(%rbp)         # 1-byte Spill
.LBB9_12:                               # %lor.end
	movb	-97(%rbp), %al          # 1-byte Reload
	testb	$1, %al
	jne	.LBB9_13
	jmp	.LBB9_14
.LBB9_13:                               # %if.then.72
	movq	-88(%rbp), %rax
	movq	736(%rax), %rax
	movq	%rax, %rdi
	callq	xfree
	movq	-88(%rbp), %rax
	movq	$0, 736(%rax)
	movq	-88(%rbp), %rax
	movl	$0, 744(%rax)
.LBB9_14:                               # %if.end.75
	jmp	.LBB9_15
.LBB9_15:                               # %if.end.76
	movb	-25(%rbp), %al
	andb	$1, %al
	movzbl	%al, %eax
	addq	$112, %rsp
	popq	%rbp
	retq
.Lfunc_end9:
	.size	x_alloc_nearest_color_1, .Lfunc_end9-x_alloc_nearest_color_1
	.cfi_endproc

	.globl	x_copy_color
	.align	16, 0x90
	.type	x_copy_color,@function
x_copy_color:                           # @x_copy_color
	.cfi_startproc
# BB#0:                                 # %entry
	pushq	%rbp
.Ltmp34:
	.cfi_def_cfa_offset 16
.Ltmp35:
	.cfi_offset %rbp, -16
	movq	%rsp, %rbp
.Ltmp36:
	.cfi_def_cfa_register %rbp
	subq	$48, %rsp
	movq	%rdi, -16(%rbp)
	movq	%rsi, -24(%rbp)
	movq	-16(%rbp), %rsi
	movq	384(%rsi), %rsi
	movq	424(%rsi), %rsi
	movq	72(%rsi), %rdi
	callq	x_mutable_colormap
	testb	$1, %al
	jne	.LBB10_2
# BB#1:                                 # %if.then
	movq	-24(%rbp), %rax
	movq	%rax, -8(%rbp)
	jmp	.LBB10_3
.LBB10_2:                               # %if.end
	movq	-24(%rbp), %rax
	movq	%rax, -40(%rbp)
	callq	block_input
	leaq	-40(%rbp), %rsi
	movq	-16(%rbp), %rdi
	callq	x_query_color
	leaq	-40(%rbp), %rdx
	movq	-16(%rbp), %rax
	movq	384(%rax), %rax
	movq	424(%rax), %rax
	movq	16(%rax), %rdi
	movq	-16(%rbp), %rax
	movq	384(%rax), %rax
	movq	424(%rax), %rax
	movq	80(%rax), %rsi
	callq	XAllocColor
	movl	%eax, -44(%rbp)         # 4-byte Spill
	callq	unblock_input
	movq	-40(%rbp), %rdx
	movq	%rdx, -8(%rbp)
.LBB10_3:                               # %return
	movq	-8(%rbp), %rax
	addq	$48, %rsp
	popq	%rbp
	retq
.Lfunc_end10:
	.size	x_copy_color, .Lfunc_end10-x_copy_color
	.cfi_endproc

	.globl	x_clear_area
	.align	16, 0x90
	.type	x_clear_area,@function
x_clear_area:                           # @x_clear_area
	.cfi_startproc
# BB#0:                                 # %entry
	pushq	%rbp
.Ltmp37:
	.cfi_def_cfa_offset 16
.Ltmp38:
	.cfi_offset %rbp, -16
	movq	%rsp, %rbp
.Ltmp39:
	.cfi_def_cfa_register %rbp
	subq	$48, %rsp
	xorl	%eax, %eax
	movq	%rdi, -8(%rbp)
	movl	%esi, -12(%rbp)
	movl	%edx, -16(%rbp)
	movl	%ecx, -20(%rbp)
	movl	%r8d, -24(%rbp)
	movq	-8(%rbp), %rdi
	movq	384(%rdi), %rdi
	movq	424(%rdi), %rdi
	movq	16(%rdi), %rdi
	movq	-8(%rbp), %r9
	movq	384(%r9), %r9
	movq	56(%r9), %rsi
	movl	-12(%rbp), %edx
	movl	-16(%rbp), %ecx
	movl	-20(%rbp), %r8d
	movl	-24(%rbp), %r9d
	movl	$0, (%rsp)
	movl	%eax, -28(%rbp)         # 4-byte Spill
	callq	x_clear_area1
	addq	$48, %rsp
	popq	%rbp
	retq
.Lfunc_end11:
	.size	x_clear_area, .Lfunc_end11-x_clear_area
	.cfi_endproc

	.align	16, 0x90
	.type	x_clear_area1,@function
x_clear_area1:                          # @x_clear_area1
	.cfi_startproc
# BB#0:                                 # %entry
	pushq	%rbp
.Ltmp40:
	.cfi_def_cfa_offset 16
.Ltmp41:
	.cfi_offset %rbp, -16
	movq	%rsp, %rbp
.Ltmp42:
	.cfi_def_cfa_register %rbp
	subq	$48, %rsp
	movl	16(%rbp), %eax
	movq	%rdi, -8(%rbp)
	movq	%rsi, -16(%rbp)
	movl	%edx, -20(%rbp)
	movl	%ecx, -24(%rbp)
	movl	%r8d, -28(%rbp)
	movl	%r9d, -32(%rbp)
	movl	%eax, -36(%rbp)
	movq	-8(%rbp), %rdi
	movq	-16(%rbp), %rsi
	movl	-20(%rbp), %edx
	movl	-24(%rbp), %ecx
	movl	-28(%rbp), %r8d
	movl	-32(%rbp), %r9d
	movl	-36(%rbp), %eax
	movl	%eax, (%rsp)
	callq	XClearArea
	movl	%eax, -40(%rbp)         # 4-byte Spill
	addq	$48, %rsp
	popq	%rbp
	retq
.Lfunc_end12:
	.size	x_clear_area1, .Lfunc_end12-x_clear_area1
	.cfi_endproc

	.globl	x_top_window_to_frame
	.align	16, 0x90
	.type	x_top_window_to_frame,@function
x_top_window_to_frame:                  # @x_top_window_to_frame
	.cfi_startproc
# BB#0:                                 # %entry
	pushq	%rbp
.Ltmp43:
	.cfi_def_cfa_offset 16
.Ltmp44:
	.cfi_offset %rbp, -16
	movq	%rsp, %rbp
.Ltmp45:
	.cfi_def_cfa_register %rbp
	subq	$80, %rsp
	movq	%rdi, -16(%rbp)
	movl	%esi, -20(%rbp)
	movslq	-20(%rbp), %rdi
	cmpq	$0, %rdi
	jne	.LBB13_2
# BB#1:                                 # %if.then
	movq	$0, -8(%rbp)
	jmp	.LBB13_19
.LBB13_2:                               # %if.end
	movq	Vframe_list, %rax
	movq	%rax, -32(%rbp)
.LBB13_3:                               # %for.cond
                                        # =>This Inner Loop Header: Depth=1
	xorl	%eax, %eax
	movb	%al, %cl
	movq	-32(%rbp), %rdx
	andq	$7, %rdx
	movl	%edx, %eax
	cmpl	$3, %eax
	movb	%cl, -65(%rbp)          # 1-byte Spill
	jne	.LBB13_5
# BB#4:                                 # %land.rhs
                                        #   in Loop: Header=BB13_3 Depth=1
	movb	$1, %al
	movq	-32(%rbp), %rcx
	subq	$3, %rcx
	movq	(%rcx), %rcx
	movq	%rcx, -40(%rbp)
	movb	%al, -65(%rbp)          # 1-byte Spill
.LBB13_5:                               # %land.end
                                        #   in Loop: Header=BB13_3 Depth=1
	movb	-65(%rbp), %al          # 1-byte Reload
	testb	$1, %al
	jne	.LBB13_6
	jmp	.LBB13_18
.LBB13_6:                               # %for.body
                                        #   in Loop: Header=BB13_3 Depth=1
	movq	-40(%rbp), %rax
	subq	$5, %rax
	movq	%rax, -48(%rbp)
	movq	-48(%rbp), %rax
	movq	208(%rax), %rax
	shrq	$23, %rax
	andq	$7, %rax
	movl	%eax, %ecx
	cmpl	$2, %ecx
	jne	.LBB13_8
# BB#7:                                 # %lor.lhs.false
                                        #   in Loop: Header=BB13_3 Depth=1
	movq	-48(%rbp), %rax
	movq	384(%rax), %rax
	movq	424(%rax), %rax
	cmpq	-16(%rbp), %rax
	je	.LBB13_9
.LBB13_8:                               # %if.then.11
                                        #   in Loop: Header=BB13_3 Depth=1
	jmp	.LBB13_17
.LBB13_9:                               # %if.end.12
                                        #   in Loop: Header=BB13_3 Depth=1
	movq	-48(%rbp), %rax
	movq	384(%rax), %rax
	movq	%rax, -56(%rbp)
	movq	-56(%rbp), %rax
	cmpq	$0, 80(%rax)
	je	.LBB13_13
# BB#10:                                # %if.then.15
                                        #   in Loop: Header=BB13_3 Depth=1
	movq	-16(%rbp), %rax
	movq	16(%rax), %rdi
	movslq	-20(%rbp), %rsi
	callq	xg_win_to_widget
	movq	%rax, -64(%rbp)
	movq	-64(%rbp), %rax
	movq	-56(%rbp), %rsi
	cmpq	80(%rsi), %rax
	jne	.LBB13_12
# BB#11:                                # %if.then.20
	movq	-48(%rbp), %rax
	movq	%rax, -8(%rbp)
	jmp	.LBB13_19
.LBB13_12:                              # %if.end.21
                                        #   in Loop: Header=BB13_3 Depth=1
	jmp	.LBB13_16
.LBB13_13:                              # %if.else
                                        #   in Loop: Header=BB13_3 Depth=1
	movq	-48(%rbp), %rax
	movq	384(%rax), %rax
	movq	56(%rax), %rax
	movslq	-20(%rbp), %rcx
	cmpq	%rcx, %rax
	jne	.LBB13_15
# BB#14:                                # %if.then.27
	movq	-48(%rbp), %rax
	movq	%rax, -8(%rbp)
	jmp	.LBB13_19
.LBB13_15:                              # %if.end.28
                                        #   in Loop: Header=BB13_3 Depth=1
	jmp	.LBB13_16
.LBB13_16:                              # %if.end.29
                                        #   in Loop: Header=BB13_3 Depth=1
	jmp	.LBB13_17
.LBB13_17:                              # %for.inc
                                        #   in Loop: Header=BB13_3 Depth=1
	movq	-32(%rbp), %rax
	subq	$3, %rax
	movq	8(%rax), %rax
	movq	%rax, -32(%rbp)
	jmp	.LBB13_3
.LBB13_18:                              # %for.end
	movq	$0, -8(%rbp)
.LBB13_19:                              # %return
	movq	-8(%rbp), %rax
	addq	$80, %rsp
	popq	%rbp
	retq
.Lfunc_end13:
	.size	x_top_window_to_frame, .Lfunc_end13-x_top_window_to_frame
	.cfi_endproc

	.globl	x_x_to_emacs_modifiers
	.align	16, 0x90
	.type	x_x_to_emacs_modifiers,@function
x_x_to_emacs_modifiers:                 # @x_x_to_emacs_modifiers
	.cfi_startproc
# BB#0:                                 # %entry
	pushq	%rbp
.Ltmp46:
	.cfi_def_cfa_offset 16
.Ltmp47:
	.cfi_offset %rbp, -16
	movq	%rsp, %rbp
.Ltmp48:
	.cfi_def_cfa_register %rbp
	subq	$112, %rsp
	movl	$678, %eax              # imm = 0x2A6
	movq	%rdi, -8(%rbp)
	movl	%esi, -12(%rbp)
	movl	$134217728, -16(%rbp)   # imm = 0x8000000
	movl	$4194304, -20(%rbp)     # imm = 0x400000
	movl	$16777216, -24(%rbp)    # imm = 0x1000000
	movl	$8388608, -28(%rbp)     # imm = 0x800000
	movq	globals+2736, %rdi
	movq	%rdi, -48(%rbp)         # 8-byte Spill
	movl	%eax, %edi
	callq	builtin_lisp_symbol
	movq	-48(%rbp), %rdi         # 8-byte Reload
	movq	%rax, %rsi
	callq	Fget
	movq	%rax, -40(%rbp)
	movq	-40(%rbp), %rax
	andq	$7, %rax
	movl	%eax, %ecx
	andl	$-5, %ecx
	cmpl	$2, %ecx
	jne	.LBB14_2
# BB#1:                                 # %if.then
	movq	-40(%rbp), %rax
	sarq	$2, %rax
	andq	$2147483647, %rax       # imm = 0x7FFFFFFF
	movl	%eax, %ecx
	movl	%ecx, -20(%rbp)
.LBB14_2:                               # %if.end
	movl	$678, %edi              # imm = 0x2A6
	movq	globals+2800, %rax
	movq	%rax, -56(%rbp)         # 8-byte Spill
	callq	builtin_lisp_symbol
	movq	-56(%rbp), %rdi         # 8-byte Reload
	movq	%rax, %rsi
	callq	Fget
	movq	%rax, -40(%rbp)
	movq	-40(%rbp), %rax
	andq	$7, %rax
	movl	%eax, %ecx
	andl	$-5, %ecx
	cmpl	$2, %ecx
	jne	.LBB14_4
# BB#3:                                 # %if.then.13
	movq	-40(%rbp), %rax
	sarq	$2, %rax
	andq	$2147483647, %rax       # imm = 0x7FFFFFFF
	movl	%eax, %ecx
	movl	%ecx, -16(%rbp)
.LBB14_4:                               # %if.end.17
	movl	$678, %edi              # imm = 0x2A6
	movq	globals+2768, %rax
	movq	%rax, -64(%rbp)         # 8-byte Spill
	callq	builtin_lisp_symbol
	movq	-64(%rbp), %rdi         # 8-byte Reload
	movq	%rax, %rsi
	callq	Fget
	movq	%rax, -40(%rbp)
	movq	-40(%rbp), %rax
	andq	$7, %rax
	movl	%eax, %ecx
	andl	$-5, %ecx
	cmpl	$2, %ecx
	jne	.LBB14_6
# BB#5:                                 # %if.then.25
	movq	-40(%rbp), %rax
	sarq	$2, %rax
	andq	$2147483647, %rax       # imm = 0x7FFFFFFF
	movl	%eax, %ecx
	movl	%ecx, -24(%rbp)
.LBB14_6:                               # %if.end.29
	movl	$678, %edi              # imm = 0x2A6
	movq	globals+2904, %rax
	movq	%rax, -72(%rbp)         # 8-byte Spill
	callq	builtin_lisp_symbol
	movq	-72(%rbp), %rdi         # 8-byte Reload
	movq	%rax, %rsi
	callq	Fget
	movq	%rax, -40(%rbp)
	movq	-40(%rbp), %rax
	andq	$7, %rax
	movl	%eax, %ecx
	andl	$-5, %ecx
	cmpl	$2, %ecx
	jne	.LBB14_8
# BB#7:                                 # %if.then.37
	movq	-40(%rbp), %rax
	sarq	$2, %rax
	andq	$2147483647, %rax       # imm = 0x7FFFFFFF
	movl	%eax, %ecx
	movl	%ecx, -28(%rbp)
.LBB14_8:                               # %if.end.41
	xorl	%eax, %eax
	movl	$67108864, %ecx         # imm = 0x4000000
	movl	$33554432, %edx         # imm = 0x2000000
	movl	-12(%rbp), %esi
	movq	-8(%rbp), %rdi
	movl	308(%rdi), %r8d
	orl	$1, %r8d
	andl	%r8d, %esi
	cmpl	$0, %esi
	movl	%eax, %esi
	cmovnel	%edx, %esi
	movl	-12(%rbp), %edx
	andl	$4, %edx
	cmpl	$0, %edx
	cmovnel	%ecx, %eax
	orl	%eax, %esi
	movl	-12(%rbp), %eax
	movq	-8(%rbp), %rdi
	andl	304(%rdi), %eax
	cmpl	$0, %eax
	movl	%esi, -76(%rbp)         # 4-byte Spill
	je	.LBB14_10
# BB#9:                                 # %cond.true
	movl	-16(%rbp), %eax
	movl	%eax, -80(%rbp)         # 4-byte Spill
	jmp	.LBB14_11
.LBB14_10:                              # %cond.false
	xorl	%eax, %eax
	movl	%eax, -80(%rbp)         # 4-byte Spill
	jmp	.LBB14_11
.LBB14_11:                              # %cond.end
	movl	-80(%rbp), %eax         # 4-byte Reload
	movl	-76(%rbp), %ecx         # 4-byte Reload
	orl	%eax, %ecx
	movl	-12(%rbp), %eax
	movq	-8(%rbp), %rdx
	andl	312(%rdx), %eax
	cmpl	$0, %eax
	movl	%ecx, -84(%rbp)         # 4-byte Spill
	je	.LBB14_13
# BB#12:                                # %cond.true.53
	movl	-20(%rbp), %eax
	movl	%eax, -88(%rbp)         # 4-byte Spill
	jmp	.LBB14_14
.LBB14_13:                              # %cond.false.54
	xorl	%eax, %eax
	movl	%eax, -88(%rbp)         # 4-byte Spill
	jmp	.LBB14_14
.LBB14_14:                              # %cond.end.55
	movl	-88(%rbp), %eax         # 4-byte Reload
	movl	-84(%rbp), %ecx         # 4-byte Reload
	orl	%eax, %ecx
	movl	-12(%rbp), %eax
	movq	-8(%rbp), %rdx
	andl	316(%rdx), %eax
	cmpl	$0, %eax
	movl	%ecx, -92(%rbp)         # 4-byte Spill
	je	.LBB14_16
# BB#15:                                # %cond.true.60
	movl	-28(%rbp), %eax
	movl	%eax, -96(%rbp)         # 4-byte Spill
	jmp	.LBB14_17
.LBB14_16:                              # %cond.false.61
	xorl	%eax, %eax
	movl	%eax, -96(%rbp)         # 4-byte Spill
	jmp	.LBB14_17
.LBB14_17:                              # %cond.end.62
	movl	-96(%rbp), %eax         # 4-byte Reload
	movl	-92(%rbp), %ecx         # 4-byte Reload
	orl	%eax, %ecx
	movl	-12(%rbp), %eax
	movq	-8(%rbp), %rdx
	andl	320(%rdx), %eax
	cmpl	$0, %eax
	movl	%ecx, -100(%rbp)        # 4-byte Spill
	je	.LBB14_19
# BB#18:                                # %cond.true.67
	movl	-24(%rbp), %eax
	movl	%eax, -104(%rbp)        # 4-byte Spill
	jmp	.LBB14_20
.LBB14_19:                              # %cond.false.68
	xorl	%eax, %eax
	movl	%eax, -104(%rbp)        # 4-byte Spill
	jmp	.LBB14_20
.LBB14_20:                              # %cond.end.69
	movl	-104(%rbp), %eax        # 4-byte Reload
	movl	-100(%rbp), %ecx        # 4-byte Reload
	orl	%eax, %ecx
	movl	%ecx, %eax
	addq	$112, %rsp
	popq	%rbp
	retq
.Lfunc_end14:
	.size	x_x_to_emacs_modifiers, .Lfunc_end14-x_x_to_emacs_modifiers
	.cfi_endproc

	.globl	x_get_keysym_name
	.align	16, 0x90
	.type	x_get_keysym_name,@function
x_get_keysym_name:                      # @x_get_keysym_name
	.cfi_startproc
# BB#0:                                 # %entry
	pushq	%rbp
.Ltmp49:
	.cfi_def_cfa_offset 16
.Ltmp50:
	.cfi_offset %rbp, -16
	movq	%rsp, %rbp
.Ltmp51:
	.cfi_def_cfa_register %rbp
	subq	$16, %rsp
	movl	%edi, -4(%rbp)
	callq	block_input
	movslq	-4(%rbp), %rdi
	callq	XKeysymToString
	movq	%rax, -16(%rbp)
	callq	unblock_input
	movq	-16(%rbp), %rax
	addq	$16, %rsp
	popq	%rbp
	retq
.Lfunc_end15:
	.size	x_get_keysym_name, .Lfunc_end15-x_get_keysym_name
	.cfi_endproc

	.globl	x_bitmap_icon
	.align	16, 0x90
	.type	x_bitmap_icon,@function
x_bitmap_icon:                          # @x_bitmap_icon
	.cfi_startproc
# BB#0:                                 # %entry
	pushq	%rbp
.Ltmp52:
	.cfi_def_cfa_offset 16
.Ltmp53:
	.cfi_offset %rbp, -16
	movq	%rsp, %rbp
.Ltmp54:
	.cfi_def_cfa_register %rbp
	subq	$48, %rsp
	movq	%rdi, -16(%rbp)
	movq	%rsi, -24(%rbp)
	movq	-16(%rbp), %rsi
	movq	384(%rsi), %rsi
	cmpq	$0, 56(%rsi)
	jne	.LBB16_2
# BB#1:                                 # %if.then
	movb	$1, -1(%rbp)
	jmp	.LBB16_19
.LBB16_2:                               # %if.end
	movq	-16(%rbp), %rax
	movq	384(%rax), %rax
	cmpq	$0, 224(%rax)
	jle	.LBB16_4
# BB#3:                                 # %if.then.4
	movq	-16(%rbp), %rdi
	movq	-16(%rbp), %rax
	movq	384(%rax), %rax
	movq	224(%rax), %rsi
	callq	x_destroy_bitmap
.LBB16_4:                               # %if.end.8
	movq	-16(%rbp), %rax
	movq	384(%rax), %rax
	movq	$0, 224(%rax)
	movq	-24(%rbp), %rdi
	callq	STRINGP
	testb	$1, %al
	jne	.LBB16_5
	jmp	.LBB16_8
.LBB16_5:                               # %if.then.12
	movq	-16(%rbp), %rdi
	movq	-24(%rbp), %rsi
	callq	xg_set_icon
	testb	$1, %al
	jne	.LBB16_6
	jmp	.LBB16_7
.LBB16_6:                               # %if.then.14
	movb	$0, -1(%rbp)
	jmp	.LBB16_19
.LBB16_7:                               # %if.end.15
	movq	-16(%rbp), %rdi
	movq	-24(%rbp), %rsi
	callq	x_create_bitmap_from_file
	movq	%rax, -32(%rbp)
	movq	-16(%rbp), %rdi
	movq	-32(%rbp), %rsi
	callq	x_create_bitmap_mask
	jmp	.LBB16_18
.LBB16_8:                               # %if.else
	movq	-16(%rbp), %rax
	movq	384(%rax), %rax
	movq	424(%rax), %rax
	cmpq	$0, 96(%rax)
	jge	.LBB16_17
# BB#9:                                 # %if.then.20
	movq	$-1, -40(%rbp)
	movq	-16(%rbp), %rdi
	movq	xg_default_icon_file, %rsi
	callq	xg_set_icon
	testb	$1, %al
	jne	.LBB16_11
# BB#10:                                # %lor.lhs.false
	movabsq	$gnu_xpm_bits, %rsi
	movq	-16(%rbp), %rdi
	callq	xg_set_icon_from_xpm_data
	testb	$1, %al
	jne	.LBB16_11
	jmp	.LBB16_12
.LBB16_11:                              # %if.then.23
	movq	-16(%rbp), %rax
	movq	384(%rax), %rax
	movq	424(%rax), %rax
	movq	$-2, 96(%rax)
	movb	$0, -1(%rbp)
	jmp	.LBB16_19
.LBB16_12:                              # %if.end.28
	cmpq	$-1, -40(%rbp)
	jne	.LBB16_16
# BB#13:                                # %if.then.30
	movabsq	$gnu_xbm_bits, %rsi
	movl	$50, %eax
	movq	-16(%rbp), %rdi
	movl	%eax, %edx
	movl	%eax, %ecx
	callq	x_create_bitmap_from_data
	movq	%rax, -40(%rbp)
	cmpq	$-1, -40(%rbp)
	jne	.LBB16_15
# BB#14:                                # %if.then.33
	movb	$1, -1(%rbp)
	jmp	.LBB16_19
.LBB16_15:                              # %if.end.34
	movq	-40(%rbp), %rax
	movq	-16(%rbp), %rcx
	movq	384(%rcx), %rcx
	movq	424(%rcx), %rcx
	movq	%rax, 96(%rcx)
	movq	-16(%rbp), %rdi
	movq	-16(%rbp), %rax
	movq	384(%rax), %rax
	movq	424(%rax), %rax
	movq	96(%rax), %rsi
	callq	x_create_bitmap_mask
.LBB16_16:                              # %if.end.43
	jmp	.LBB16_17
.LBB16_17:                              # %if.end.44
	movq	-16(%rbp), %rdi
	movq	-16(%rbp), %rax
	movq	384(%rax), %rax
	movq	424(%rax), %rax
	movq	96(%rax), %rsi
	callq	x_reference_bitmap
	movq	-16(%rbp), %rax
	movq	384(%rax), %rax
	movq	424(%rax), %rax
	movq	96(%rax), %rax
	movq	%rax, -32(%rbp)
.LBB16_18:                              # %if.end.53
	movq	-16(%rbp), %rdi
	movq	-32(%rbp), %rsi
	callq	x_wm_set_icon_pixmap
	movq	-32(%rbp), %rsi
	movq	-16(%rbp), %rdi
	movq	384(%rdi), %rdi
	movq	%rsi, 224(%rdi)
	movb	$0, -1(%rbp)
.LBB16_19:                              # %return
	movb	-1(%rbp), %al
	andb	$1, %al
	movzbl	%al, %eax
	addq	$48, %rsp
	popq	%rbp
	retq
.Lfunc_end16:
	.size	x_bitmap_icon, .Lfunc_end16-x_bitmap_icon
	.cfi_endproc

	.align	16, 0x90
	.type	x_wm_set_icon_pixmap,@function
x_wm_set_icon_pixmap:                   # @x_wm_set_icon_pixmap
	.cfi_startproc
# BB#0:                                 # %entry
	pushq	%rbp
.Ltmp55:
	.cfi_def_cfa_offset 16
.Ltmp56:
	.cfi_offset %rbp, -16
	movq	%rsp, %rbp
.Ltmp57:
	.cfi_def_cfa_register %rbp
	subq	$32, %rsp
	movq	%rdi, -8(%rbp)
	movq	%rsi, -16(%rbp)
	cmpq	$0, -16(%rbp)
	jle	.LBB17_2
# BB#1:                                 # %if.then
	movq	-8(%rbp), %rdi
	movq	-16(%rbp), %rsi
	callq	x_bitmap_pixmap
	movq	%rax, -24(%rbp)
	movq	-24(%rbp), %rax
	movq	-8(%rbp), %rsi
	movq	384(%rsi), %rsi
	movq	%rax, 384(%rsi)
	movq	-8(%rbp), %rdi
	movq	-16(%rbp), %rsi
	callq	x_bitmap_mask
	movslq	%eax, %rsi
	movq	%rsi, -32(%rbp)
	movq	-32(%rbp), %rsi
	movq	-8(%rbp), %rdi
	movq	384(%rdi), %rdi
	movq	%rsi, 408(%rdi)
	jmp	.LBB17_3
.LBB17_2:                               # %if.else
	jmp	.LBB17_4
.LBB17_3:                               # %if.end
	movq	-8(%rbp), %rdi
	movq	-24(%rbp), %rsi
	movq	-32(%rbp), %rdx
	callq	xg_set_frame_icon
.LBB17_4:                               # %return
	addq	$32, %rsp
	popq	%rbp
	retq
.Lfunc_end17:
	.size	x_wm_set_icon_pixmap, .Lfunc_end17-x_wm_set_icon_pixmap
	.cfi_endproc

	.globl	x_text_icon
	.align	16, 0x90
	.type	x_text_icon,@function
x_text_icon:                            # @x_text_icon
	.cfi_startproc
# BB#0:                                 # %entry
	pushq	%rbp
.Ltmp58:
	.cfi_def_cfa_offset 16
.Ltmp59:
	.cfi_offset %rbp, -16
	movq	%rsp, %rbp
.Ltmp60:
	.cfi_def_cfa_register %rbp
	subq	$80, %rsp
	movq	%rdi, -16(%rbp)
	movq	%rsi, -24(%rbp)
	movq	-16(%rbp), %rsi
	movq	384(%rsi), %rsi
	cmpq	$0, 56(%rsi)
	jne	.LBB18_2
# BB#1:                                 # %if.then
	movb	$1, -1(%rbp)
	jmp	.LBB18_12
.LBB18_2:                               # %if.end
	movq	-24(%rbp), %rax
	movq	%rax, -56(%rbp)
	movq	$31, -48(%rbp)
	movl	$8, -40(%rbp)
	movq	-24(%rbp), %rdi
	callq	strlen
	movq	%rax, -32(%rbp)
	movq	-16(%rbp), %rax
	movq	384(%rax), %rax
	movq	424(%rax), %rax
	movq	16(%rax), %rdi
	movq	-16(%rbp), %rax
	movq	384(%rax), %rax
	cmpq	$0, 80(%rax)
	movq	%rdi, -64(%rbp)         # 8-byte Spill
	je	.LBB18_8
# BB#3:                                 # %cond.true
	movq	-16(%rbp), %rax
	movq	384(%rax), %rax
	cmpq	$0, 80(%rax)
	je	.LBB18_6
# BB#4:                                 # %land.lhs.true
	movq	-16(%rbp), %rax
	movq	384(%rax), %rax
	movq	80(%rax), %rdi
	callq	gtk_widget_get_window
	cmpq	$0, %rax
	je	.LBB18_6
# BB#5:                                 # %cond.true.14
	movq	-16(%rbp), %rax
	movq	384(%rax), %rax
	movq	80(%rax), %rdi
	callq	gtk_widget_get_window
	movq	%rax, %rdi
	callq	gdk_x11_drawable_get_xid
	movq	%rax, -72(%rbp)         # 8-byte Spill
	jmp	.LBB18_7
.LBB18_6:                               # %cond.false
	xorl	%eax, %eax
	movl	%eax, %ecx
	movq	%rcx, -72(%rbp)         # 8-byte Spill
	jmp	.LBB18_7
.LBB18_7:                               # %cond.end
	movq	-72(%rbp), %rax         # 8-byte Reload
	movq	%rax, -80(%rbp)         # 8-byte Spill
	jmp	.LBB18_9
.LBB18_8:                               # %cond.false.20
	movq	-16(%rbp), %rax
	movq	384(%rax), %rax
	movq	56(%rax), %rax
	movq	%rax, -80(%rbp)         # 8-byte Spill
.LBB18_9:                               # %cond.end.24
	movq	-80(%rbp), %rax         # 8-byte Reload
	leaq	-56(%rbp), %rdx
	movq	-64(%rbp), %rdi         # 8-byte Reload
	movq	%rax, %rsi
	callq	XSetWMIconName
	movq	-16(%rbp), %rax
	movq	384(%rax), %rax
	cmpq	$0, 224(%rax)
	jle	.LBB18_11
# BB#10:                                # %if.then.29
	movq	-16(%rbp), %rdi
	movq	-16(%rbp), %rax
	movq	384(%rax), %rax
	movq	224(%rax), %rsi
	callq	x_destroy_bitmap
.LBB18_11:                              # %if.end.33
	xorl	%eax, %eax
	movl	%eax, %esi
	movq	-16(%rbp), %rcx
	movq	384(%rcx), %rcx
	movq	$0, 224(%rcx)
	movq	-16(%rbp), %rdi
	callq	x_wm_set_icon_pixmap
	movb	$0, -1(%rbp)
.LBB18_12:                              # %return
	movb	-1(%rbp), %al
	andb	$1, %al
	movzbl	%al, %eax
	addq	$80, %rsp
	popq	%rbp
	retq
.Lfunc_end18:
	.size	x_text_icon, .Lfunc_end18-x_text_icon
	.cfi_endproc

	.globl	x_catch_errors_with_handler
	.align	16, 0x90
	.type	x_catch_errors_with_handler,@function
x_catch_errors_with_handler:            # @x_catch_errors_with_handler
	.cfi_startproc
# BB#0:                                 # %entry
	pushq	%rbp
.Ltmp61:
	.cfi_def_cfa_offset 16
.Ltmp62:
	.cfi_offset %rbp, -16
	movq	%rsp, %rbp
.Ltmp63:
	.cfi_def_cfa_register %rbp
	subq	$48, %rsp
	movl	$232, %eax
	movl	%eax, %ecx
	movq	%rdi, -8(%rbp)
	movq	%rsi, -16(%rbp)
	movq	%rdx, -24(%rbp)
	movq	%rcx, %rdi
	callq	xmalloc
	movq	%rax, -32(%rbp)
# BB#1:                                 # %do.body
	callq	gdk_window_process_all_updates
	xorl	%esi, %esi
	movq	-8(%rbp), %rdi
	callq	XSync
	movl	%eax, -36(%rbp)         # 4-byte Spill
# BB#2:                                 # %do.end
	movq	-8(%rbp), %rax
	movq	-32(%rbp), %rcx
	movq	%rax, 200(%rcx)
	movq	-32(%rbp), %rax
	movb	$0, (%rax)
	movq	-16(%rbp), %rax
	movq	-32(%rbp), %rcx
	movq	%rax, 208(%rcx)
	movq	-24(%rbp), %rax
	movq	-32(%rbp), %rcx
	movq	%rax, 216(%rcx)
	movq	x_error_message, %rax
	movq	-32(%rbp), %rcx
	movq	%rax, 224(%rcx)
	movq	-32(%rbp), %rax
	movq	%rax, x_error_message
	addq	$48, %rsp
	popq	%rbp
	retq
.Lfunc_end19:
	.size	x_catch_errors_with_handler, .Lfunc_end19-x_catch_errors_with_handler
	.cfi_endproc

	.globl	x_uncatch_errors_after_check
	.align	16, 0x90
	.type	x_uncatch_errors_after_check,@function
x_uncatch_errors_after_check:           # @x_uncatch_errors_after_check
	.cfi_startproc
# BB#0:                                 # %entry
	pushq	%rbp
.Ltmp64:
	.cfi_def_cfa_offset 16
.Ltmp65:
	.cfi_offset %rbp, -16
	movq	%rsp, %rbp
.Ltmp66:
	.cfi_def_cfa_register %rbp
	subq	$16, %rsp
	callq	block_input
	movq	x_error_message, %rax
	movq	%rax, -8(%rbp)
	movq	x_error_message, %rax
	movq	224(%rax), %rax
	movq	%rax, x_error_message
	movq	-8(%rbp), %rax
	movq	%rax, %rdi
	callq	xfree
	callq	unblock_input
	addq	$16, %rsp
	popq	%rbp
	retq
.Lfunc_end20:
	.size	x_uncatch_errors_after_check, .Lfunc_end20-x_uncatch_errors_after_check
	.cfi_endproc

	.globl	x_check_errors
	.align	16, 0x90
	.type	x_check_errors,@function
x_check_errors:                         # @x_check_errors
	.cfi_startproc
# BB#0:                                 # %entry
	pushq	%rbp
.Ltmp67:
	.cfi_def_cfa_offset 16
.Ltmp68:
	.cfi_offset %rbp, -16
	movq	%rsp, %rbp
.Ltmp69:
	.cfi_def_cfa_register %rbp
	subq	$240, %rsp
	movq	%rdi, -8(%rbp)
	movq	%rsi, -16(%rbp)
# BB#1:                                 # %do.body
	callq	gdk_window_process_all_updates
	xorl	%esi, %esi
	movq	-8(%rbp), %rdi
	callq	XSync
	movl	%eax, -228(%rbp)        # 4-byte Spill
# BB#2:                                 # %do.end
	movq	x_error_message, %rax
	cmpb	$0, (%rax)
	je	.LBB21_4
# BB#3:                                 # %if.then
	movl	$200, %eax
	movl	%eax, %edx
	leaq	-224(%rbp), %rcx
	movq	x_error_message, %rsi
	movq	%rcx, %rdi
	callq	memcpy
	callq	x_uncatch_errors
	leaq	-224(%rbp), %rsi
	movq	-16(%rbp), %rdi
	movb	$0, %al
	callq	error
.LBB21_4:                               # %if.end
	addq	$240, %rsp
	popq	%rbp
	retq
.Lfunc_end21:
	.size	x_check_errors, .Lfunc_end21-x_check_errors
	.cfi_endproc

	.globl	x_had_errors_p
	.align	16, 0x90
	.type	x_had_errors_p,@function
x_had_errors_p:                         # @x_had_errors_p
	.cfi_startproc
# BB#0:                                 # %entry
	pushq	%rbp
.Ltmp70:
	.cfi_def_cfa_offset 16
.Ltmp71:
	.cfi_offset %rbp, -16
	movq	%rsp, %rbp
.Ltmp72:
	.cfi_def_cfa_register %rbp
	subq	$16, %rsp
	movq	%rdi, -8(%rbp)
# BB#1:                                 # %do.body
	callq	gdk_window_process_all_updates
	xorl	%esi, %esi
	movq	-8(%rbp), %rdi
	callq	XSync
	movl	%eax, -12(%rbp)         # 4-byte Spill
# BB#2:                                 # %do.end
	movq	x_error_message, %rax
	movsbl	(%rax), %ecx
	cmpl	$0, %ecx
	setne	%dl
	andb	$1, %dl
	movzbl	%dl, %eax
	addq	$16, %rsp
	popq	%rbp
	retq
.Lfunc_end22:
	.size	x_had_errors_p, .Lfunc_end22-x_had_errors_p
	.cfi_endproc

	.globl	x_clear_errors
	.align	16, 0x90
	.type	x_clear_errors,@function
x_clear_errors:                         # @x_clear_errors
	.cfi_startproc
# BB#0:                                 # %entry
	pushq	%rbp
.Ltmp73:
	.cfi_def_cfa_offset 16
.Ltmp74:
	.cfi_offset %rbp, -16
	movq	%rsp, %rbp
.Ltmp75:
	.cfi_def_cfa_register %rbp
	movq	%rdi, -8(%rbp)
	movq	x_error_message, %rdi
	movb	$0, (%rdi)
	popq	%rbp
	retq
.Lfunc_end23:
	.size	x_clear_errors, .Lfunc_end23-x_clear_errors
	.cfi_endproc

	.globl	x_new_font
	.align	16, 0x90
	.type	x_new_font,@function
x_new_font:                             # @x_new_font
	.cfi_startproc
# BB#0:                                 # %entry
	pushq	%rbp
.Ltmp76:
	.cfi_def_cfa_offset 16
.Ltmp77:
	.cfi_offset %rbp, -16
	movq	%rsp, %rbp
.Ltmp78:
	.cfi_def_cfa_register %rbp
	subq	$160, %rsp
	movq	%rdi, -16(%rbp)
	movq	%rsi, -24(%rbp)
	movl	%edx, -28(%rbp)
	movq	-24(%rbp), %rdi
	callq	XFONT_OBJECT
	movq	%rax, -40(%rbp)
	movq	-16(%rbp), %rax
	movl	360(%rax), %edx
	movl	%edx, -56(%rbp)
	cmpl	$0, -28(%rbp)
	jge	.LBB24_2
# BB#1:                                 # %if.then
	movq	-24(%rbp), %rdi
	callq	fontset_from_font
	movl	%eax, -28(%rbp)
.LBB24_2:                               # %if.end
	movl	-28(%rbp), %eax
	movq	-16(%rbp), %rcx
	movq	384(%rcx), %rcx
	movl	%eax, 244(%rcx)
	movq	-16(%rbp), %rcx
	movq	384(%rcx), %rcx
	movq	232(%rcx), %rcx
	cmpq	-40(%rbp), %rcx
	jne	.LBB24_4
# BB#3:                                 # %if.then.7
	movq	-24(%rbp), %rax
	movq	%rax, -8(%rbp)
	jmp	.LBB24_24
.LBB24_4:                               # %if.end.8
	leaq	-48(%rbp), %rsi
	leaq	-52(%rbp), %rdx
	movq	-40(%rbp), %rax
	movq	-16(%rbp), %rcx
	movq	384(%rcx), %rcx
	movq	%rax, 232(%rcx)
	movq	-40(%rbp), %rax
	movl	188(%rax), %edi
	movq	-16(%rbp), %rax
	movq	384(%rax), %rax
	movl	%edi, 240(%rax)
	movq	-40(%rbp), %rax
	movl	164(%rax), %edi
	movq	-16(%rbp), %rax
	movl	%edi, 364(%rax)
	movq	-40(%rbp), %rdi
	callq	get_font_ascent_descent
	movl	-48(%rbp), %r8d
	addl	-52(%rbp), %r8d
	movq	-16(%rbp), %rax
	movl	%r8d, 368(%rax)
	movq	-16(%rbp), %rax
	movl	356(%rax), %r8d
	movq	-16(%rbp), %rax
	imull	368(%rax), %r8d
	movq	-16(%rbp), %rax
	movl	%r8d, 360(%rax)
	movq	-16(%rbp), %rax
	movl	364(%rax), %r8d
	movl	%r8d, -44(%rbp)
	movq	-16(%rbp), %rax
	cmpl	$0, 420(%rax)
	jle	.LBB24_6
# BB#5:                                 # %if.then.19
	movq	-16(%rbp), %rax
	movl	420(%rax), %ecx
	addl	-44(%rbp), %ecx
	subl	$1, %ecx
	movl	%ecx, %eax
	cltd
	idivl	-44(%rbp)
	movq	-16(%rbp), %rsi
	movl	%eax, 424(%rsi)
	jmp	.LBB24_7
.LBB24_6:                               # %if.else
	movl	-44(%rbp), %eax
	addl	$14, %eax
	subl	$1, %eax
	cltd
	idivl	-44(%rbp)
	movq	-16(%rbp), %rcx
	movl	%eax, 424(%rcx)
.LBB24_7:                               # %if.end.26
	movq	-16(%rbp), %rax
	movq	384(%rax), %rax
	cmpq	$0, 56(%rax)
	je	.LBB24_20
# BB#8:                                 # %if.then.30
	xorl	%edi, %edi
	movq	tip_frame, %rax
	movq	%rax, -72(%rbp)         # 8-byte Spill
	callq	builtin_lisp_symbol
	movq	-72(%rbp), %rcx         # 8-byte Reload
	cmpq	%rax, %rcx
	je	.LBB24_10
# BB#9:                                 # %lor.lhs.false
	movq	tip_frame, %rax
	subq	$5, %rax
	cmpq	-16(%rbp), %rax
	je	.LBB24_19
.LBB24_10:                              # %if.then.35
	movl	$439, %edi              # imm = 0x1B7
	movq	-16(%rbp), %rax
	movq	-16(%rbp), %rcx
	movl	272(%rcx), %edx
	movq	-16(%rbp), %rcx
	imull	364(%rcx), %edx
	movq	-16(%rbp), %rcx
	movl	276(%rcx), %esi
	movq	-16(%rbp), %rcx
	imull	368(%rcx), %esi
	movl	%esi, -76(%rbp)         # 4-byte Spill
	movq	%rax, -88(%rbp)         # 8-byte Spill
	movl	%edx, -92(%rbp)         # 4-byte Spill
	callq	builtin_lisp_symbol
	movl	$3, %ecx
	xorl	%r8d, %r8d
	movq	-88(%rbp), %rdi         # 8-byte Reload
	movl	-92(%rbp), %esi         # 4-byte Reload
	movl	-76(%rbp), %edx         # 4-byte Reload
	movq	%rax, %r9
	callq	adjust_frame_size
	movq	-16(%rbp), %rax
	movl	360(%rax), %ecx
	cmpl	-56(%rbp), %ecx
	je	.LBB24_18
# BB#11:                                # %land.lhs.true
	movq	-16(%rbp), %rax
	movq	208(%rax), %rax
	shrq	$35, %rax
	andq	$1, %rax
	testq	$1, %rax
	jne	.LBB24_18
# BB#12:                                # %land.lhs.true.43
	movl	$901, %edi              # imm = 0x385
	movq	globals+2984, %rax
	movq	%rax, -104(%rbp)        # 8-byte Spill
	callq	builtin_lisp_symbol
	movq	-104(%rbp), %rcx        # 8-byte Reload
	cmpq	%rax, %rcx
	je	.LBB24_15
# BB#13:                                # %lor.lhs.false.46
	movq	globals+2984, %rax
	andq	$7, %rax
	movl	%eax, %ecx
	cmpl	$3, %ecx
	jne	.LBB24_18
# BB#14:                                # %land.lhs.true.49
	movl	$439, %edi              # imm = 0x1B7
	callq	builtin_lisp_symbol
	movq	globals+2984, %rsi
	movq	%rax, %rdi
	callq	Fmemq
	xorl	%edi, %edi
	movq	%rax, -112(%rbp)        # 8-byte Spill
	callq	builtin_lisp_symbol
	movq	-112(%rbp), %rsi        # 8-byte Reload
	cmpq	%rax, %rsi
	jne	.LBB24_18
.LBB24_15:                              # %land.lhs.true.55
	movl	$472, %edi              # imm = 0x1D8
	movq	-16(%rbp), %rax
	movq	%rax, -120(%rbp)        # 8-byte Spill
	callq	builtin_lisp_symbol
	movq	-120(%rbp), %rdi        # 8-byte Reload
	movq	%rax, %rsi
	callq	get_frame_param
	xorl	%edi, %edi
	movq	%rax, -64(%rbp)
	movq	%rax, -128(%rbp)        # 8-byte Spill
	callq	builtin_lisp_symbol
	movq	-128(%rbp), %rsi        # 8-byte Reload
	cmpq	%rax, %rsi
	je	.LBB24_17
# BB#16:                                # %lor.lhs.false.61
	movl	$473, %edi              # imm = 0x1D9
	movq	-64(%rbp), %rax
	movq	%rax, -136(%rbp)        # 8-byte Spill
	callq	builtin_lisp_symbol
	movq	-136(%rbp), %rcx        # 8-byte Reload
	cmpq	%rax, %rcx
	jne	.LBB24_18
.LBB24_17:                              # %if.then.65
	movl	$439, %edi              # imm = 0x1B7
	movq	-16(%rbp), %rax
	movq	-16(%rbp), %rcx
	movl	292(%rcx), %edx
	movq	-16(%rbp), %rcx
	addl	360(%rcx), %edx
	subl	-56(%rbp), %edx
	movl	%edx, -140(%rbp)        # 4-byte Spill
	movq	%rax, -152(%rbp)        # 8-byte Spill
	callq	builtin_lisp_symbol
	movl	$4294967295, %esi       # imm = 0xFFFFFFFF
	movl	$1, %ecx
	xorl	%r8d, %r8d
	movq	-152(%rbp), %rdi        # 8-byte Reload
	movl	-140(%rbp), %edx        # 4-byte Reload
	movq	%rax, %r9
	callq	adjust_frame_size
.LBB24_18:                              # %if.end.70
	jmp	.LBB24_19
.LBB24_19:                              # %if.end.71
	jmp	.LBB24_20
.LBB24_20:                              # %if.end.72
	movq	-16(%rbp), %rax
	movq	384(%rax), %rax
	cmpq	$0, 448(%rax)
	je	.LBB24_23
# BB#21:                                # %land.lhs.true.75
	movq	-16(%rbp), %rax
	movq	384(%rax), %rax
	movq	456(%rax), %rax
	andq	$260, %rax              # imm = 0x104
	cmpq	$0, %rax
	je	.LBB24_23
# BB#22:                                # %if.then.80
	callq	block_input
	movq	-16(%rbp), %rdi
	movl	-28(%rbp), %eax
	movq	%rdi, -160(%rbp)        # 8-byte Spill
	movl	%eax, %edi
	callq	fontset_ascii
	movq	%rax, %rdi
	callq	SSDATA
	movq	-160(%rbp), %rdi        # 8-byte Reload
	movq	%rax, %rsi
	callq	xic_set_xfontset
	callq	unblock_input
.LBB24_23:                              # %if.end.83
	movq	-24(%rbp), %rax
	movq	%rax, -8(%rbp)
.LBB24_24:                              # %return
	movq	-8(%rbp), %rax
	addq	$160, %rsp
	popq	%rbp
	retq
.Lfunc_end24:
	.size	x_new_font, .Lfunc_end24-x_new_font
	.cfi_endproc

	.globl	x_set_offset
	.align	16, 0x90
	.type	x_set_offset,@function
x_set_offset:                           # @x_set_offset
	.cfi_startproc
# BB#0:                                 # %entry
	pushq	%rbp
.Ltmp79:
	.cfi_def_cfa_offset 16
.Ltmp80:
	.cfi_offset %rbp, -16
	movq	%rsp, %rbp
.Ltmp81:
	.cfi_def_cfa_register %rbp
	subq	$64, %rsp
	movq	%rdi, -8(%rbp)
	movl	%esi, -12(%rbp)
	movl	%edx, -16(%rbp)
	movl	%ecx, -20(%rbp)
	cmpl	$0, -20(%rbp)
	jle	.LBB25_6
# BB#1:                                 # %if.then
	movl	-16(%rbp), %eax
	movq	-8(%rbp), %rcx
	movl	%eax, 308(%rcx)
	movl	-12(%rbp), %eax
	movq	-8(%rbp), %rcx
	movl	%eax, 304(%rcx)
	movq	-8(%rbp), %rcx
	movl	324(%rcx), %eax
	andl	$-49, %eax
	movl	%eax, 324(%rcx)
	cmpl	$0, -12(%rbp)
	jge	.LBB25_3
# BB#2:                                 # %if.then.2
	movq	-8(%rbp), %rax
	movl	324(%rax), %ecx
	orl	$16, %ecx
	movl	%ecx, 324(%rax)
.LBB25_3:                               # %if.end
	cmpl	$0, -16(%rbp)
	jge	.LBB25_5
# BB#4:                                 # %if.then.5
	movq	-8(%rbp), %rax
	movl	324(%rax), %ecx
	orl	$32, %ecx
	movl	%ecx, 324(%rax)
.LBB25_5:                               # %if.end.8
	movq	-8(%rbp), %rax
	movl	$1, 320(%rax)
.LBB25_6:                               # %if.end.9
	movq	-8(%rbp), %rdi
	callq	x_calc_absolute_position
	callq	block_input
	xorl	%eax, %eax
	movl	%eax, %esi
	xorl	%edx, %edx
	movq	-8(%rbp), %rdi
	callq	x_wm_set_size_hint
	movq	-8(%rbp), %rsi
	movl	304(%rsi), %eax
	movl	%eax, -28(%rbp)
	movq	-8(%rbp), %rsi
	movl	308(%rsi), %eax
	movl	%eax, -24(%rbp)
	cmpl	$0, -20(%rbp)
	je	.LBB25_9
# BB#7:                                 # %land.lhs.true
	movq	-8(%rbp), %rax
	movq	384(%rax), %rax
	movq	424(%rax), %rax
	cmpl	$1, 772(%rax)
	jne	.LBB25_9
# BB#8:                                 # %if.then.14
	movq	-8(%rbp), %rax
	movq	384(%rax), %rax
	movl	520(%rax), %ecx
	addl	-28(%rbp), %ecx
	movl	%ecx, -28(%rbp)
	movq	-8(%rbp), %rax
	movq	384(%rax), %rax
	movl	516(%rax), %ecx
	addl	-24(%rbp), %ecx
	movl	%ecx, -24(%rbp)
.LBB25_9:                               # %if.end.20
	movq	-8(%rbp), %rax
	movq	384(%rax), %rax
	movq	424(%rax), %rax
	movq	16(%rax), %rdi
	movq	-8(%rbp), %rax
	movq	384(%rax), %rax
	cmpq	$0, 80(%rax)
	movq	%rdi, -40(%rbp)         # 8-byte Spill
	je	.LBB25_15
# BB#10:                                # %cond.true
	movq	-8(%rbp), %rax
	movq	384(%rax), %rax
	cmpq	$0, 80(%rax)
	je	.LBB25_13
# BB#11:                                # %land.lhs.true.30
	movq	-8(%rbp), %rax
	movq	384(%rax), %rax
	movq	80(%rax), %rdi
	callq	gtk_widget_get_window
	cmpq	$0, %rax
	je	.LBB25_13
# BB#12:                                # %cond.true.35
	movq	-8(%rbp), %rax
	movq	384(%rax), %rax
	movq	80(%rax), %rdi
	callq	gtk_widget_get_window
	movq	%rax, %rdi
	callq	gdk_x11_drawable_get_xid
	movq	%rax, -48(%rbp)         # 8-byte Spill
	jmp	.LBB25_14
.LBB25_13:                              # %cond.false
	xorl	%eax, %eax
	movl	%eax, %ecx
	movq	%rcx, -48(%rbp)         # 8-byte Spill
	jmp	.LBB25_14
.LBB25_14:                              # %cond.end
	movq	-48(%rbp), %rax         # 8-byte Reload
	movq	%rax, -56(%rbp)         # 8-byte Spill
	jmp	.LBB25_16
.LBB25_15:                              # %cond.false.41
	movq	-8(%rbp), %rax
	movq	384(%rax), %rax
	movq	56(%rax), %rax
	movq	%rax, -56(%rbp)         # 8-byte Spill
.LBB25_16:                              # %cond.end.44
	movq	-56(%rbp), %rax         # 8-byte Reload
	movl	-28(%rbp), %edx
	movl	-24(%rbp), %ecx
	movq	-40(%rbp), %rdi         # 8-byte Reload
	movq	%rax, %rsi
	callq	XMoveWindow
	movq	-8(%rbp), %rdi
	movq	-8(%rbp), %rsi
	movl	304(%rsi), %esi
	movq	-8(%rbp), %r8
	movl	308(%r8), %edx
	movq	-8(%rbp), %r8
	movq	384(%r8), %r8
	movq	424(%r8), %r8
	cmpl	$0, 772(%r8)
	sete	%r9b
	movzbl	%r9b, %ecx
	andl	$1, %ecx
	movl	%eax, -60(%rbp)         # 4-byte Spill
	callq	x_sync_with_move
	cmpl	$0, -20(%rbp)
	je	.LBB25_22
# BB#17:                                # %land.lhs.true.55
	movq	-8(%rbp), %rax
	movq	384(%rax), %rax
	movq	424(%rax), %rax
	cmpl	$0, 772(%rax)
	je	.LBB25_21
# BB#18:                                # %lor.lhs.false
	movq	-8(%rbp), %rax
	movq	384(%rax), %rax
	movq	424(%rax), %rax
	cmpl	$1, 772(%rax)
	jne	.LBB25_22
# BB#19:                                # %land.lhs.true.66
	movq	-8(%rbp), %rax
	movq	384(%rax), %rax
	cmpl	$0, 520(%rax)
	jne	.LBB25_22
# BB#20:                                # %land.lhs.true.71
	movq	-8(%rbp), %rax
	movq	384(%rax), %rax
	cmpl	$0, 516(%rax)
	jne	.LBB25_22
.LBB25_21:                              # %if.then.76
	movq	-8(%rbp), %rdi
	movl	-28(%rbp), %esi
	movl	-24(%rbp), %edx
	callq	x_check_expected_move
.LBB25_22:                              # %if.end.77
	callq	unblock_input
	addq	$64, %rsp
	popq	%rbp
	retq
.Lfunc_end25:
	.size	x_set_offset, .Lfunc_end25-x_set_offset
	.cfi_endproc

	.align	16, 0x90
	.type	x_calc_absolute_position,@function
x_calc_absolute_position:               # @x_calc_absolute_position
	.cfi_startproc
# BB#0:                                 # %entry
	pushq	%rbp
.Ltmp82:
	.cfi_def_cfa_offset 16
.Ltmp83:
	.cfi_offset %rbp, -16
	movq	%rsp, %rbp
.Ltmp84:
	.cfi_def_cfa_register %rbp
	subq	$16, %rsp
	movq	%rdi, -8(%rbp)
	movq	-8(%rbp), %rdi
	movl	324(%rdi), %eax
	movl	%eax, -12(%rbp)
	movl	-12(%rbp), %eax
	andl	$16, %eax
	cmpl	$0, %eax
	jne	.LBB26_3
# BB#1:                                 # %lor.lhs.false
	movl	-12(%rbp), %eax
	andl	$32, %eax
	cmpl	$0, %eax
	jne	.LBB26_3
# BB#2:                                 # %if.then
	jmp	.LBB26_8
.LBB26_3:                               # %if.end
	movl	-12(%rbp), %eax
	andl	$16, %eax
	cmpl	$0, %eax
	je	.LBB26_5
# BB#4:                                 # %if.then.5
	movq	-8(%rbp), %rax
	movq	384(%rax), %rax
	movq	424(%rax), %rdi
	callq	x_display_pixel_width
	movq	-8(%rbp), %rdi
	subl	312(%rdi), %eax
	movq	-8(%rbp), %rdi
	addl	304(%rdi), %eax
	movq	-8(%rbp), %rdi
	movl	%eax, 304(%rdi)
.LBB26_5:                               # %if.end.7
	movq	-8(%rbp), %rax
	movl	316(%rax), %ecx
	movl	%ecx, -16(%rbp)
	movl	-12(%rbp), %ecx
	andl	$32, %ecx
	cmpl	$0, %ecx
	je	.LBB26_7
# BB#6:                                 # %if.then.10
	movq	-8(%rbp), %rax
	movq	384(%rax), %rax
	movq	424(%rax), %rdi
	callq	x_display_pixel_height
	subl	-16(%rbp), %eax
	movq	-8(%rbp), %rdi
	addl	308(%rdi), %eax
	movq	-8(%rbp), %rdi
	movl	%eax, 308(%rdi)
.LBB26_7:                               # %if.end.18
	movq	-8(%rbp), %rax
	movl	324(%rax), %ecx
	andl	$-49, %ecx
	movl	%ecx, 324(%rax)
.LBB26_8:                               # %return
	addq	$16, %rsp
	popq	%rbp
	retq
.Lfunc_end26:
	.size	x_calc_absolute_position, .Lfunc_end26-x_calc_absolute_position
	.cfi_endproc

	.align	16, 0x90
	.type	x_sync_with_move,@function
x_sync_with_move:                       # @x_sync_with_move
	.cfi_startproc
# BB#0:                                 # %entry
	pushq	%rbp
.Ltmp85:
	.cfi_def_cfa_offset 16
.Ltmp86:
	.cfi_offset %rbp, -16
	movq	%rsp, %rbp
.Ltmp87:
	.cfi_def_cfa_register %rbp
	subq	$80, %rsp
	movb	%cl, %al
	movq	%rdi, -8(%rbp)
	movl	%esi, -12(%rbp)
	movl	%edx, -16(%rbp)
	andb	$1, %al
	movb	%al, -17(%rbp)
	movl	$0, -24(%rbp)
.LBB27_1:                               # %while.cond
                                        # =>This Inner Loop Header: Depth=1
	movl	-24(%rbp), %eax
	movl	%eax, %ecx
	addl	$1, %ecx
	movl	%ecx, -24(%rbp)
	cmpl	$50, %eax
	jge	.LBB27_20
# BB#2:                                 # %while.body
                                        #   in Loop: Header=BB27_1 Depth=1
	movl	$0, -28(%rbp)
	movl	$0, -32(%rbp)
# BB#3:                                 # %do.body
                                        #   in Loop: Header=BB27_1 Depth=1
	callq	gdk_window_process_all_updates
	xorl	%esi, %esi
	movq	-8(%rbp), %rax
	movq	384(%rax), %rax
	movq	424(%rax), %rax
	movq	16(%rax), %rdi
	callq	XSync
	movl	%eax, -36(%rbp)         # 4-byte Spill
# BB#4:                                 # %do.end
                                        #   in Loop: Header=BB27_1 Depth=1
	leaq	-28(%rbp), %rsi
	leaq	-32(%rbp), %rdx
	movq	-8(%rbp), %rdi
	callq	x_real_positions
	testb	$1, -17(%rbp)
	je	.LBB27_15
# BB#5:                                 # %if.then
                                        #   in Loop: Header=BB27_1 Depth=1
	movl	-28(%rbp), %eax
	subl	-12(%rbp), %eax
	cmpl	$0, %eax
	jge	.LBB27_7
# BB#6:                                 # %cond.true
                                        #   in Loop: Header=BB27_1 Depth=1
	xorl	%eax, %eax
	movl	-28(%rbp), %ecx
	subl	-12(%rbp), %ecx
	subl	%ecx, %eax
	movl	%eax, -40(%rbp)         # 4-byte Spill
	jmp	.LBB27_8
.LBB27_7:                               # %cond.false
                                        #   in Loop: Header=BB27_1 Depth=1
	movl	-28(%rbp), %eax
	subl	-12(%rbp), %eax
	movl	%eax, -40(%rbp)         # 4-byte Spill
.LBB27_8:                               # %cond.end
                                        #   in Loop: Header=BB27_1 Depth=1
	movl	-40(%rbp), %eax         # 4-byte Reload
	cmpl	$10, %eax
	jg	.LBB27_14
# BB#9:                                 # %land.lhs.true
                                        #   in Loop: Header=BB27_1 Depth=1
	movl	-32(%rbp), %eax
	subl	-16(%rbp), %eax
	cmpl	$0, %eax
	jge	.LBB27_11
# BB#10:                                # %cond.true.8
                                        #   in Loop: Header=BB27_1 Depth=1
	xorl	%eax, %eax
	movl	-32(%rbp), %ecx
	subl	-16(%rbp), %ecx
	subl	%ecx, %eax
	movl	%eax, -44(%rbp)         # 4-byte Spill
	jmp	.LBB27_12
.LBB27_11:                              # %cond.false.11
                                        #   in Loop: Header=BB27_1 Depth=1
	movl	-32(%rbp), %eax
	subl	-16(%rbp), %eax
	movl	%eax, -44(%rbp)         # 4-byte Spill
.LBB27_12:                              # %cond.end.13
                                        #   in Loop: Header=BB27_1 Depth=1
	movl	-44(%rbp), %eax         # 4-byte Reload
	cmpl	$40, %eax
	jg	.LBB27_14
# BB#13:                                # %if.then.16
	jmp	.LBB27_21
.LBB27_14:                              # %if.end
                                        #   in Loop: Header=BB27_1 Depth=1
	jmp	.LBB27_19
.LBB27_15:                              # %if.else
                                        #   in Loop: Header=BB27_1 Depth=1
	movl	-28(%rbp), %eax
	cmpl	-12(%rbp), %eax
	jne	.LBB27_18
# BB#16:                                # %land.lhs.true.18
                                        #   in Loop: Header=BB27_1 Depth=1
	movl	-32(%rbp), %eax
	cmpl	-16(%rbp), %eax
	jne	.LBB27_18
# BB#17:                                # %if.then.20
	jmp	.LBB27_21
.LBB27_18:                              # %if.end.21
                                        #   in Loop: Header=BB27_1 Depth=1
	jmp	.LBB27_19
.LBB27_19:                              # %if.end.22
                                        #   in Loop: Header=BB27_1 Depth=1
	jmp	.LBB27_1
.LBB27_20:                              # %while.end
	xorl	%edi, %edi
	callq	builtin_lisp_symbol
	xorl	%edi, %edi
	movl	%edi, %ecx
	movl	$500000000, %esi        # imm = 0x1DCD6500
	xorl	%edi, %edi
	movl	%edi, -48(%rbp)         # 4-byte Spill
	movq	%rcx, %rdi
	movl	-48(%rbp), %edx         # 4-byte Reload
	movl	-48(%rbp), %r8d         # 4-byte Reload
	movq	%rcx, -56(%rbp)         # 8-byte Spill
	movl	%r8d, %ecx
	movq	%rax, %r8
	movq	-56(%rbp), %r9          # 8-byte Reload
	movl	$0, (%rsp)
	callq	wait_reading_process_output
	movl	%eax, -60(%rbp)         # 4-byte Spill
.LBB27_21:                              # %return
	addq	$80, %rsp
	popq	%rbp
	retq
.Lfunc_end27:
	.size	x_sync_with_move, .Lfunc_end27-x_sync_with_move
	.cfi_endproc

	.align	16, 0x90
	.type	x_check_expected_move,@function
x_check_expected_move:                  # @x_check_expected_move
	.cfi_startproc
# BB#0:                                 # %entry
	pushq	%rbp
.Ltmp88:
	.cfi_def_cfa_offset 16
.Ltmp89:
	.cfi_offset %rbp, -16
	movq	%rsp, %rbp
.Ltmp90:
	.cfi_def_cfa_register %rbp
	subq	$64, %rsp
	leaq	-20(%rbp), %rax
	leaq	-24(%rbp), %rcx
	movq	%rdi, -8(%rbp)
	movl	%esi, -12(%rbp)
	movl	%edx, -16(%rbp)
	movl	$0, -20(%rbp)
	movl	$0, -24(%rbp)
	movq	-8(%rbp), %rdi
	movq	%rax, %rsi
	movq	%rcx, %rdx
	callq	x_real_positions
	movl	-20(%rbp), %r8d
	cmpl	-12(%rbp), %r8d
	jne	.LBB28_2
# BB#1:                                 # %lor.lhs.false
	movl	-24(%rbp), %eax
	cmpl	-16(%rbp), %eax
	je	.LBB28_10
.LBB28_2:                               # %if.then
	movq	-8(%rbp), %rax
	movq	384(%rax), %rax
	movq	424(%rax), %rax
	movl	$1, 772(%rax)
	movl	-12(%rbp), %ecx
	subl	-20(%rbp), %ecx
	movq	-8(%rbp), %rax
	movq	384(%rax), %rax
	movl	%ecx, 520(%rax)
	movl	-16(%rbp), %ecx
	subl	-24(%rbp), %ecx
	movq	-8(%rbp), %rax
	movq	384(%rax), %rax
	movl	%ecx, 516(%rax)
	movl	-12(%rbp), %ecx
	movq	-8(%rbp), %rax
	movq	384(%rax), %rax
	addl	520(%rax), %ecx
	movl	%ecx, -28(%rbp)
	movl	-16(%rbp), %ecx
	movq	-8(%rbp), %rax
	movq	384(%rax), %rax
	addl	516(%rax), %ecx
	movl	%ecx, -32(%rbp)
	movq	-8(%rbp), %rax
	movq	384(%rax), %rax
	movq	424(%rax), %rax
	movq	16(%rax), %rdi
	movq	-8(%rbp), %rax
	movq	384(%rax), %rax
	cmpq	$0, 80(%rax)
	movq	%rdi, -40(%rbp)         # 8-byte Spill
	je	.LBB28_8
# BB#3:                                 # %cond.true
	movq	-8(%rbp), %rax
	movq	384(%rax), %rax
	cmpq	$0, 80(%rax)
	je	.LBB28_6
# BB#4:                                 # %land.lhs.true
	movq	-8(%rbp), %rax
	movq	384(%rax), %rax
	movq	80(%rax), %rdi
	callq	gtk_widget_get_window
	cmpq	$0, %rax
	je	.LBB28_6
# BB#5:                                 # %cond.true.27
	movq	-8(%rbp), %rax
	movq	384(%rax), %rax
	movq	80(%rax), %rdi
	callq	gtk_widget_get_window
	movq	%rax, %rdi
	callq	gdk_x11_drawable_get_xid
	movq	%rax, -48(%rbp)         # 8-byte Spill
	jmp	.LBB28_7
.LBB28_6:                               # %cond.false
	xorl	%eax, %eax
	movl	%eax, %ecx
	movq	%rcx, -48(%rbp)         # 8-byte Spill
	jmp	.LBB28_7
.LBB28_7:                               # %cond.end
	movq	-48(%rbp), %rax         # 8-byte Reload
	movq	%rax, -56(%rbp)         # 8-byte Spill
	jmp	.LBB28_9
.LBB28_8:                               # %cond.false.33
	movq	-8(%rbp), %rax
	movq	384(%rax), %rax
	movq	56(%rax), %rax
	movq	%rax, -56(%rbp)         # 8-byte Spill
.LBB28_9:                               # %cond.end.36
	movq	-56(%rbp), %rax         # 8-byte Reload
	movl	-28(%rbp), %edx
	movl	-32(%rbp), %ecx
	movq	-40(%rbp), %rdi         # 8-byte Reload
	movq	%rax, %rsi
	callq	XMoveWindow
	xorl	%ecx, %ecx
	movq	-8(%rbp), %rdi
	movl	-12(%rbp), %esi
	movl	-16(%rbp), %edx
	movl	%eax, -60(%rbp)         # 4-byte Spill
	callq	x_sync_with_move
	jmp	.LBB28_11
.LBB28_10:                              # %if.else
	movq	-8(%rbp), %rax
	movq	384(%rax), %rax
	movq	424(%rax), %rax
	movl	$2, 772(%rax)
.LBB28_11:                              # %if.end
	addq	$64, %rsp
	popq	%rbp
	retq
.Lfunc_end28:
	.size	x_check_expected_move, .Lfunc_end28-x_check_expected_move
	.cfi_endproc

	.globl	x_wm_supports
	.align	16, 0x90
	.type	x_wm_supports,@function
x_wm_supports:                          # @x_wm_supports
	.cfi_startproc
# BB#0:                                 # %entry
	pushq	%rbp
.Ltmp91:
	.cfi_def_cfa_offset 16
.Ltmp92:
	.cfi_offset %rbp, -16
	movq	%rsp, %rbp
.Ltmp93:
	.cfi_def_cfa_register %rbp
	pushq	%r15
	pushq	%r14
	pushq	%r12
	pushq	%rbx
	subq	$256, %rsp              # imm = 0x100
.Ltmp94:
	.cfi_offset %rbx, -48
.Ltmp95:
	.cfi_offset %r12, -40
.Ltmp96:
	.cfi_offset %r14, -32
.Ltmp97:
	.cfi_offset %r15, -24
	movq	%rdi, -48(%rbp)
	movq	%rsi, -56(%rbp)
	movq	-48(%rbp), %rsi
	movq	384(%rsi), %rsi
	movq	424(%rsi), %rsi
	movq	%rsi, -112(%rbp)
	movq	-112(%rbp), %rsi
	movq	104(%rsi), %rsi
	movq	%rsi, -120(%rbp)
	movl	$65536, -124(%rbp)      # imm = 0x10000
	movq	-48(%rbp), %rsi
	movq	384(%rsi), %rsi
	movq	424(%rsi), %rsi
	movq	16(%rsi), %rsi
	movq	%rsi, -136(%rbp)
	movq	$0, -144(%rbp)
	movq	$33, -152(%rbp)
	callq	block_input
	movq	-136(%rbp), %rdi
	callq	x_catch_errors
	xorl	%eax, %eax
	movl	%eax, %ecx
	xorl	%r9d, %r9d
	leaq	-64(%rbp), %rsi
	leaq	-92(%rbp), %rdi
	leaq	-72(%rbp), %rdx
	leaq	-80(%rbp), %r8
	leaq	-144(%rbp), %r10
	movq	-136(%rbp), %r11
	movq	-120(%rbp), %rbx
	movq	-112(%rbp), %r14
	movq	808(%r14), %r14
	movslq	-124(%rbp), %r15
	movq	-152(%rbp), %r12
	movq	%rdi, -160(%rbp)        # 8-byte Spill
	movq	%r11, %rdi
	movq	%rsi, -168(%rbp)        # 8-byte Spill
	movq	%rbx, %rsi
	movq	%rdx, -176(%rbp)        # 8-byte Spill
	movq	%r14, %rdx
	movq	%r8, -184(%rbp)         # 8-byte Spill
	movq	%r15, %r8
	movq	%r12, (%rsp)
	movq	-168(%rbp), %r11        # 8-byte Reload
	movq	%r11, 8(%rsp)
	movq	-160(%rbp), %rbx        # 8-byte Reload
	movq	%rbx, 16(%rsp)
	movq	-176(%rbp), %r14        # 8-byte Reload
	movq	%r14, 24(%rsp)
	movq	-184(%rbp), %r15        # 8-byte Reload
	movq	%r15, 32(%rsp)
	movq	%r10, 40(%rsp)
	callq	XGetWindowProperty
	movl	%eax, -88(%rbp)
	cmpl	$0, -88(%rbp)
	jne	.LBB29_3
# BB#1:                                 # %lor.lhs.false
	cmpq	$33, -64(%rbp)
	jne	.LBB29_3
# BB#2:                                 # %lor.lhs.false.7
	movq	-136(%rbp), %rdi
	callq	x_had_errors_p
	testb	$1, %al
	jne	.LBB29_3
	jmp	.LBB29_6
.LBB29_3:                               # %if.then
	cmpq	$0, -144(%rbp)
	je	.LBB29_5
# BB#4:                                 # %if.then.10
	movq	-144(%rbp), %rdi
	callq	XFree
	movl	%eax, -188(%rbp)        # 4-byte Spill
.LBB29_5:                               # %if.end
	callq	x_uncatch_errors
	callq	unblock_input
	movb	$0, -33(%rbp)
	jmp	.LBB29_25
.LBB29_6:                               # %if.end.12
	movq	-144(%rbp), %rax
	movq	(%rax), %rax
	movq	%rax, -104(%rbp)
	movq	-144(%rbp), %rdi
	callq	XFree
	movl	$131072, %ecx           # imm = 0x20000
	movl	%ecx, %edx
	movq	-136(%rbp), %rdi
	movq	-104(%rbp), %rsi
	movl	%eax, -192(%rbp)        # 4-byte Spill
	callq	XSelectInput
	movq	-136(%rbp), %rdi
	movl	%eax, -196(%rbp)        # 4-byte Spill
	callq	x_had_errors_p
	testb	$1, %al
	jne	.LBB29_7
	jmp	.LBB29_8
.LBB29_7:                               # %if.then.16
	callq	x_uncatch_errors_after_check
	callq	unblock_input
	movb	$0, -33(%rbp)
	jmp	.LBB29_25
.LBB29_8:                               # %if.end.17
	movq	-112(%rbp), %rax
	movq	832(%rax), %rax
	cmpq	-104(%rbp), %rax
	je	.LBB29_18
# BB#9:                                 # %if.then.20
	movq	-112(%rbp), %rax
	cmpq	$0, 816(%rax)
	je	.LBB29_11
# BB#10:                                # %if.then.23
	movq	-112(%rbp), %rax
	movq	816(%rax), %rax
	movq	%rax, %rdi
	callq	XFree
	movl	%eax, -200(%rbp)        # 4-byte Spill
.LBB29_11:                              # %if.end.26
	xorl	%eax, %eax
	movl	%eax, %ecx
	xorl	%r9d, %r9d
	leaq	-64(%rbp), %rdx
	leaq	-92(%rbp), %rsi
	leaq	-72(%rbp), %rdi
	leaq	-80(%rbp), %r8
	leaq	-144(%rbp), %r10
	movq	-112(%rbp), %r11
	movq	$0, 816(%r11)
	movq	-112(%rbp), %r11
	movl	$0, 824(%r11)
	movq	-112(%rbp), %r11
	movq	$0, 832(%r11)
	movq	$4, -152(%rbp)
	movq	$0, -144(%rbp)
	movq	-136(%rbp), %r11
	movq	-120(%rbp), %rbx
	movq	-112(%rbp), %r14
	movq	800(%r14), %r14
	movslq	-124(%rbp), %r15
	movq	-152(%rbp), %r12
	movq	%rdi, -208(%rbp)        # 8-byte Spill
	movq	%r11, %rdi
	movq	%rsi, -216(%rbp)        # 8-byte Spill
	movq	%rbx, %rsi
	movq	%rdx, -224(%rbp)        # 8-byte Spill
	movq	%r14, %rdx
	movq	%r8, -232(%rbp)         # 8-byte Spill
	movq	%r15, %r8
	movq	%r12, (%rsp)
	movq	-224(%rbp), %r11        # 8-byte Reload
	movq	%r11, 8(%rsp)
	movq	-216(%rbp), %rbx        # 8-byte Reload
	movq	%rbx, 16(%rsp)
	movq	-208(%rbp), %r14        # 8-byte Reload
	movq	%r14, 24(%rsp)
	movq	-232(%rbp), %r15        # 8-byte Reload
	movq	%r15, 32(%rsp)
	movq	%r10, 40(%rsp)
	callq	XGetWindowProperty
	movl	%eax, -88(%rbp)
	cmpl	$0, -88(%rbp)
	jne	.LBB29_14
# BB#12:                                # %lor.lhs.false.33
	cmpq	$4, -64(%rbp)
	jne	.LBB29_14
# BB#13:                                # %lor.lhs.false.36
	movq	-136(%rbp), %rdi
	callq	x_had_errors_p
	testb	$1, %al
	jne	.LBB29_14
	jmp	.LBB29_17
.LBB29_14:                              # %if.then.39
	cmpq	$0, -144(%rbp)
	je	.LBB29_16
# BB#15:                                # %if.then.41
	movq	-144(%rbp), %rdi
	callq	XFree
	movl	%eax, -236(%rbp)        # 4-byte Spill
.LBB29_16:                              # %if.end.43
	callq	x_uncatch_errors
	callq	unblock_input
	movb	$0, -33(%rbp)
	jmp	.LBB29_25
.LBB29_17:                              # %if.end.44
	movq	-144(%rbp), %rax
	movq	-112(%rbp), %rcx
	movq	%rax, 816(%rcx)
	movq	-72(%rbp), %rax
	movl	%eax, %edx
	movq	-112(%rbp), %rax
	movl	%edx, 824(%rax)
	movq	-104(%rbp), %rax
	movq	-112(%rbp), %rcx
	movq	%rax, 832(%rcx)
.LBB29_18:                              # %if.end.49
	movb	$0, -93(%rbp)
	movl	$0, -84(%rbp)
.LBB29_19:                              # %for.cond
                                        # =>This Inner Loop Header: Depth=1
	xorl	%eax, %eax
	movb	%al, %cl
	testb	$1, -93(%rbp)
	movb	%cl, -237(%rbp)         # 1-byte Spill
	jne	.LBB29_21
# BB#20:                                # %land.rhs
                                        #   in Loop: Header=BB29_19 Depth=1
	movl	-84(%rbp), %eax
	movq	-112(%rbp), %rcx
	cmpl	824(%rcx), %eax
	setl	%dl
	movb	%dl, -237(%rbp)         # 1-byte Spill
.LBB29_21:                              # %land.end
                                        #   in Loop: Header=BB29_19 Depth=1
	movb	-237(%rbp), %al         # 1-byte Reload
	testb	$1, %al
	jne	.LBB29_22
	jmp	.LBB29_24
.LBB29_22:                              # %for.body
                                        #   in Loop: Header=BB29_19 Depth=1
	movslq	-84(%rbp), %rax
	movq	-112(%rbp), %rcx
	movq	816(%rcx), %rcx
	movq	(%rcx,%rax,8), %rax
	cmpq	-56(%rbp), %rax
	sete	%dl
	andb	$1, %dl
	movb	%dl, -93(%rbp)
# BB#23:                                # %for.inc
                                        #   in Loop: Header=BB29_19 Depth=1
	movl	-84(%rbp), %eax
	addl	$1, %eax
	movl	%eax, -84(%rbp)
	jmp	.LBB29_19
.LBB29_24:                              # %for.end
	callq	x_uncatch_errors
	callq	unblock_input
	movb	-93(%rbp), %al
	andb	$1, %al
	movb	%al, -33(%rbp)
.LBB29_25:                              # %return
	movb	-33(%rbp), %al
	andb	$1, %al
	movzbl	%al, %eax
	addq	$256, %rsp              # imm = 0x100
	popq	%rbx
	popq	%r12
	popq	%r14
	popq	%r15
	popq	%rbp
	retq
.Lfunc_end29:
	.size	x_wm_supports, .Lfunc_end29-x_wm_supports
	.cfi_endproc

	.globl	x_set_sticky
	.align	16, 0x90
	.type	x_set_sticky,@function
x_set_sticky:                           # @x_set_sticky
	.cfi_startproc
# BB#0:                                 # %entry
	pushq	%rbp
.Ltmp98:
	.cfi_def_cfa_offset 16
.Ltmp99:
	.cfi_offset %rbp, -16
	movq	%rsp, %rbp
.Ltmp100:
	.cfi_def_cfa_register %rbp
	subq	$64, %rsp
	movl	$5, %eax
	movq	%rdi, -8(%rbp)
	movq	%rsi, -16(%rbp)
	movq	%rdx, -24(%rbp)
	movq	-8(%rbp), %rdx
	movq	384(%rdx), %rdx
	movq	424(%rdx), %rdx
	movq	%rdx, -40(%rbp)
	movq	-8(%rbp), %rdx
	movq	%rdx, %rdi
	movl	%eax, %esi
	callq	make_lisp_ptr
	xorl	%edi, %edi
	movq	%rax, -32(%rbp)
	movq	-32(%rbp), %rax
	movq	-16(%rbp), %rdx
	movq	%rdx, -48(%rbp)         # 8-byte Spill
	movq	%rax, -56(%rbp)         # 8-byte Spill
	callq	builtin_lisp_symbol
	movq	-48(%rbp), %rdx         # 8-byte Reload
	cmpq	%rax, %rdx
	sete	%cl
	xorb	$-1, %cl
	movq	-40(%rbp), %rax
	movq	896(%rax), %rdx
	movzbl	%cl, %esi
	andl	$1, %esi
	xorl	%edi, %edi
	movl	%edi, %ecx
	movq	-56(%rbp), %rdi         # 8-byte Reload
	callq	set_wm_state
	addq	$64, %rsp
	popq	%rbp
	retq
.Lfunc_end30:
	.size	x_set_sticky, .Lfunc_end30-x_set_sticky
	.cfi_endproc

	.section	.rodata.cst16,"aM",@progbits,16
	.align	16
.LCPI31_0:
	.long	1127219200              # 0x43300000
	.long	1160773632              # 0x45300000
	.long	0                       # 0x0
	.long	0                       # 0x0
.LCPI31_1:
	.quad	4841369599423283200     # double 4.503600e+15
	.quad	4985484787499139072     # double 1.934281e+25
	.text
	.align	16, 0x90
	.type	set_wm_state,@function
set_wm_state:                           # @set_wm_state
	.cfi_startproc
# BB#0:                                 # %entry
	pushq	%rbp
.Ltmp101:
	.cfi_def_cfa_offset 16
.Ltmp102:
	.cfi_offset %rbp, -16
	movq	%rsp, %rbp
.Ltmp103:
	.cfi_def_cfa_register %rbp
	subq	$112, %rsp
	movb	%sil, %al
	xorl	%esi, %esi
	movl	%esi, %r8d
	movq	%rdi, -8(%rbp)
	andb	$1, %al
	movb	%al, -9(%rbp)
	movq	%rdx, -24(%rbp)
	movq	%rcx, -32(%rbp)
	movq	-8(%rbp), %rcx
	subq	$5, %rcx
	movq	384(%rcx), %rcx
	movq	424(%rcx), %rcx
	movq	%rcx, -40(%rbp)
	movq	-8(%rbp), %rdi
	movq	-8(%rbp), %rdx
	movq	-40(%rbp), %rcx
	movq	864(%rcx), %rcx
	movb	-9(%rbp), %al
	andb	$1, %al
	movzbl	%al, %esi
	movl	%esi, %r9d
	shlq	$2, %r9
	addq	$2, %r9
	cmpq	-24(%rbp), %r8
	movq	%r9, -48(%rbp)          # 8-byte Spill
	movq	%rdi, -56(%rbp)         # 8-byte Spill
	movq	%rdx, -64(%rbp)         # 8-byte Spill
	movq	%rcx, -72(%rbp)         # 8-byte Spill
	jbe	.LBB31_2
# BB#1:                                 # %lor.lhs.false
	movabsq	$-2305843009213693952, %rax # imm = 0xE000000000000000
	cmpq	-24(%rbp), %rax
	ja	.LBB31_3
.LBB31_2:                               # %land.lhs.true
	movabsq	$2305843009213693951, %rax # imm = 0x1FFFFFFFFFFFFFFF
	cmpq	%rax, -24(%rbp)
	jbe	.LBB31_4
.LBB31_3:                               # %cond.true
	movaps	.LCPI31_0(%rip), %xmm0  # xmm0 = [1127219200,1160773632,0,0]
	movq	-24(%rbp), %xmm1        # xmm1 = mem[0],zero
	punpckldq	%xmm0, %xmm1    # xmm1 = xmm1[0],xmm0[0],xmm1[1],xmm0[1]
	movapd	.LCPI31_1(%rip), %xmm0  # xmm0 = [4.503600e+15,1.934281e+25]
	subpd	%xmm0, %xmm1
	pshufd	$78, %xmm1, %xmm0       # xmm0 = xmm1[2,3,0,1]
	addpd	%xmm1, %xmm0
	callq	make_float
	movq	%rax, -80(%rbp)         # 8-byte Spill
	jmp	.LBB31_5
.LBB31_4:                               # %cond.false
	movq	-24(%rbp), %rax
	shlq	$2, %rax
	addq	$2, %rax
	movq	%rax, -80(%rbp)         # 8-byte Spill
.LBB31_5:                               # %cond.end
	movq	-80(%rbp), %rax         # 8-byte Reload
	cmpq	$0, -32(%rbp)
	movq	%rax, -88(%rbp)         # 8-byte Spill
	je	.LBB31_12
# BB#6:                                 # %cond.true.12
	xorl	%eax, %eax
	movl	%eax, %ecx
	cmpq	-32(%rbp), %rcx
	jbe	.LBB31_8
# BB#7:                                 # %lor.lhs.false.15
	movabsq	$-2305843009213693952, %rax # imm = 0xE000000000000000
	cmpq	-32(%rbp), %rax
	ja	.LBB31_9
.LBB31_8:                               # %land.lhs.true.18
	movabsq	$2305843009213693951, %rax # imm = 0x1FFFFFFFFFFFFFFF
	cmpq	%rax, -32(%rbp)
	jbe	.LBB31_10
.LBB31_9:                               # %cond.true.21
	movaps	.LCPI31_0(%rip), %xmm0  # xmm0 = [1127219200,1160773632,0,0]
	movq	-32(%rbp), %xmm1        # xmm1 = mem[0],zero
	punpckldq	%xmm0, %xmm1    # xmm1 = xmm1[0],xmm0[0],xmm1[1],xmm0[1]
	movapd	.LCPI31_1(%rip), %xmm0  # xmm0 = [4.503600e+15,1.934281e+25]
	subpd	%xmm0, %xmm1
	pshufd	$78, %xmm1, %xmm0       # xmm0 = xmm1[2,3,0,1]
	addpd	%xmm1, %xmm0
	callq	make_float
	movq	%rax, -96(%rbp)         # 8-byte Spill
	jmp	.LBB31_11
.LBB31_10:                              # %cond.false.24
	movq	-32(%rbp), %rax
	shlq	$2, %rax
	addq	$2, %rax
	movq	%rax, -96(%rbp)         # 8-byte Spill
.LBB31_11:                              # %cond.end.27
	movq	-96(%rbp), %rax         # 8-byte Reload
	movq	%rax, %rdi
	callq	list1
	movq	%rax, -104(%rbp)        # 8-byte Spill
	jmp	.LBB31_13
.LBB31_12:                              # %cond.false.30
	xorl	%edi, %edi
	callq	builtin_lisp_symbol
	movq	%rax, -104(%rbp)        # 8-byte Spill
.LBB31_13:                              # %cond.end.32
	movq	-104(%rbp), %rax        # 8-byte Reload
	movq	-88(%rbp), %rdi         # 8-byte Reload
	movq	%rax, %rsi
	callq	Fcons
	movq	-48(%rbp), %rdi         # 8-byte Reload
	movq	%rax, %rsi
	callq	Fcons
	movl	$2, %ecx
	movl	%ecx, %esi
	movl	$130, %ecx
	movl	%ecx, %r8d
	movq	-56(%rbp), %rdi         # 8-byte Reload
	movq	-64(%rbp), %rdx         # 8-byte Reload
	movq	-72(%rbp), %rcx         # 8-byte Reload
	movq	%rax, %r9
	callq	x_send_client_event
	addq	$112, %rsp
	popq	%rbp
	retq
.Lfunc_end31:
	.size	set_wm_state, .Lfunc_end31-set_wm_state
	.cfi_endproc

	.globl	x_wait_for_event
	.align	16, 0x90
	.type	x_wait_for_event,@function
x_wait_for_event:                       # @x_wait_for_event
	.cfi_startproc
# BB#0:                                 # %entry
	pushq	%rbp
.Ltmp104:
	.cfi_def_cfa_offset 16
.Ltmp105:
	.cfi_offset %rbp, -16
	movq	%rsp, %rbp
.Ltmp106:
	.cfi_def_cfa_register %rbp
	subq	$304, %rsp              # imm = 0x130
	xorl	%eax, %eax
	movl	%eax, %ecx
	movl	$100000000, %eax        # imm = 0x5F5E100
	movl	%eax, %edx
	movq	%rdi, -8(%rbp)
	movl	%esi, -12(%rbp)
	movl	interrupt_input_blocked, %eax
	movl	%eax, -16(%rbp)
	movq	-8(%rbp), %rdi
	movq	384(%rdi), %rdi
	movq	424(%rdi), %rdi
	movq	16(%rdi), %rdi
	movl	16(%rdi), %eax
	movl	%eax, -196(%rbp)
	movl	-12(%rbp), %eax
	movq	-8(%rbp), %rdi
	movl	%eax, 400(%rdi)
	movq	%rcx, %rdi
	movq	%rdx, %rsi
	callq	make_timespec
	movq	%rax, -216(%rbp)
	movq	%rdx, -208(%rbp)
	movq	-216(%rbp), %rax
	movq	%rax, -160(%rbp)
	movq	-208(%rbp), %rax
	movq	%rax, -152(%rbp)
	callq	current_timespec
	movq	%rax, -232(%rbp)
	movq	%rdx, -224(%rbp)
	movq	-232(%rbp), %rdi
	movq	-224(%rbp), %rsi
	movq	-160(%rbp), %rdx
	movq	-152(%rbp), %rcx
	callq	timespec_add
	movq	%rax, -248(%rbp)
	movq	%rdx, -240(%rbp)
	movq	-248(%rbp), %rax
	movq	%rax, -176(%rbp)
	movq	-240(%rbp), %rax
	movq	%rax, -168(%rbp)
.LBB32_1:                               # %while.cond
                                        # =>This Inner Loop Header: Depth=1
	movq	-8(%rbp), %rax
	cmpl	$0, 400(%rax)
	je	.LBB32_9
# BB#2:                                 # %while.body
                                        #   in Loop: Header=BB32_1 Depth=1
	movb	$1, pending_signals
	callq	totally_unblock_input
	callq	block_input
	movl	-16(%rbp), %eax
	movl	%eax, interrupt_input_blocked
# BB#3:                                 # %do.body
                                        #   in Loop: Header=BB32_1 Depth=1
	leaq	-144(%rbp), %rax
	movl	$16, %ecx
                                        # kill: RCX<def> ECX<kill>
	xorl	%edx, %edx
	movq	%rax, -296(%rbp)        # 8-byte Spill
	movl	%edx, %eax
	movq	-296(%rbp), %rsi        # 8-byte Reload
	movq	%rsi, %rdi
	#APP
	cld
	rep
	stosq	%rax, %es:(%rdi)
	#NO_APP
	movl	%ecx, %eax
	movl	%eax, -252(%rbp)
	movl	%edi, %eax
	movl	%eax, -256(%rbp)
# BB#4:                                 # %do.end
                                        #   in Loop: Header=BB32_1 Depth=1
	leaq	-144(%rbp), %rsi
	movl	-196(%rbp), %edi
	callq	fd_SET
	callq	current_timespec
	movq	%rax, -272(%rbp)
	movq	%rdx, -264(%rbp)
	movq	-272(%rbp), %rax
	movq	%rax, -192(%rbp)
	movq	-264(%rbp), %rax
	movq	%rax, -184(%rbp)
	movq	-176(%rbp), %rdi
	movq	-168(%rbp), %rsi
	movq	-192(%rbp), %rdx
	movq	-184(%rbp), %rcx
	callq	timespec_cmp
	cmpl	$0, %eax
	jge	.LBB32_6
# BB#5:                                 # %if.then
	jmp	.LBB32_9
.LBB32_6:                               # %if.end
                                        #   in Loop: Header=BB32_1 Depth=1
	movq	-176(%rbp), %rdi
	movq	-168(%rbp), %rsi
	movq	-192(%rbp), %rdx
	movq	-184(%rbp), %rcx
	callq	timespec_sub
	leaq	-144(%rbp), %rsi
	xorl	%r8d, %r8d
	movl	%r8d, %ecx
	leaq	-160(%rbp), %r8
	movq	%rax, -288(%rbp)
	movq	%rdx, -280(%rbp)
	movq	-288(%rbp), %rax
	movq	%rax, -160(%rbp)
	movq	-280(%rbp), %rax
	movq	%rax, -152(%rbp)
	movl	-196(%rbp), %r9d
	addl	$1, %r9d
	movl	%r9d, %edi
	movq	%rcx, %rdx
	movq	%rcx, -304(%rbp)        # 8-byte Spill
	movq	-304(%rbp), %r9         # 8-byte Reload
	callq	pselect
	cmpl	$0, %eax
	jne	.LBB32_8
# BB#7:                                 # %if.then.14
	jmp	.LBB32_9
.LBB32_8:                               # %if.end.15
                                        #   in Loop: Header=BB32_1 Depth=1
	jmp	.LBB32_1
.LBB32_9:                               # %while.end
	movq	-8(%rbp), %rax
	movl	$0, 400(%rax)
	addq	$304, %rsp              # imm = 0x130
	popq	%rbp
	retq
.Lfunc_end32:
	.size	x_wait_for_event, .Lfunc_end32-x_wait_for_event
	.cfi_endproc

	.globl	x_set_window_size
	.align	16, 0x90
	.type	x_set_window_size,@function
x_set_window_size:                      # @x_set_window_size
	.cfi_startproc
# BB#0:                                 # %entry
	pushq	%rbp
.Ltmp107:
	.cfi_def_cfa_offset 16
.Ltmp108:
	.cfi_offset %rbp, -16
	movq	%rsp, %rbp
.Ltmp109:
	.cfi_def_cfa_register %rbp
	subq	$32, %rsp
	movb	%r8b, %al
	movb	%sil, %r9b
	movq	%rdi, -8(%rbp)
	andb	$1, %r9b
	movb	%r9b, -9(%rbp)
	movl	%edx, -16(%rbp)
	movl	%ecx, -20(%rbp)
	andb	$1, %al
	movb	%al, -21(%rbp)
	callq	block_input
	testb	$1, -21(%rbp)
	jne	.LBB33_2
# BB#1:                                 # %if.then
	movl	-16(%rbp), %eax
	movq	-8(%rbp), %rcx
	imull	364(%rcx), %eax
	movl	%eax, -16(%rbp)
	movl	-20(%rbp), %eax
	movq	-8(%rbp), %rcx
	imull	368(%rcx), %eax
	movl	%eax, -20(%rbp)
.LBB33_2:                               # %if.end
	movq	-8(%rbp), %rax
	movq	384(%rax), %rax
	cmpq	$0, 88(%rax)
	je	.LBB33_4
# BB#3:                                 # %if.then.4
	movq	-8(%rbp), %rdi
	movl	-16(%rbp), %esi
	movl	-20(%rbp), %edx
	callq	xg_frame_set_char_size
	jmp	.LBB33_5
.LBB33_4:                               # %if.else
	movq	-8(%rbp), %rdi
	movb	-9(%rbp), %al
	movl	-16(%rbp), %edx
	movl	-20(%rbp), %ecx
	andb	$1, %al
	movzbl	%al, %esi
	callq	x_set_window_size_1
.LBB33_5:                               # %if.end.6
	movq	-8(%rbp), %rax
	movq	40(%rax), %rdi
	callq	XWINDOW
	movq	%rax, %rdi
	callq	mark_window_cursors_off
	movq	-8(%rbp), %rdi
	callq	cancel_mouse_face
	callq	unblock_input
	xorl	%edi, %edi
	callq	do_pending_window_change
	addq	$32, %rsp
	popq	%rbp
	retq
.Lfunc_end33:
	.size	x_set_window_size, .Lfunc_end33-x_set_window_size
	.cfi_endproc

	.align	16, 0x90
	.type	x_set_window_size_1,@function
x_set_window_size_1:                    # @x_set_window_size_1
	.cfi_startproc
# BB#0:                                 # %entry
	pushq	%rbp
.Ltmp110:
	.cfi_def_cfa_offset 16
.Ltmp111:
	.cfi_offset %rbp, -16
	movq	%rsp, %rbp
.Ltmp112:
	.cfi_def_cfa_register %rbp
	subq	$288, %rsp              # imm = 0x120
	movb	%sil, %al
	movq	%rdi, -8(%rbp)
	andb	$1, %al
	movb	%al, -9(%rbp)
	movl	%edx, -16(%rbp)
	movl	%ecx, -20(%rbp)
	movl	-16(%rbp), %ecx
	movq	-8(%rbp), %rdi
	movq	208(%rdi), %rdi
	shrq	$30, %rdi
	andq	$3, %rdi
	movl	%edi, %edx
	cmpl	$0, %edx
	movl	%ecx, -52(%rbp)         # 4-byte Spill
	je	.LBB34_2
# BB#1:                                 # %cond.true
	movq	-8(%rbp), %rax
	movl	420(%rax), %ecx
	movl	%ecx, -56(%rbp)         # 4-byte Spill
	jmp	.LBB34_3
.LBB34_2:                               # %cond.false
	xorl	%eax, %eax
	movl	%eax, -56(%rbp)         # 4-byte Spill
	jmp	.LBB34_3
.LBB34_3:                               # %cond.end
	movl	-56(%rbp), %eax         # 4-byte Reload
	movl	-52(%rbp), %ecx         # 4-byte Reload
	addl	%eax, %ecx
	movq	-8(%rbp), %rdx
	movl	344(%rdx), %eax
	movq	-8(%rbp), %rdx
	addl	348(%rdx), %eax
	addl	%eax, %ecx
	movq	-8(%rbp), %rdx
	movl	332(%rdx), %eax
	shll	$1, %eax
	addl	%eax, %ecx
	movl	%ecx, -24(%rbp)
	movl	-20(%rbp), %eax
	movq	-8(%rbp), %rdx
	movl	360(%rdx), %ecx
	movq	-8(%rbp), %rdx
	addl	220(%rdx), %ecx
	addl	%ecx, %eax
	movq	-8(%rbp), %rdx
	movq	208(%rdx), %rdx
	shrq	$32, %rdx
	andq	$1, %rdx
	testq	$1, %rdx
	movl	%eax, -60(%rbp)         # 4-byte Spill
	je	.LBB34_5
# BB#4:                                 # %cond.true.10
	movq	-8(%rbp), %rax
	movl	428(%rax), %ecx
	movl	%ecx, -64(%rbp)         # 4-byte Spill
	jmp	.LBB34_6
.LBB34_5:                               # %cond.false.11
	xorl	%eax, %eax
	movl	%eax, -64(%rbp)         # 4-byte Spill
	jmp	.LBB34_6
.LBB34_6:                               # %cond.end.12
	movl	-64(%rbp), %eax         # 4-byte Reload
	movl	$472, %edi              # imm = 0x1D8
	movl	-60(%rbp), %ecx         # 4-byte Reload
	addl	%eax, %ecx
	movq	-8(%rbp), %rdx
	movl	332(%rdx), %eax
	shll	$1, %eax
	addl	%eax, %ecx
	movl	%ecx, -28(%rbp)
	movq	-8(%rbp), %rdx
	movl	312(%rdx), %eax
	movl	%eax, -32(%rbp)
	movq	-8(%rbp), %rdx
	movl	316(%rdx), %eax
	movl	%eax, -36(%rbp)
	movq	-8(%rbp), %rdx
	movq	%rdx, -72(%rbp)         # 8-byte Spill
	callq	builtin_lisp_symbol
	movq	-72(%rbp), %rdi         # 8-byte Reload
	movq	%rax, %rsi
	callq	get_frame_param
	movq	%rax, -48(%rbp)
	testb	$1, -9(%rbp)
	je	.LBB34_8
# BB#7:                                 # %if.then
	movq	-8(%rbp), %rax
	movl	$1, 320(%rax)
.LBB34_8:                               # %if.end
	xorl	%eax, %eax
	movl	%eax, %esi
	xorl	%edx, %edx
	movq	-8(%rbp), %rdi
	callq	x_wm_set_size_hint
	movl	$473, %edi              # imm = 0x1D9
	movq	-48(%rbp), %rsi
	movq	%rsi, -80(%rbp)         # 8-byte Spill
	callq	builtin_lisp_symbol
	movq	-80(%rbp), %rsi         # 8-byte Reload
	cmpq	%rax, %rsi
	jne	.LBB34_18
# BB#9:                                 # %land.lhs.true
	movl	-16(%rbp), %eax
	movq	-8(%rbp), %rcx
	cmpl	288(%rcx), %eax
	jne	.LBB34_18
# BB#10:                                # %if.then.22
	movl	$1059, %edi             # imm = 0x423
	movq	-8(%rbp), %rax
	movq	%rax, -88(%rbp)         # 8-byte Spill
	callq	builtin_lisp_symbol
	movl	-16(%rbp), %edx
	movl	-20(%rbp), %ecx
	movslq	-36(%rbp), %rsi
	shlq	$2, %rsi
	addq	$2, %rsi
	movl	-28(%rbp), %edi
	movq	-8(%rbp), %r8
	movq	384(%r8), %r8
	addl	(%r8), %edi
	movslq	%edi, %r8
	shlq	$2, %r8
	addq	$2, %r8
	movq	%rsi, %rdi
	movq	%r8, %rsi
	movq	%rax, -96(%rbp)         # 8-byte Spill
	movl	%edx, -100(%rbp)        # 4-byte Spill
	movl	%ecx, -104(%rbp)        # 4-byte Spill
	callq	list2
	movq	-88(%rbp), %rdi         # 8-byte Reload
	movq	-96(%rbp), %rsi         # 8-byte Reload
	movl	-100(%rbp), %edx        # 4-byte Reload
	movl	-104(%rbp), %ecx        # 4-byte Reload
	movq	%rax, %r8
	callq	frame_size_history_add
	movq	-8(%rbp), %rax
	movq	384(%rax), %rax
	movq	424(%rax), %rax
	movq	16(%rax), %rdi
	movq	-8(%rbp), %rax
	movq	384(%rax), %rax
	cmpq	$0, 80(%rax)
	movq	%rdi, -112(%rbp)        # 8-byte Spill
	je	.LBB34_16
# BB#11:                                # %cond.true.35
	movq	-8(%rbp), %rax
	movq	384(%rax), %rax
	cmpq	$0, 80(%rax)
	je	.LBB34_14
# BB#12:                                # %land.lhs.true.40
	movq	-8(%rbp), %rax
	movq	384(%rax), %rax
	movq	80(%rax), %rdi
	callq	gtk_widget_get_window
	cmpq	$0, %rax
	je	.LBB34_14
# BB#13:                                # %cond.true.46
	movq	-8(%rbp), %rax
	movq	384(%rax), %rax
	movq	80(%rax), %rdi
	callq	gtk_widget_get_window
	movq	%rax, %rdi
	callq	gdk_x11_drawable_get_xid
	movq	%rax, -120(%rbp)        # 8-byte Spill
	jmp	.LBB34_15
.LBB34_14:                              # %cond.false.52
	xorl	%eax, %eax
	movl	%eax, %ecx
	movq	%rcx, -120(%rbp)        # 8-byte Spill
	jmp	.LBB34_15
.LBB34_15:                              # %cond.end.53
	movq	-120(%rbp), %rax        # 8-byte Reload
	movq	%rax, -128(%rbp)        # 8-byte Spill
	jmp	.LBB34_17
.LBB34_16:                              # %cond.false.55
	movq	-8(%rbp), %rax
	movq	384(%rax), %rax
	movq	56(%rax), %rax
	movq	%rax, -128(%rbp)        # 8-byte Spill
.LBB34_17:                              # %cond.end.58
	movq	-128(%rbp), %rax        # 8-byte Reload
	movl	-32(%rbp), %edx
	movl	-28(%rbp), %ecx
	movq	-8(%rbp), %rsi
	movq	384(%rsi), %rsi
	addl	(%rsi), %ecx
	movq	-112(%rbp), %rdi        # 8-byte Reload
	movq	%rax, %rsi
	callq	XResizeWindow
	movl	%eax, -132(%rbp)        # 4-byte Spill
	jmp	.LBB34_37
.LBB34_18:                              # %if.else
	movl	$471, %edi              # imm = 0x1D7
	movq	-48(%rbp), %rax
	movq	%rax, -144(%rbp)        # 8-byte Spill
	callq	builtin_lisp_symbol
	movq	-144(%rbp), %rcx        # 8-byte Reload
	cmpq	%rax, %rcx
	jne	.LBB34_28
# BB#19:                                # %land.lhs.true.68
	movl	-20(%rbp), %eax
	movq	-8(%rbp), %rcx
	cmpl	292(%rcx), %eax
	jne	.LBB34_28
# BB#20:                                # %if.then.71
	movl	$1060, %edi             # imm = 0x424
	movq	-8(%rbp), %rax
	movq	%rax, -152(%rbp)        # 8-byte Spill
	callq	builtin_lisp_symbol
	movl	-16(%rbp), %edx
	movl	-20(%rbp), %ecx
	movslq	-32(%rbp), %rsi
	shlq	$2, %rsi
	addq	$2, %rsi
	movslq	-24(%rbp), %r8
	shlq	$2, %r8
	addq	$2, %r8
	movq	%rsi, %rdi
	movq	%r8, %rsi
	movq	%rax, -160(%rbp)        # 8-byte Spill
	movl	%edx, -164(%rbp)        # 4-byte Spill
	movl	%ecx, -168(%rbp)        # 4-byte Spill
	callq	list2
	movq	-152(%rbp), %rdi        # 8-byte Reload
	movq	-160(%rbp), %rsi        # 8-byte Reload
	movl	-164(%rbp), %edx        # 4-byte Reload
	movl	-168(%rbp), %ecx        # 4-byte Reload
	movq	%rax, %r8
	callq	frame_size_history_add
	movq	-8(%rbp), %rax
	movq	384(%rax), %rax
	movq	424(%rax), %rax
	movq	16(%rax), %rdi
	movq	-8(%rbp), %rax
	movq	384(%rax), %rax
	cmpq	$0, 80(%rax)
	movq	%rdi, -176(%rbp)        # 8-byte Spill
	je	.LBB34_26
# BB#21:                                # %cond.true.88
	movq	-8(%rbp), %rax
	movq	384(%rax), %rax
	cmpq	$0, 80(%rax)
	je	.LBB34_24
# BB#22:                                # %land.lhs.true.93
	movq	-8(%rbp), %rax
	movq	384(%rax), %rax
	movq	80(%rax), %rdi
	callq	gtk_widget_get_window
	cmpq	$0, %rax
	je	.LBB34_24
# BB#23:                                # %cond.true.99
	movq	-8(%rbp), %rax
	movq	384(%rax), %rax
	movq	80(%rax), %rdi
	callq	gtk_widget_get_window
	movq	%rax, %rdi
	callq	gdk_x11_drawable_get_xid
	movq	%rax, -184(%rbp)        # 8-byte Spill
	jmp	.LBB34_25
.LBB34_24:                              # %cond.false.105
	xorl	%eax, %eax
	movl	%eax, %ecx
	movq	%rcx, -184(%rbp)        # 8-byte Spill
	jmp	.LBB34_25
.LBB34_25:                              # %cond.end.106
	movq	-184(%rbp), %rax        # 8-byte Reload
	movq	%rax, -192(%rbp)        # 8-byte Spill
	jmp	.LBB34_27
.LBB34_26:                              # %cond.false.108
	movq	-8(%rbp), %rax
	movq	384(%rax), %rax
	movq	56(%rax), %rax
	movq	%rax, -192(%rbp)        # 8-byte Spill
.LBB34_27:                              # %cond.end.112
	movq	-192(%rbp), %rax        # 8-byte Reload
	movl	-24(%rbp), %edx
	movl	-36(%rbp), %ecx
	movq	-176(%rbp), %rdi        # 8-byte Reload
	movq	%rax, %rsi
	callq	XResizeWindow
	movl	%eax, -196(%rbp)        # 4-byte Spill
	jmp	.LBB34_36
.LBB34_28:                              # %if.else.115
	movl	$1061, %edi             # imm = 0x425
	movq	-8(%rbp), %rax
	movq	%rax, -208(%rbp)        # 8-byte Spill
	callq	builtin_lisp_symbol
	movl	-16(%rbp), %edx
	movl	-20(%rbp), %ecx
	movl	-24(%rbp), %edi
	movq	-8(%rbp), %rsi
	movq	384(%rsi), %rsi
	movl	12(%rsi), %r8d
	movq	-8(%rbp), %rsi
	movq	384(%rsi), %rsi
	addl	16(%rsi), %r8d
	addl	%r8d, %edi
	movslq	%edi, %rsi
	shlq	$2, %rsi
	addq	$2, %rsi
	movl	-28(%rbp), %edi
	movq	-8(%rbp), %r9
	movq	384(%r9), %r9
	movl	4(%r9), %r8d
	movq	-8(%rbp), %r9
	movq	384(%r9), %r9
	addl	8(%r9), %r8d
	addl	%r8d, %edi
	movq	-8(%rbp), %r9
	movq	384(%r9), %r9
	addl	(%r9), %edi
	movslq	%edi, %r9
	shlq	$2, %r9
	addq	$2, %r9
	movq	-8(%rbp), %r10
	movq	384(%r10), %r10
	movslq	(%r10), %r10
	shlq	$2, %r10
	addq	$2, %r10
	movq	%rsi, %rdi
	movq	%r9, %rsi
	movl	%edx, -212(%rbp)        # 4-byte Spill
	movq	%r10, %rdx
	movq	%rax, -224(%rbp)        # 8-byte Spill
	movl	%ecx, -228(%rbp)        # 4-byte Spill
	callq	list3
	movq	-208(%rbp), %rdi        # 8-byte Reload
	movq	-224(%rbp), %rsi        # 8-byte Reload
	movl	-212(%rbp), %edx        # 4-byte Reload
	movl	-228(%rbp), %ecx        # 4-byte Reload
	movq	%rax, %r8
	callq	frame_size_history_add
	movq	-8(%rbp), %rax
	movq	384(%rax), %rax
	movq	424(%rax), %rax
	movq	16(%rax), %rdi
	movq	-8(%rbp), %rax
	movq	384(%rax), %rax
	cmpq	$0, 80(%rax)
	movq	%rdi, -240(%rbp)        # 8-byte Spill
	je	.LBB34_34
# BB#29:                                # %cond.true.154
	movq	-8(%rbp), %rax
	movq	384(%rax), %rax
	cmpq	$0, 80(%rax)
	je	.LBB34_32
# BB#30:                                # %land.lhs.true.159
	movq	-8(%rbp), %rax
	movq	384(%rax), %rax
	movq	80(%rax), %rdi
	callq	gtk_widget_get_window
	cmpq	$0, %rax
	je	.LBB34_32
# BB#31:                                # %cond.true.165
	movq	-8(%rbp), %rax
	movq	384(%rax), %rax
	movq	80(%rax), %rdi
	callq	gtk_widget_get_window
	movq	%rax, %rdi
	callq	gdk_x11_drawable_get_xid
	movq	%rax, -248(%rbp)        # 8-byte Spill
	jmp	.LBB34_33
.LBB34_32:                              # %cond.false.171
	xorl	%eax, %eax
	movl	%eax, %ecx
	movq	%rcx, -248(%rbp)        # 8-byte Spill
	jmp	.LBB34_33
.LBB34_33:                              # %cond.end.172
	movq	-248(%rbp), %rax        # 8-byte Reload
	movq	%rax, -256(%rbp)        # 8-byte Spill
	jmp	.LBB34_35
.LBB34_34:                              # %cond.false.174
	movq	-8(%rbp), %rax
	movq	384(%rax), %rax
	movq	56(%rax), %rax
	movq	%rax, -256(%rbp)        # 8-byte Spill
.LBB34_35:                              # %cond.end.178
	movq	-256(%rbp), %rax        # 8-byte Reload
	movl	-24(%rbp), %edx
	movl	-28(%rbp), %ecx
	movq	-8(%rbp), %rsi
	movq	384(%rsi), %rsi
	addl	(%rsi), %ecx
	movq	-240(%rbp), %rdi        # 8-byte Reload
	movq	%rax, %rsi
	callq	XResizeWindow
	xorl	%edi, %edi
	movl	%eax, -260(%rbp)        # 4-byte Spill
	callq	builtin_lisp_symbol
	movq	%rax, -48(%rbp)
.LBB34_36:                              # %if.end.186
	jmp	.LBB34_37
.LBB34_37:                              # %if.end.187
	movb	$1, frame_garbaged
	movq	-8(%rbp), %rdi
	callq	fset_redisplay
	movq	-8(%rbp), %rdi
	movq	208(%rdi), %rax
	andq	$-8193, %rax            # imm = 0xFFFFFFFFFFFFDFFF
	orq	$8192, %rax             # imm = 0x2000
	movq	%rax, 208(%rdi)
	movq	-8(%rbp), %rax
	movq	208(%rax), %rax
	shrq	$10, %rax
	andq	$3, %rax
	movl	%eax, %ecx
	cmpl	$0, %ecx
	je	.LBB34_41
# BB#38:                                # %if.then.195
	movl	$22, %esi
	movq	-8(%rbp), %rdi
	callq	x_wait_for_event
	xorl	%edi, %edi
	movq	-48(%rbp), %rax
	movq	%rax, -272(%rbp)        # 8-byte Spill
	callq	builtin_lisp_symbol
	movq	-272(%rbp), %rcx        # 8-byte Reload
	cmpq	%rax, %rcx
	je	.LBB34_40
# BB#39:                                # %if.then.199
	movl	$472, %edi              # imm = 0x1D8
	movq	-8(%rbp), %rax
	movq	%rax, -280(%rbp)        # 8-byte Spill
	callq	builtin_lisp_symbol
	movq	-48(%rbp), %rdx
	movq	-280(%rbp), %rdi        # 8-byte Reload
	movq	%rax, %rsi
	callq	store_frame_param
	movq	-8(%rbp), %rdi
	movq	-48(%rbp), %rsi
	movq	-48(%rbp), %rdx
	callq	x_set_fullscreen
.LBB34_40:                              # %if.end.201
	jmp	.LBB34_42
.LBB34_41:                              # %if.else.202
	xorl	%eax, %eax
	movl	$1, %r8d
	movq	-8(%rbp), %rdi
	movl	-16(%rbp), %esi
	movl	-20(%rbp), %edx
	movl	%eax, %ecx
	movl	%eax, %r9d
	movl	$1, (%rsp)
	callq	change_frame_size
	movq	-8(%rbp), %rdi
	callq	x_sync
.LBB34_42:                              # %if.end.203
	addq	$288, %rsp              # imm = 0x120
	popq	%rbp
	retq
.Lfunc_end34:
	.size	x_set_window_size_1, .Lfunc_end34-x_set_window_size_1
	.cfi_endproc

	.globl	frame_set_mouse_pixel_position
	.align	16, 0x90
	.type	frame_set_mouse_pixel_position,@function
frame_set_mouse_pixel_position:         # @frame_set_mouse_pixel_position
	.cfi_startproc
# BB#0:                                 # %entry
	pushq	%rbp
.Ltmp113:
	.cfi_def_cfa_offset 16
.Ltmp114:
	.cfi_offset %rbp, -16
	movq	%rsp, %rbp
.Ltmp115:
	.cfi_def_cfa_register %rbp
	subq	$64, %rsp
	movq	%rdi, -8(%rbp)
	movl	%esi, -12(%rbp)
	movl	%edx, -16(%rbp)
	callq	block_input
	xorl	%edx, %edx
	movl	%edx, %esi
	xorl	%edx, %edx
	movq	-8(%rbp), %rdi
	movq	384(%rdi), %rdi
	movq	424(%rdi), %rdi
	movq	16(%rdi), %rdi
	movq	-8(%rbp), %rax
	movq	384(%rax), %rax
	movq	56(%rax), %rax
	movl	-12(%rbp), %ecx
	movl	-16(%rbp), %r8d
	movl	%edx, -20(%rbp)         # 4-byte Spill
	movq	%rax, %rdx
	movl	-20(%rbp), %r9d         # 4-byte Reload
	movl	%ecx, -24(%rbp)         # 4-byte Spill
	movl	%r9d, %ecx
	movl	%r8d, -28(%rbp)         # 4-byte Spill
	movl	%r9d, %r8d
	movl	$0, (%rsp)
	movl	-24(%rbp), %r10d        # 4-byte Reload
	movl	%r10d, 8(%rsp)
	movl	-28(%rbp), %r10d        # 4-byte Reload
	movl	%r10d, 16(%rsp)
	callq	XWarpPointer
	movl	%eax, -32(%rbp)         # 4-byte Spill
	callq	unblock_input
	addq	$64, %rsp
	popq	%rbp
	retq
.Lfunc_end35:
	.size	frame_set_mouse_pixel_position, .Lfunc_end35-frame_set_mouse_pixel_position
	.cfi_endproc

	.globl	xembed_request_focus
	.align	16, 0x90
	.type	xembed_request_focus,@function
xembed_request_focus:                   # @xembed_request_focus
	.cfi_startproc
# BB#0:                                 # %entry
	pushq	%rbp
.Ltmp116:
	.cfi_def_cfa_offset 16
.Ltmp117:
	.cfi_offset %rbp, -16
	movq	%rsp, %rbp
.Ltmp118:
	.cfi_def_cfa_register %rbp
	subq	$16, %rsp
	movq	%rdi, -8(%rbp)
	movq	-8(%rbp), %rdi
	movq	208(%rdi), %rdi
	shrq	$10, %rdi
	andq	$3, %rdi
	movl	%edi, %eax
	cmpl	$0, %eax
	je	.LBB36_2
# BB#1:                                 # %if.then
	xorl	%eax, %eax
	movl	%eax, %ecx
	movl	$3, %edx
	movq	-8(%rbp), %rdi
	movq	%rcx, %rsi
	movq	%rcx, -16(%rbp)         # 8-byte Spill
	movq	-16(%rbp), %r8          # 8-byte Reload
	movq	-16(%rbp), %r9          # 8-byte Reload
	callq	xembed_send_message
.LBB36_2:                               # %if.end
	addq	$16, %rsp
	popq	%rbp
	retq
.Lfunc_end36:
	.size	xembed_request_focus, .Lfunc_end36-xembed_request_focus
	.cfi_endproc

	.align	16, 0x90
	.type	xembed_send_message,@function
xembed_send_message:                    # @xembed_send_message
	.cfi_startproc
# BB#0:                                 # %entry
	pushq	%rbp
.Ltmp119:
	.cfi_def_cfa_offset 16
.Ltmp120:
	.cfi_offset %rbp, -16
	movq	%rsp, %rbp
.Ltmp121:
	.cfi_def_cfa_register %rbp
	pushq	%rbx
	subq	$248, %rsp
.Ltmp122:
	.cfi_offset %rbx, -24
	xorl	%eax, %eax
	xorl	%r10d, %r10d
	movl	%r10d, %r11d
	leaq	-248(%rbp), %rbx
	movq	%rdi, -16(%rbp)
	movq	%rsi, -24(%rbp)
	movl	%edx, -28(%rbp)
	movq	%rcx, -40(%rbp)
	movq	%r8, -48(%rbp)
	movq	%r9, -56(%rbp)
	movl	$33, -248(%rbp)
	movq	-16(%rbp), %rcx
	movq	384(%rcx), %rcx
	movq	72(%rcx), %rcx
	movq	%rcx, -216(%rbp)
	movq	-16(%rbp), %rcx
	movq	384(%rcx), %rcx
	movq	424(%rcx), %rcx
	movq	584(%rcx), %rcx
	movq	%rcx, -208(%rbp)
	movl	$32, -200(%rbp)
	movq	-24(%rbp), %rcx
	movq	%rcx, -192(%rbp)
	movl	-28(%rbp), %edx
	movl	%edx, %ecx
	movq	%rcx, -184(%rbp)
	movq	-40(%rbp), %rcx
	movq	%rcx, -176(%rbp)
	movq	-48(%rbp), %rcx
	movq	%rcx, -168(%rbp)
	movq	-56(%rbp), %rcx
	movq	%rcx, -160(%rbp)
	movq	-16(%rbp), %rcx
	movq	384(%rcx), %rcx
	movq	424(%rcx), %rcx
	movq	16(%rcx), %rdi
	movq	-16(%rbp), %rcx
	movq	384(%rcx), %rcx
	movq	72(%rcx), %rsi
	movl	%eax, %edx
	movq	%r11, %rcx
	movq	%rbx, %r8
	callq	XSendEvent
	movl	%eax, -252(%rbp)        # 4-byte Spill
# BB#1:                                 # %do.body
	callq	gdk_window_process_all_updates
	xorl	%esi, %esi
	movq	-16(%rbp), %rax
	movq	384(%rax), %rax
	movq	424(%rax), %rax
	movq	16(%rax), %rdi
	callq	XSync
	movl	%eax, -256(%rbp)        # 4-byte Spill
# BB#2:                                 # %do.end
	addq	$248, %rsp
	popq	%rbx
	popq	%rbp
	retq
.Lfunc_end37:
	.size	xembed_send_message, .Lfunc_end37-xembed_send_message
	.cfi_endproc

	.globl	x_ewmh_activate_frame
	.align	16, 0x90
	.type	x_ewmh_activate_frame,@function
x_ewmh_activate_frame:                  # @x_ewmh_activate_frame
	.cfi_startproc
# BB#0:                                 # %entry
	pushq	%rbp
.Ltmp123:
	.cfi_def_cfa_offset 16
.Ltmp124:
	.cfi_offset %rbp, -16
	movq	%rsp, %rbp
.Ltmp125:
	.cfi_def_cfa_register %rbp
	subq	$48, %rsp
	movq	%rdi, -8(%rbp)
	movq	-8(%rbp), %rdi
	movq	384(%rdi), %rdi
	movq	424(%rdi), %rdi
	movq	%rdi, -16(%rbp)
	movq	-8(%rbp), %rdi
	movq	208(%rdi), %rdi
	shrq	$10, %rdi
	andq	$3, %rdi
	movl	%edi, %eax
	cmpl	$0, %eax
	je	.LBB38_3
# BB#1:                                 # %land.lhs.true
	movq	-8(%rbp), %rdi
	movq	-16(%rbp), %rax
	movq	856(%rax), %rsi
	callq	x_wm_supports
	testb	$1, %al
	jne	.LBB38_2
	jmp	.LBB38_3
.LBB38_2:                               # %if.then
	movl	$5, %esi
	movq	-8(%rbp), %rax
	movq	%rax, %rdi
	callq	make_lisp_ptr
	movl	$1, %esi
	movl	%esi, %edi
	movq	%rax, -24(%rbp)
	movq	-24(%rbp), %rax
	movq	-24(%rbp), %rdx
	movq	-16(%rbp), %rcx
	movq	856(%rcx), %rcx
	movq	-16(%rbp), %r8
	movq	664(%r8), %rsi
	movq	%rcx, -32(%rbp)         # 8-byte Spill
	movq	%rax, -40(%rbp)         # 8-byte Spill
	movq	%rdx, -48(%rbp)         # 8-byte Spill
	callq	list2i
	movl	$2, %r9d
	movl	%r9d, %esi
	movl	$130, %r9d
	movl	%r9d, %r8d
	movq	-40(%rbp), %rdi         # 8-byte Reload
	movq	-48(%rbp), %rdx         # 8-byte Reload
	movq	-32(%rbp), %rcx         # 8-byte Reload
	movq	%rax, %r9
	callq	x_send_client_event
.LBB38_3:                               # %if.end
	addq	$48, %rsp
	popq	%rbp
	retq
.Lfunc_end38:
	.size	x_ewmh_activate_frame, .Lfunc_end38-x_ewmh_activate_frame
	.cfi_endproc

	.globl	x_make_frame_visible
	.align	16, 0x90
	.type	x_make_frame_visible,@function
x_make_frame_visible:                   # @x_make_frame_visible
	.cfi_startproc
# BB#0:                                 # %entry
	pushq	%rbp
.Ltmp126:
	.cfi_def_cfa_offset 16
.Ltmp127:
	.cfi_offset %rbp, -16
	movq	%rsp, %rbp
.Ltmp128:
	.cfi_def_cfa_register %rbp
	pushq	%r14
	pushq	%rbx
	subq	$400, %rsp              # imm = 0x190
.Ltmp129:
	.cfi_offset %rbx, -32
.Ltmp130:
	.cfi_offset %r14, -24
	movq	%rdi, -24(%rbp)
	movl	$0, -36(%rbp)
	callq	block_input
	movq	-24(%rbp), %rdi
	callq	x_set_bitmap_icon
	movq	-24(%rbp), %rdi
	movq	208(%rdi), %rdi
	shrq	$10, %rdi
	andq	$3, %rdi
	movl	%edi, %eax
	cmpl	$0, %eax
	jne	.LBB39_8
# BB#1:                                 # %if.then
	movq	-24(%rbp), %rax
	movq	208(%rax), %rax
	shrq	$12, %rax
	andq	$1, %rax
	testq	$1, %rax
	jne	.LBB39_5
# BB#2:                                 # %land.lhs.true
	movq	-24(%rbp), %rax
	movq	384(%rax), %rax
	movb	440(%rax), %cl
	shrb	$1, %cl
	andb	$1, %cl
	andb	$1, %cl
	movzbl	%cl, %edx
	cmpl	$0, %edx
	jne	.LBB39_5
# BB#3:                                 # %land.lhs.true.10
	movq	-24(%rbp), %rax
	movq	384(%rax), %rax
	movb	440(%rax), %cl
	shrb	$2, %cl
	andb	$1, %cl
	testb	$1, %cl
	jne	.LBB39_5
# BB#4:                                 # %if.then.17
	xorl	%ecx, %ecx
	movq	-24(%rbp), %rdi
	movq	-24(%rbp), %rax
	movl	304(%rax), %esi
	movq	-24(%rbp), %rax
	movl	308(%rax), %edx
	callq	x_set_offset
.LBB39_5:                               # %if.end
	movl	$901, %edi              # imm = 0x385
	movq	-24(%rbp), %rax
	movq	384(%rax), %rax
	movb	440(%rax), %cl
	andb	$-5, %cl
	orb	$4, %cl
	movb	%cl, 440(%rax)
	movq	globals+2816, %rax
	movq	%rax, -296(%rbp)        # 8-byte Spill
	callq	builtin_lisp_symbol
	movq	-296(%rbp), %rdx        # 8-byte Reload
	cmpq	%rax, %rdx
	je	.LBB39_7
# BB#6:                                 # %if.then.25
	movl	$1, %esi
	movq	-24(%rbp), %rdi
	callq	x_wm_set_window_state
.LBB39_7:                               # %if.end.26
	movq	-24(%rbp), %rax
	movq	384(%rax), %rax
	movq	80(%rax), %rdi
	callq	gtk_widget_show_all
	movq	-24(%rbp), %rax
	movq	384(%rax), %rax
	movq	80(%rax), %rax
	movq	%rax, -304(%rbp)        # 8-byte Spill
	callq	gtk_window_get_type
	movq	-304(%rbp), %rdi        # 8-byte Reload
	movq	%rax, %rsi
	callq	g_type_check_instance_cast
	movq	%rax, %rdi
	callq	gtk_window_deiconify
.LBB39_8:                               # %if.end.34
	movq	-24(%rbp), %rax
	movq	384(%rax), %rax
	movb	440(%rax), %cl
	shrb	$3, %cl
	andb	$1, %cl
	andb	$1, %cl
	movb	%cl, -49(%rbp)
	movq	-24(%rbp), %rax
	movl	304(%rax), %edx
	movl	%edx, -32(%rbp)
	movq	-24(%rbp), %rax
	movl	308(%rax), %edx
	movl	%edx, -28(%rbp)
	callq	unblock_input
	movq	-24(%rbp), %rax
	movq	208(%rax), %rax
	shrq	$10, %rax
	andq	$3, %rax
	movl	%eax, %edx
	cmpl	$0, %edx
	jne	.LBB39_31
# BB#9:                                 # %land.lhs.true.49
	movq	-24(%rbp), %rax
	movq	208(%rax), %rax
	shrq	$12, %rax
	andq	$1, %rax
	testq	$1, %rax
	jne	.LBB39_31
# BB#10:                                # %land.lhs.true.55
	movq	-24(%rbp), %rax
	movq	384(%rax), %rax
	movb	440(%rax), %cl
	shrb	$1, %cl
	andb	$1, %cl
	andb	$1, %cl
	movzbl	%cl, %edx
	cmpl	$0, %edx
	jne	.LBB39_31
# BB#11:                                # %land.lhs.true.66
	movq	-24(%rbp), %rax
	cmpl	$1, 320(%rax)
	jne	.LBB39_31
# BB#12:                                # %land.lhs.true.69
	testb	$1, -49(%rbp)
	je	.LBB39_31
# BB#13:                                # %if.then.72
	callq	block_input
	movq	-24(%rbp), %rax
	movq	384(%rax), %rax
	movq	424(%rax), %rax
	movq	16(%rax), %rdi
	movq	-24(%rbp), %rax
	movq	384(%rax), %rax
	cmpq	$0, 80(%rax)
	movq	%rdi, -312(%rbp)        # 8-byte Spill
	je	.LBB39_19
# BB#14:                                # %cond.true
	movq	-24(%rbp), %rax
	movq	384(%rax), %rax
	cmpq	$0, 80(%rax)
	je	.LBB39_17
# BB#15:                                # %land.lhs.true.84
	movq	-24(%rbp), %rax
	movq	384(%rax), %rax
	movq	80(%rax), %rdi
	callq	gtk_widget_get_window
	cmpq	$0, %rax
	je	.LBB39_17
# BB#16:                                # %cond.true.90
	movq	-24(%rbp), %rax
	movq	384(%rax), %rax
	movq	80(%rax), %rdi
	callq	gtk_widget_get_window
	movq	%rax, %rdi
	callq	gdk_x11_drawable_get_xid
	movq	%rax, -320(%rbp)        # 8-byte Spill
	jmp	.LBB39_18
.LBB39_17:                              # %cond.false
	xorl	%eax, %eax
	movl	%eax, %ecx
	movq	%rcx, -320(%rbp)        # 8-byte Spill
	jmp	.LBB39_18
.LBB39_18:                              # %cond.end
	movq	-320(%rbp), %rax        # 8-byte Reload
	movq	%rax, -328(%rbp)        # 8-byte Spill
	jmp	.LBB39_20
.LBB39_19:                              # %cond.false.96
	movq	-24(%rbp), %rax
	movq	384(%rax), %rax
	movq	56(%rax), %rax
	movq	%rax, -328(%rbp)        # 8-byte Spill
.LBB39_20:                              # %cond.end.99
	movq	-328(%rbp), %rax        # 8-byte Reload
	leaq	-64(%rbp), %rdx
	leaq	-68(%rbp), %rcx
	leaq	-72(%rbp), %r8
	leaq	-76(%rbp), %r9
	leaq	-80(%rbp), %rsi
	leaq	-84(%rbp), %rdi
	leaq	-88(%rbp), %r10
	movq	-312(%rbp), %r11        # 8-byte Reload
	movq	%rdi, -336(%rbp)        # 8-byte Spill
	movq	%r11, %rdi
	movq	%rsi, -344(%rbp)        # 8-byte Spill
	movq	%rax, %rsi
	movq	-344(%rbp), %rax        # 8-byte Reload
	movq	%rax, (%rsp)
	movq	-336(%rbp), %rbx        # 8-byte Reload
	movq	%rbx, 8(%rsp)
	movq	%r10, 16(%rsp)
	callq	XGetGeometry
	movl	-32(%rbp), %r14d
	cmpl	-68(%rbp), %r14d
	movl	%eax, -348(%rbp)        # 4-byte Spill
	jne	.LBB39_22
# BB#21:                                # %lor.lhs.false
	movl	-28(%rbp), %eax
	cmpl	-72(%rbp), %eax
	je	.LBB39_30
.LBB39_22:                              # %if.then.106
	movq	-24(%rbp), %rax
	movq	384(%rax), %rax
	movq	424(%rax), %rax
	movq	16(%rax), %rdi
	movq	-24(%rbp), %rax
	movq	384(%rax), %rax
	cmpq	$0, 80(%rax)
	movq	%rdi, -360(%rbp)        # 8-byte Spill
	je	.LBB39_28
# BB#23:                                # %cond.true.115
	movq	-24(%rbp), %rax
	movq	384(%rax), %rax
	cmpq	$0, 80(%rax)
	je	.LBB39_26
# BB#24:                                # %land.lhs.true.120
	movq	-24(%rbp), %rax
	movq	384(%rax), %rax
	movq	80(%rax), %rdi
	callq	gtk_widget_get_window
	cmpq	$0, %rax
	je	.LBB39_26
# BB#25:                                # %cond.true.126
	movq	-24(%rbp), %rax
	movq	384(%rax), %rax
	movq	80(%rax), %rdi
	callq	gtk_widget_get_window
	movq	%rax, %rdi
	callq	gdk_x11_drawable_get_xid
	movq	%rax, -368(%rbp)        # 8-byte Spill
	jmp	.LBB39_27
.LBB39_26:                              # %cond.false.132
	xorl	%eax, %eax
	movl	%eax, %ecx
	movq	%rcx, -368(%rbp)        # 8-byte Spill
	jmp	.LBB39_27
.LBB39_27:                              # %cond.end.133
	movq	-368(%rbp), %rax        # 8-byte Reload
	movq	%rax, -376(%rbp)        # 8-byte Spill
	jmp	.LBB39_29
.LBB39_28:                              # %cond.false.135
	movq	-24(%rbp), %rax
	movq	384(%rax), %rax
	movq	56(%rax), %rax
	movq	%rax, -376(%rbp)        # 8-byte Spill
.LBB39_29:                              # %cond.end.139
	movq	-376(%rbp), %rax        # 8-byte Reload
	movl	-32(%rbp), %edx
	movl	-28(%rbp), %ecx
	movq	-360(%rbp), %rdi        # 8-byte Reload
	movq	%rax, %rsi
	callq	XMoveWindow
	movl	%eax, -380(%rbp)        # 4-byte Spill
.LBB39_30:                              # %if.end.142
	callq	unblock_input
.LBB39_31:                              # %if.end.143
	movl	$5, %esi
	movq	-24(%rbp), %rax
	movq	%rax, %rdi
	callq	make_lisp_ptr
	movq	%rax, -48(%rbp)
.LBB39_32:                              # %while.cond
                                        # =>This Inner Loop Header: Depth=1
	movq	-24(%rbp), %rax
	movq	208(%rax), %rax
	shrq	$10, %rax
	andq	$3, %rax
	movl	%eax, %ecx
	cmpl	$0, %ecx
	setne	%dl
	xorb	$-1, %dl
	testb	$1, %dl
	jne	.LBB39_33
	jmp	.LBB39_41
.LBB39_33:                              # %while.body
                                        #   in Loop: Header=BB39_32 Depth=1
	movq	-24(%rbp), %rdi
	callq	x_sync
	movq	-24(%rbp), %rdi
	movq	208(%rdi), %rdi
	shrq	$12, %rdi
	andq	$1, %rdi
	testq	$1, %rdi
	je	.LBB39_36
# BB#34:                                # %land.lhs.true.157
                                        #   in Loop: Header=BB39_32 Depth=1
	movl	-36(%rbp), %eax
	addl	$1, %eax
	movl	%eax, -36(%rbp)
	cmpl	$100, %eax
	jle	.LBB39_36
# BB#35:                                # %if.then.160
	jmp	.LBB39_41
.LBB39_36:                              # %if.end.161
                                        #   in Loop: Header=BB39_32 Depth=1
	callq	input_polling_used
	testb	$1, %al
	jne	.LBB39_37
	jmp	.LBB39_38
.LBB39_37:                              # %if.then.163
                                        #   in Loop: Header=BB39_32 Depth=1
	movl	poll_suppress_count, %eax
	movl	%eax, -92(%rbp)
	movl	$1, poll_suppress_count
	callq	poll_for_input_1
	movl	-92(%rbp), %eax
	movl	%eax, poll_suppress_count
.LBB39_38:                              # %if.end.164
                                        #   in Loop: Header=BB39_32 Depth=1
	movq	-24(%rbp), %rax
	movq	384(%rax), %rax
	movq	424(%rax), %rax
	movq	16(%rax), %rdi
	callq	XPending
	cmpl	$0, %eax
	je	.LBB39_40
# BB#39:                                # %if.then.171
                                        #   in Loop: Header=BB39_32 Depth=1
	leaq	-288(%rbp), %rsi
	movq	-24(%rbp), %rax
	movq	384(%rax), %rax
	movq	424(%rax), %rax
	movq	16(%rax), %rdi
	callq	XNextEvent
	leaq	-288(%rbp), %rdi
	movq	-24(%rbp), %rsi
	movq	384(%rsi), %rsi
	movq	424(%rsi), %rsi
	movq	16(%rsi), %rsi
	movl	%eax, -384(%rbp)        # 4-byte Spill
	callq	x_dispatch_event
	movl	%eax, -388(%rbp)        # 4-byte Spill
.LBB39_40:                              # %if.end.182
                                        #   in Loop: Header=BB39_32 Depth=1
	jmp	.LBB39_32
.LBB39_41:                              # %while.end
	addq	$400, %rsp              # imm = 0x190
	popq	%rbx
	popq	%r14
	popq	%rbp
	retq
.Lfunc_end39:
	.size	x_make_frame_visible, .Lfunc_end39-x_make_frame_visible
	.cfi_endproc

	.align	16, 0x90
	.type	x_wm_set_window_state,@function
x_wm_set_window_state:                  # @x_wm_set_window_state
	.cfi_startproc
# BB#0:                                 # %entry
	pushq	%rbp
.Ltmp131:
	.cfi_def_cfa_offset 16
.Ltmp132:
	.cfi_offset %rbp, -16
	movq	%rsp, %rbp
.Ltmp133:
	.cfi_def_cfa_register %rbp
	subq	$32, %rsp
	movq	%rdi, -8(%rbp)
	movl	%esi, -12(%rbp)
	movq	-8(%rbp), %rdi
	movq	384(%rdi), %rdi
	movq	56(%rdi), %rdi
	movq	%rdi, -24(%rbp)
	movq	-8(%rbp), %rdi
	movq	384(%rdi), %rdi
	movq	368(%rdi), %rax
	orq	$2, %rax
	movq	%rax, 368(%rdi)
	movl	-12(%rbp), %esi
	movq	-8(%rbp), %rax
	movq	384(%rax), %rax
	movl	%esi, 380(%rax)
	movq	-8(%rbp), %rax
	movq	384(%rax), %rax
	movq	424(%rax), %rax
	movq	16(%rax), %rdi
	movq	-24(%rbp), %rsi
	movq	-8(%rbp), %rax
	movq	384(%rax), %rax
	addq	$368, %rax              # imm = 0x170
	movq	%rax, %rdx
	callq	XSetWMHints
	movl	%eax, -28(%rbp)         # 4-byte Spill
	addq	$32, %rsp
	popq	%rbp
	retq
.Lfunc_end40:
	.size	x_wm_set_window_state, .Lfunc_end40-x_wm_set_window_state
	.cfi_endproc

	.align	16, 0x90
	.type	x_dispatch_event,@function
x_dispatch_event:                       # @x_dispatch_event
	.cfi_startproc
# BB#0:                                 # %entry
	pushq	%rbp
.Ltmp134:
	.cfi_def_cfa_offset 16
.Ltmp135:
	.cfi_offset %rbp, -16
	movq	%rsp, %rbp
.Ltmp136:
	.cfi_def_cfa_register %rbp
	subq	$32, %rsp
	movq	%rdi, -8(%rbp)
	movq	%rsi, -16(%rbp)
	movl	$0, -28(%rbp)
	movq	-16(%rbp), %rdi
	callq	x_display_info_for_display
	movq	%rax, -24(%rbp)
	cmpq	$0, -24(%rbp)
	je	.LBB41_2
# BB#1:                                 # %if.then
	leaq	-28(%rbp), %rdx
	xorl	%eax, %eax
	movl	%eax, %ecx
	movq	-24(%rbp), %rdi
	movq	-8(%rbp), %rsi
	callq	handle_one_xevent
	movl	%eax, -32(%rbp)         # 4-byte Spill
.LBB41_2:                               # %if.end
	movl	-28(%rbp), %eax
	addq	$32, %rsp
	popq	%rbp
	retq
.Lfunc_end41:
	.size	x_dispatch_event, .Lfunc_end41-x_dispatch_event
	.cfi_endproc

	.globl	x_make_frame_invisible
	.align	16, 0x90
	.type	x_make_frame_invisible,@function
x_make_frame_invisible:                 # @x_make_frame_invisible
	.cfi_startproc
# BB#0:                                 # %entry
	pushq	%rbp
.Ltmp137:
	.cfi_def_cfa_offset 16
.Ltmp138:
	.cfi_offset %rbp, -16
	movq	%rsp, %rbp
.Ltmp139:
	.cfi_def_cfa_register %rbp
	subq	$32, %rsp
	movq	%rdi, -8(%rbp)
	movq	-8(%rbp), %rdi
	movq	384(%rdi), %rdi
	cmpq	$0, 80(%rdi)
	je	.LBB42_6
# BB#1:                                 # %cond.true
	movq	-8(%rbp), %rax
	movq	384(%rax), %rax
	cmpq	$0, 80(%rax)
	je	.LBB42_4
# BB#2:                                 # %land.lhs.true
	movq	-8(%rbp), %rax
	movq	384(%rax), %rax
	movq	80(%rax), %rdi
	callq	gtk_widget_get_window
	cmpq	$0, %rax
	je	.LBB42_4
# BB#3:                                 # %cond.true.9
	movq	-8(%rbp), %rax
	movq	384(%rax), %rax
	movq	80(%rax), %rdi
	callq	gtk_widget_get_window
	movq	%rax, %rdi
	callq	gdk_x11_drawable_get_xid
	movq	%rax, -24(%rbp)         # 8-byte Spill
	jmp	.LBB42_5
.LBB42_4:                               # %cond.false
	xorl	%eax, %eax
	movl	%eax, %ecx
	movq	%rcx, -24(%rbp)         # 8-byte Spill
	jmp	.LBB42_5
.LBB42_5:                               # %cond.end
	movq	-24(%rbp), %rax         # 8-byte Reload
	movq	%rax, -32(%rbp)         # 8-byte Spill
	jmp	.LBB42_7
.LBB42_6:                               # %cond.false.15
	movq	-8(%rbp), %rax
	movq	384(%rax), %rax
	movq	56(%rax), %rax
	movq	%rax, -32(%rbp)         # 8-byte Spill
.LBB42_7:                               # %cond.end.18
	movq	-32(%rbp), %rax         # 8-byte Reload
	movq	%rax, -16(%rbp)
	movq	-8(%rbp), %rax
	movq	384(%rax), %rax
	movq	424(%rax), %rax
	movq	616(%rax), %rax
	cmpq	-8(%rbp), %rax
	jne	.LBB42_9
# BB#8:                                 # %if.then
	movq	-8(%rbp), %rax
	movq	384(%rax), %rax
	movq	424(%rax), %rax
	movq	$0, 616(%rax)
.LBB42_9:                               # %if.end
	callq	block_input
	xorl	%eax, %eax
	movl	%eax, %esi
	movl	$1, %edx
	movq	-8(%rbp), %rdi
	callq	x_wm_set_size_hint
	movq	-8(%rbp), %rsi
	movq	384(%rsi), %rsi
	cmpq	$0, 80(%rsi)
	je	.LBB42_11
# BB#10:                                # %if.then.30
	movq	-8(%rbp), %rax
	movq	384(%rax), %rax
	movq	80(%rax), %rdi
	callq	gtk_widget_hide
	jmp	.LBB42_14
.LBB42_11:                              # %if.else
	movq	-8(%rbp), %rax
	movq	384(%rax), %rax
	movq	424(%rax), %rax
	movq	16(%rax), %rdi
	movq	-16(%rbp), %rsi
	movq	-8(%rbp), %rax
	movq	384(%rax), %rax
	movq	424(%rax), %rax
	movq	16(%rax), %rax
	movl	224(%rax), %edx
	callq	XWithdrawWindow
	cmpl	$0, %eax
	jne	.LBB42_13
# BB#12:                                # %if.then.43
	callq	unblock_input
	movabsq	$.L.str, %rdi
	movb	$0, %al
	callq	error
.LBB42_13:                              # %if.end.44
	jmp	.LBB42_14
.LBB42_14:                              # %if.end.45
	xorl	%esi, %esi
	movq	-8(%rbp), %rdi
	callq	SET_FRAME_VISIBLE
	movq	-8(%rbp), %rdi
	movq	208(%rdi), %rax
	andq	$-4097, %rax            # imm = 0xFFFFFFFFFFFFEFFF
	movq	%rax, 208(%rdi)
	movq	-8(%rbp), %rdi
	callq	x_sync
	callq	unblock_input
	addq	$32, %rsp
	popq	%rbp
	retq
.Lfunc_end42:
	.size	x_make_frame_invisible, .Lfunc_end42-x_make_frame_invisible
	.cfi_endproc

	.globl	x_iconify_frame
	.align	16, 0x90
	.type	x_iconify_frame,@function
x_iconify_frame:                        # @x_iconify_frame
	.cfi_startproc
# BB#0:                                 # %entry
	pushq	%rbp
.Ltmp140:
	.cfi_def_cfa_offset 16
.Ltmp141:
	.cfi_offset %rbp, -16
	movq	%rsp, %rbp
.Ltmp142:
	.cfi_def_cfa_register %rbp
	subq	$224, %rsp
	movq	%rdi, -8(%rbp)
	movq	-8(%rbp), %rdi
	movq	384(%rdi), %rdi
	movq	424(%rdi), %rdi
	movq	616(%rdi), %rdi
	cmpq	-8(%rbp), %rdi
	jne	.LBB43_2
# BB#1:                                 # %if.then
	movq	-8(%rbp), %rax
	movq	384(%rax), %rax
	movq	424(%rax), %rax
	movq	$0, 616(%rax)
.LBB43_2:                               # %if.end
	movq	-8(%rbp), %rax
	movq	208(%rax), %rax
	shrq	$12, %rax
	andq	$1, %rax
	testq	$1, %rax
	je	.LBB43_4
# BB#3:                                 # %if.then.5
	jmp	.LBB43_17
.LBB43_4:                               # %if.end.6
	callq	block_input
	movq	-8(%rbp), %rdi
	callq	x_set_bitmap_icon
	movq	-8(%rbp), %rdi
	movq	384(%rdi), %rdi
	cmpq	$0, 80(%rdi)
	je	.LBB43_8
# BB#5:                                 # %if.then.9
	movq	-8(%rbp), %rax
	movq	208(%rax), %rax
	shrq	$10, %rax
	andq	$3, %rax
	movl	%eax, %ecx
	cmpl	$0, %ecx
	jne	.LBB43_7
# BB#6:                                 # %if.then.15
	movq	-8(%rbp), %rax
	movq	384(%rax), %rax
	movq	80(%rax), %rdi
	callq	gtk_widget_show_all
.LBB43_7:                               # %if.end.19
	movq	-8(%rbp), %rax
	movq	384(%rax), %rax
	movq	80(%rax), %rax
	movq	%rax, -208(%rbp)        # 8-byte Spill
	callq	gtk_window_get_type
	movq	-208(%rbp), %rdi        # 8-byte Reload
	movq	%rax, %rsi
	callq	g_type_check_instance_cast
	movq	%rax, %rdi
	callq	gtk_window_iconify
	xorl	%esi, %esi
	movq	-8(%rbp), %rdi
	callq	SET_FRAME_VISIBLE
	movq	-8(%rbp), %rax
	movq	208(%rax), %rdi
	andq	$-4097, %rdi            # imm = 0xFFFFFFFFFFFFEFFF
	orq	$4096, %rdi             # imm = 0x1000
	movq	%rdi, 208(%rax)
	callq	unblock_input
	jmp	.LBB43_17
.LBB43_8:                               # %if.end.27
	movq	-8(%rbp), %rax
	movq	208(%rax), %rax
	shrq	$10, %rax
	andq	$3, %rax
	movl	%eax, %ecx
	cmpl	$0, %ecx
	jne	.LBB43_12
# BB#9:                                 # %land.lhs.true
	movq	-8(%rbp), %rax
	movq	208(%rax), %rax
	shrq	$12, %rax
	andq	$1, %rax
	testq	$1, %rax
	jne	.LBB43_12
# BB#10:                                # %land.lhs.true.39
	movq	-8(%rbp), %rax
	movq	384(%rax), %rax
	movb	440(%rax), %cl
	shrb	$1, %cl
	andb	$1, %cl
	andb	$1, %cl
	movzbl	%cl, %edx
	cmpl	$0, %edx
	jne	.LBB43_12
# BB#11:                                # %if.then.48
	xorl	%ecx, %ecx
	movq	-8(%rbp), %rdi
	movq	-8(%rbp), %rax
	movl	304(%rax), %esi
	movq	-8(%rbp), %rax
	movl	308(%rax), %edx
	callq	x_set_offset
.LBB43_12:                              # %if.end.49
	xorl	%edx, %edx
	movl	$1572864, %eax          # imm = 0x180000
	movl	%eax, %ecx
	leaq	-200(%rbp), %r8
	movq	-8(%rbp), %rsi
	movq	384(%rsi), %rsi
	movq	56(%rsi), %rsi
	movq	%rsi, -168(%rbp)
	movl	$33, -200(%rbp)
	movq	-8(%rbp), %rsi
	movq	384(%rsi), %rsi
	movq	424(%rsi), %rsi
	movq	360(%rsi), %rsi
	movq	%rsi, -160(%rbp)
	movl	$32, -152(%rbp)
	movq	$3, -144(%rbp)
	movq	-8(%rbp), %rsi
	movq	384(%rsi), %rsi
	movq	424(%rsi), %rsi
	movq	16(%rsi), %rdi
	movq	-8(%rbp), %rsi
	movq	384(%rsi), %rsi
	movq	424(%rsi), %rsi
	movq	16(%rsi), %rsi
	movslq	224(%rsi), %rsi
	movq	-8(%rbp), %r9
	movq	384(%r9), %r9
	movq	424(%r9), %r9
	movq	16(%r9), %r9
	shlq	$7, %rsi
	addq	232(%r9), %rsi
	movq	16(%rsi), %rsi
	callq	XSendEvent
	cmpl	$0, %eax
	jne	.LBB43_14
# BB#13:                                # %if.then.73
	callq	unblock_input
	movabsq	$.L.str.1, %rdi
	movb	$0, %al
	callq	error
.LBB43_14:                              # %if.end.74
	movl	$3, %esi
	movq	-8(%rbp), %rdi
	callq	x_wm_set_window_state
	movq	-8(%rbp), %rdi
	movq	208(%rdi), %rdi
	shrq	$10, %rdi
	andq	$3, %rdi
	movl	%edi, %esi
	cmpl	$0, %esi
	jne	.LBB43_16
# BB#15:                                # %if.then.81
	movq	-8(%rbp), %rax
	movq	384(%rax), %rax
	movq	424(%rax), %rax
	movq	16(%rax), %rdi
	movq	-8(%rbp), %rax
	movq	384(%rax), %rax
	movq	56(%rax), %rsi
	callq	XMapRaised
	movl	%eax, -212(%rbp)        # 4-byte Spill
.LBB43_16:                              # %if.end.90
	xorl	%esi, %esi
	movq	-8(%rbp), %rax
	movq	208(%rax), %rcx
	andq	$-4097, %rcx            # imm = 0xFFFFFFFFFFFFEFFF
	orq	$4096, %rcx             # imm = 0x1000
	movq	%rcx, 208(%rax)
	movq	-8(%rbp), %rdi
	callq	SET_FRAME_VISIBLE
	callq	unblock_input
.LBB43_17:                              # %return
	addq	$224, %rsp
	popq	%rbp
	retq
.Lfunc_end43:
	.size	x_iconify_frame, .Lfunc_end43-x_iconify_frame
	.cfi_endproc

	.globl	x_free_frame_resources
	.align	16, 0x90
	.type	x_free_frame_resources,@function
x_free_frame_resources:                 # @x_free_frame_resources
	.cfi_startproc
# BB#0:                                 # %entry
	pushq	%rbp
.Ltmp143:
	.cfi_def_cfa_offset 16
.Ltmp144:
	.cfi_offset %rbp, -16
	movq	%rsp, %rbp
.Ltmp145:
	.cfi_def_cfa_register %rbp
	subq	$80, %rsp
	movq	%rdi, -8(%rbp)
	movq	-8(%rbp), %rdi
	movq	384(%rdi), %rdi
	movq	424(%rdi), %rdi
	movq	%rdi, -16(%rbp)
	movq	-16(%rbp), %rdi
	addq	$184, %rdi
	movq	%rdi, -24(%rbp)
	callq	block_input
	movq	-16(%rbp), %rdi
	cmpq	$0, 16(%rdi)
	je	.LBB44_36
# BB#1:                                 # %if.then
	movq	-8(%rbp), %rax
	movq	208(%rax), %rax
	shrq	$21, %rax
	andq	$1, %rax
	testq	$1, %rax
	je	.LBB44_3
# BB#2:                                 # %if.then.1
	xorl	%esi, %esi
	movq	-8(%rbp), %rax
	movq	384(%rax), %rax
	movq	424(%rax), %rax
	movq	144(%rax), %rax
	movq	-8(%rbp), %rdi
	callq	*%rax
.LBB44_3:                               # %if.end
	movq	-8(%rbp), %rdi
	callq	free_frame_faces
	movq	-8(%rbp), %rdi
	movq	384(%rdi), %rdi
	cmpq	$0, 64(%rdi)
	je	.LBB44_5
# BB#4:                                 # %if.then.8
	movq	-8(%rbp), %rax
	movq	384(%rax), %rax
	movq	424(%rax), %rax
	movq	16(%rax), %rdi
	movq	-8(%rbp), %rax
	movq	384(%rax), %rax
	movq	64(%rax), %rsi
	callq	XDestroyWindow
	movl	%eax, -28(%rbp)         # 4-byte Spill
.LBB44_5:                               # %if.end.16
	movq	-8(%rbp), %rax
	movq	384(%rax), %rax
	cmpq	$0, 448(%rax)
	je	.LBB44_7
# BB#6:                                 # %if.then.20
	movq	-8(%rbp), %rdi
	callq	free_frame_xic
.LBB44_7:                               # %if.end.21
	movq	-8(%rbp), %rdi
	callq	x_free_cr_resources
	movq	-8(%rbp), %rdi
	callq	xg_free_frame_widgets
	movq	-8(%rbp), %rdi
	movq	384(%rdi), %rdi
	cmpq	$0, 56(%rdi)
	je	.LBB44_9
# BB#8:                                 # %if.then.25
	movq	-8(%rbp), %rax
	movq	384(%rax), %rax
	movq	424(%rax), %rax
	movq	16(%rax), %rdi
	movq	-8(%rbp), %rax
	movq	384(%rax), %rax
	movq	56(%rax), %rsi
	callq	XDestroyWindow
	movl	%eax, -32(%rbp)         # 4-byte Spill
.LBB44_9:                               # %if.end.34
	movq	-8(%rbp), %rdi
	movq	-8(%rbp), %rax
	movq	480(%rax), %rsi
	callq	unload_color
	movq	-8(%rbp), %rdi
	movq	-8(%rbp), %rax
	movq	472(%rax), %rsi
	callq	unload_color
	movq	-8(%rbp), %rdi
	movq	-8(%rbp), %rax
	movq	384(%rax), %rax
	movq	248(%rax), %rsi
	callq	unload_color
	movq	-8(%rbp), %rdi
	movq	-8(%rbp), %rax
	movq	384(%rax), %rax
	movq	272(%rax), %rsi
	callq	unload_color
	movq	-8(%rbp), %rdi
	movq	-8(%rbp), %rax
	movq	384(%rax), %rax
	movq	256(%rax), %rsi
	callq	unload_color
	movq	-8(%rbp), %rdi
	movq	-8(%rbp), %rax
	movq	384(%rax), %rax
	movq	264(%rax), %rsi
	callq	unload_color
	movq	-8(%rbp), %rax
	movq	384(%rax), %rax
	cmpq	$-1, 288(%rax)
	je	.LBB44_11
# BB#10:                                # %if.then.45
	movq	-8(%rbp), %rdi
	movq	-8(%rbp), %rax
	movq	384(%rax), %rax
	movq	288(%rax), %rsi
	callq	unload_color
.LBB44_11:                              # %if.end.49
	movq	-8(%rbp), %rax
	movq	384(%rax), %rax
	cmpq	$-1, 280(%rax)
	je	.LBB44_13
# BB#12:                                # %if.then.53
	movq	-8(%rbp), %rdi
	movq	-8(%rbp), %rax
	movq	384(%rax), %rax
	movq	280(%rax), %rsi
	callq	unload_color
.LBB44_13:                              # %if.end.57
	movq	-8(%rbp), %rax
	movq	384(%rax), %rax
	cmpq	$-1, 496(%rax)
	je	.LBB44_15
# BB#14:                                # %if.then.61
	movq	-8(%rbp), %rdi
	movq	-8(%rbp), %rax
	movq	384(%rax), %rax
	movq	496(%rax), %rsi
	callq	unload_color
.LBB44_15:                              # %if.end.66
	movq	-8(%rbp), %rax
	movq	384(%rax), %rax
	cmpq	$-1, 480(%rax)
	je	.LBB44_17
# BB#16:                                # %if.then.71
	movq	-8(%rbp), %rdi
	movq	-8(%rbp), %rax
	movq	384(%rax), %rax
	movq	480(%rax), %rsi
	callq	unload_color
.LBB44_17:                              # %if.end.76
	movq	-8(%rbp), %rdi
	callq	x_free_gcs
	movq	-8(%rbp), %rdi
	movq	384(%rdi), %rdi
	cmpq	$0, 488(%rdi)
	je	.LBB44_19
# BB#18:                                # %if.then.81
	movq	-16(%rbp), %rax
	movq	16(%rax), %rdi
	movq	-8(%rbp), %rax
	movq	384(%rax), %rax
	movq	488(%rax), %rsi
	callq	XFreeGC
	movq	-8(%rbp), %rsi
	movq	384(%rsi), %rsi
	movq	$0, 488(%rsi)
	movl	%eax, -36(%rbp)         # 4-byte Spill
.LBB44_19:                              # %if.end.92
	movq	-8(%rbp), %rax
	movq	384(%rax), %rax
	cmpq	$0, 472(%rax)
	je	.LBB44_21
# BB#20:                                # %if.then.98
	movq	-16(%rbp), %rax
	movq	16(%rax), %rdi
	movq	-8(%rbp), %rax
	movq	384(%rax), %rax
	movq	472(%rax), %rsi
	callq	XFreeGC
	movq	-8(%rbp), %rsi
	movq	384(%rsi), %rsi
	movq	$0, 472(%rsi)
	movl	%eax, -40(%rbp)         # 4-byte Spill
.LBB44_21:                              # %if.end.109
	movq	-8(%rbp), %rax
	movq	384(%rax), %rax
	cmpq	$0, 296(%rax)
	je	.LBB44_23
# BB#22:                                # %if.then.113
	movq	-8(%rbp), %rax
	movq	384(%rax), %rax
	movq	424(%rax), %rax
	movq	16(%rax), %rdi
	movq	-8(%rbp), %rax
	movq	384(%rax), %rax
	movq	296(%rax), %rsi
	callq	XFreeCursor
	movl	%eax, -44(%rbp)         # 4-byte Spill
.LBB44_23:                              # %if.end.122
	movq	-8(%rbp), %rax
	movq	384(%rax), %rax
	cmpq	$0, 304(%rax)
	je	.LBB44_25
# BB#24:                                # %if.then.126
	movq	-8(%rbp), %rax
	movq	384(%rax), %rax
	movq	424(%rax), %rax
	movq	16(%rax), %rdi
	movq	-8(%rbp), %rax
	movq	384(%rax), %rax
	movq	304(%rax), %rsi
	callq	XFreeCursor
	movl	%eax, -48(%rbp)         # 4-byte Spill
.LBB44_25:                              # %if.end.135
	movq	-8(%rbp), %rax
	movq	384(%rax), %rax
	cmpq	$0, 312(%rax)
	je	.LBB44_27
# BB#26:                                # %if.then.139
	movq	-8(%rbp), %rax
	movq	384(%rax), %rax
	movq	424(%rax), %rax
	movq	16(%rax), %rdi
	movq	-8(%rbp), %rax
	movq	384(%rax), %rax
	movq	312(%rax), %rsi
	callq	XFreeCursor
	movl	%eax, -52(%rbp)         # 4-byte Spill
.LBB44_27:                              # %if.end.148
	movq	-8(%rbp), %rax
	movq	384(%rax), %rax
	cmpq	$0, 320(%rax)
	je	.LBB44_29
# BB#28:                                # %if.then.152
	movq	-8(%rbp), %rax
	movq	384(%rax), %rax
	movq	424(%rax), %rax
	movq	16(%rax), %rdi
	movq	-8(%rbp), %rax
	movq	384(%rax), %rax
	movq	320(%rax), %rsi
	callq	XFreeCursor
	movl	%eax, -56(%rbp)         # 4-byte Spill
.LBB44_29:                              # %if.end.161
	movq	-8(%rbp), %rax
	movq	384(%rax), %rax
	cmpq	$0, 328(%rax)
	je	.LBB44_31
# BB#30:                                # %if.then.165
	movq	-8(%rbp), %rax
	movq	384(%rax), %rax
	movq	424(%rax), %rax
	movq	16(%rax), %rdi
	movq	-8(%rbp), %rax
	movq	384(%rax), %rax
	movq	328(%rax), %rsi
	callq	XFreeCursor
	movl	%eax, -60(%rbp)         # 4-byte Spill
.LBB44_31:                              # %if.end.174
	movq	-8(%rbp), %rax
	movq	384(%rax), %rax
	cmpq	$0, 336(%rax)
	je	.LBB44_33
# BB#32:                                # %if.then.178
	movq	-8(%rbp), %rax
	movq	384(%rax), %rax
	movq	424(%rax), %rax
	movq	16(%rax), %rdi
	movq	-8(%rbp), %rax
	movq	384(%rax), %rax
	movq	336(%rax), %rsi
	callq	XFreeCursor
	movl	%eax, -64(%rbp)         # 4-byte Spill
.LBB44_33:                              # %if.end.187
	movq	-8(%rbp), %rax
	movq	384(%rax), %rax
	cmpq	$0, 344(%rax)
	je	.LBB44_35
# BB#34:                                # %if.then.191
	movq	-8(%rbp), %rax
	movq	384(%rax), %rax
	movq	424(%rax), %rax
	movq	16(%rax), %rdi
	movq	-8(%rbp), %rax
	movq	384(%rax), %rax
	movq	344(%rax), %rsi
	callq	XFreeCursor
	movl	%eax, -68(%rbp)         # 4-byte Spill
.LBB44_35:                              # %if.end.200
	jmp	.LBB44_36
.LBB44_36:                              # %if.end.201
	movq	-8(%rbp), %rax
	movq	384(%rax), %rax
	movq	432(%rax), %rax
	movq	%rax, %rdi
	callq	xfree
	movq	-8(%rbp), %rax
	movq	384(%rax), %rax
	movq	%rax, %rdi
	callq	xfree
	movq	-8(%rbp), %rax
	movq	$0, 384(%rax)
	movq	-8(%rbp), %rax
	movq	-16(%rbp), %rdi
	cmpq	600(%rdi), %rax
	jne	.LBB44_38
# BB#37:                                # %if.then.209
	movq	-16(%rbp), %rax
	movq	$0, 600(%rax)
.LBB44_38:                              # %if.end.211
	movq	-8(%rbp), %rax
	movq	-16(%rbp), %rcx
	cmpq	608(%rcx), %rax
	jne	.LBB44_40
# BB#39:                                # %if.then.213
	movq	-16(%rbp), %rax
	movq	$0, 608(%rax)
.LBB44_40:                              # %if.end.215
	movq	-8(%rbp), %rax
	movq	-16(%rbp), %rcx
	cmpq	616(%rcx), %rax
	jne	.LBB44_42
# BB#41:                                # %if.then.217
	movq	-16(%rbp), %rax
	movq	$0, 616(%rax)
.LBB44_42:                              # %if.end.219
	movq	-8(%rbp), %rax
	movq	-24(%rbp), %rcx
	cmpq	48(%rcx), %rax
	jne	.LBB44_44
# BB#43:                                # %if.then.221
	movq	-24(%rbp), %rdi
	callq	reset_mouse_highlight
.LBB44_44:                              # %if.end.222
	callq	unblock_input
	addq	$80, %rsp
	popq	%rbp
	retq
.Lfunc_end44:
	.size	x_free_frame_resources, .Lfunc_end44-x_free_frame_resources
	.cfi_endproc

	.align	16, 0x90
	.type	x_free_cr_resources,@function
x_free_cr_resources:                    # @x_free_cr_resources
	.cfi_startproc
# BB#0:                                 # %entry
	pushq	%rbp
.Ltmp146:
	.cfi_def_cfa_offset 16
.Ltmp147:
	.cfi_offset %rbp, -16
	movq	%rsp, %rbp
.Ltmp148:
	.cfi_def_cfa_register %rbp
	movq	%rdi, -8(%rbp)
	popq	%rbp
	retq
.Lfunc_end45:
	.size	x_free_cr_resources, .Lfunc_end45-x_free_cr_resources
	.cfi_endproc

	.globl	x_wm_set_icon_position
	.align	16, 0x90
	.type	x_wm_set_icon_position,@function
x_wm_set_icon_position:                 # @x_wm_set_icon_position
	.cfi_startproc
# BB#0:                                 # %entry
	pushq	%rbp
.Ltmp149:
	.cfi_def_cfa_offset 16
.Ltmp150:
	.cfi_offset %rbp, -16
	movq	%rsp, %rbp
.Ltmp151:
	.cfi_def_cfa_register %rbp
	subq	$48, %rsp
	movq	%rdi, -8(%rbp)
	movl	%esi, -12(%rbp)
	movl	%edx, -16(%rbp)
	movq	-8(%rbp), %rdi
	movq	384(%rdi), %rdi
	cmpq	$0, 80(%rdi)
	je	.LBB46_6
# BB#1:                                 # %cond.true
	movq	-8(%rbp), %rax
	movq	384(%rax), %rax
	cmpq	$0, 80(%rax)
	je	.LBB46_4
# BB#2:                                 # %land.lhs.true
	movq	-8(%rbp), %rax
	movq	384(%rax), %rax
	movq	80(%rax), %rdi
	callq	gtk_widget_get_window
	cmpq	$0, %rax
	je	.LBB46_4
# BB#3:                                 # %cond.true.9
	movq	-8(%rbp), %rax
	movq	384(%rax), %rax
	movq	80(%rax), %rdi
	callq	gtk_widget_get_window
	movq	%rax, %rdi
	callq	gdk_x11_drawable_get_xid
	movq	%rax, -32(%rbp)         # 8-byte Spill
	jmp	.LBB46_5
.LBB46_4:                               # %cond.false
	xorl	%eax, %eax
	movl	%eax, %ecx
	movq	%rcx, -32(%rbp)         # 8-byte Spill
	jmp	.LBB46_5
.LBB46_5:                               # %cond.end
	movq	-32(%rbp), %rax         # 8-byte Reload
	movq	%rax, -40(%rbp)         # 8-byte Spill
	jmp	.LBB46_7
.LBB46_6:                               # %cond.false.15
	movq	-8(%rbp), %rax
	movq	384(%rax), %rax
	movq	56(%rax), %rax
	movq	%rax, -40(%rbp)         # 8-byte Spill
.LBB46_7:                               # %cond.end.18
	movq	-40(%rbp), %rax         # 8-byte Reload
	movq	%rax, -24(%rbp)
	movq	-8(%rbp), %rax
	movq	384(%rax), %rax
	movq	368(%rax), %rcx
	orq	$16, %rcx
	movq	%rcx, 368(%rax)
	movl	-12(%rbp), %edx
	movq	-8(%rbp), %rax
	movq	384(%rax), %rax
	movl	%edx, 400(%rax)
	movl	-16(%rbp), %edx
	movq	-8(%rbp), %rax
	movq	384(%rax), %rax
	movl	%edx, 404(%rax)
	movq	-8(%rbp), %rax
	movq	384(%rax), %rax
	movq	424(%rax), %rax
	movq	16(%rax), %rdi
	movq	-24(%rbp), %rsi
	movq	-8(%rbp), %rax
	movq	384(%rax), %rax
	addq	$368, %rax              # imm = 0x170
	movq	%rax, %rdx
	callq	XSetWMHints
	movl	%eax, -44(%rbp)         # 4-byte Spill
	addq	$48, %rsp
	popq	%rbp
	retq
.Lfunc_end46:
	.size	x_wm_set_icon_position, .Lfunc_end46-x_wm_set_icon_position
	.cfi_endproc

	.globl	x_display_ok
	.align	16, 0x90
	.type	x_display_ok,@function
x_display_ok:                           # @x_display_ok
	.cfi_startproc
# BB#0:                                 # %entry
	pushq	%rbp
.Ltmp152:
	.cfi_def_cfa_offset 16
.Ltmp153:
	.cfi_offset %rbp, -16
	movq	%rsp, %rbp
.Ltmp154:
	.cfi_def_cfa_register %rbp
	subq	$32, %rsp
	movq	%rdi, -16(%rbp)
	callq	unrequest_sigio
	movq	-16(%rbp), %rdi
	callq	XOpenDisplay
	movq	%rax, -24(%rbp)
	callq	request_sigio
	cmpq	$0, -24(%rbp)
	jne	.LBB47_2
# BB#1:                                 # %if.then
	movb	$0, -1(%rbp)
	jmp	.LBB47_3
.LBB47_2:                               # %if.end
	movq	-24(%rbp), %rdi
	callq	XCloseDisplay
	movb	$1, -1(%rbp)
	movl	%eax, -28(%rbp)         # 4-byte Spill
.LBB47_3:                               # %return
	movb	-1(%rbp), %al
	andb	$1, %al
	movzbl	%al, %eax
	addq	$32, %rsp
	popq	%rbp
	retq
.Lfunc_end47:
	.size	x_display_ok, .Lfunc_end47-x_display_ok
	.cfi_endproc

	.section	.rodata.cst8,"aM",@progbits,8
	.align	8
.LCPI48_0:
	.quad	4607182418800017408     # double 1
.LCPI48_1:
	.quad	4627842682090579558     # double 25.399999999999999
.LCPI48_2:
	.quad	4636737291354636288     # double 100
	.text
	.globl	x_term_init
	.align	16, 0x90
	.type	x_term_init,@function
x_term_init:                            # @x_term_init
	.cfi_startproc
# BB#0:                                 # %entry
	pushq	%rbp
.Ltmp155:
	.cfi_def_cfa_offset 16
.Ltmp156:
	.cfi_offset %rbp, -16
	movq	%rsp, %rbp
.Ltmp157:
	.cfi_def_cfa_register %rbp
	subq	$4224, %rsp             # imm = 0x1080
	movq	%rdi, -16(%rbp)
	movq	%rsi, -24(%rbp)
	movq	%rdx, -32(%rbp)
	callq	block_input
	cmpl	$0, x_initialized
	jne	.LBB48_2
# BB#1:                                 # %if.then
	callq	x_initialize
	movl	x_initialized, %eax
	addl	$1, %eax
	movl	%eax, x_initialized
.LBB48_2:                               # %if.end
	movq	-16(%rbp), %rdi
	callq	SSDATA
	movq	%rax, %rdi
	callq	x_display_ok
	testb	$1, %al
	jne	.LBB48_4
# BB#3:                                 # %if.then.2
	movq	-16(%rbp), %rdi
	callq	SSDATA
	movabsq	$.L.str.2, %rdi
	movq	%rax, %rsi
	movb	$0, %al
	callq	error
.LBB48_4:                               # %if.end.4
	leaq	-160(%rbp), %rax
	movq	%rax, -168(%rbp)
	movl	x_initialized, %ecx
	movl	%ecx, %edx
	addl	$1, %edx
	movl	%edx, x_initialized
	cmpl	$1, %ecx
	jle	.LBB48_6
# BB#5:                                 # %if.then.6
	movq	-16(%rbp), %rdi
	callq	SSDATA
	leaq	-40(%rbp), %rsi
	movq	%rax, %rdi
	callq	xg_display_open
	jmp	.LBB48_16
.LBB48_6:                               # %if.else
	movl	$0, -76(%rbp)
.LBB48_7:                               # %for.cond
                                        # =>This Inner Loop Header: Depth=1
	cmpl	$10, -76(%rbp)
	jge	.LBB48_10
# BB#8:                                 # %for.body
                                        #   in Loop: Header=BB48_7 Depth=1
	movslq	-76(%rbp), %rax
	movq	$0, -160(%rbp,%rax,8)
# BB#9:                                 # %for.inc
                                        #   in Loop: Header=BB48_7 Depth=1
	movl	-76(%rbp), %eax
	addl	$1, %eax
	movl	%eax, -76(%rbp)
	jmp	.LBB48_7
.LBB48_10:                              # %for.end
	xorl	%edi, %edi
	movl	$0, -76(%rbp)
	movq	initial_argv, %rax
	movq	(%rax), %rax
	movl	-76(%rbp), %ecx
	movl	%ecx, %edx
	addl	$1, %edx
	movl	%edx, -76(%rbp)
	movslq	%ecx, %rsi
	movq	%rax, -160(%rbp,%rsi,8)
	movq	-16(%rbp), %rax
	movq	%rax, -1496(%rbp)       # 8-byte Spill
	callq	builtin_lisp_symbol
	movq	-1496(%rbp), %rsi       # 8-byte Reload
	cmpq	%rax, %rsi
	je	.LBB48_12
# BB#11:                                # %if.then.16
	movabsq	$x_term_init.display_opt, %rax
	movl	-76(%rbp), %ecx
	movl	%ecx, %edx
	addl	$1, %edx
	movl	%edx, -76(%rbp)
	movslq	%ecx, %rsi
	movq	%rax, -160(%rbp,%rsi,8)
	movq	-16(%rbp), %rdi
	callq	SSDATA
	movl	-76(%rbp), %ecx
	movl	%ecx, %edx
	addl	$1, %edx
	movl	%edx, -76(%rbp)
	movslq	%ecx, %rsi
	movq	%rax, -160(%rbp,%rsi,8)
.LBB48_12:                              # %if.end.24
	movabsq	$.L.str.3, %rdi
	movabsq	$x_term_init.name_opt, %rax
	movl	-76(%rbp), %ecx
	movl	%ecx, %edx
	addl	$1, %edx
	movl	%edx, -76(%rbp)
	movslq	%ecx, %rsi
	movq	%rax, -160(%rbp,%rsi,8)
	movq	-32(%rbp), %rax
	movl	-76(%rbp), %ecx
	movl	%ecx, %edx
	addl	$1, %edx
	movl	%edx, -76(%rbp)
	movslq	%ecx, %rsi
	movq	%rax, -160(%rbp,%rsi,8)
	callq	XSetLocaleModifiers
	movabsq	$.L.str.4, %rdi
	movl	$19, %esi
	movabsq	$my_log_handler, %rdx
	xorl	%ecx, %ecx
                                        # kill: RCX<def> ECX<kill>
	movq	%rax, -1504(%rbp)       # 8-byte Spill
	callq	g_log_set_handler
	xorl	%esi, %esi
	movl	%esi, %ecx
	movabsq	$event_handler_gdk, %rsi
	movl	%eax, -172(%rbp)
	movq	%rcx, %rdi
	movq	%rcx, %rdx
	callq	gdk_window_add_filter
	callq	fixup_locale
	callq	unrequest_sigio
	leaq	-76(%rbp), %rdi
	leaq	-168(%rbp), %rsi
	callq	gtk_init
	callq	request_sigio
	callq	fixup_locale
	movabsq	$.L.str.4, %rdi
	movl	-172(%rbp), %esi
	callq	g_log_remove_handler
	callq	xg_initialize
	movabsq	$.L.str.5, %rcx
	movq	gdk_display, %rdx
	movq	%rdx, -40(%rbp)
	movq	%rcx, -184(%rbp)
	movq	-184(%rbp), %rdi
	callq	build_string
	xorl	%edi, %edi
	movq	%rax, -192(%rbp)
	movq	-192(%rbp), %rax
	movq	%rax, -1512(%rbp)       # 8-byte Spill
	callq	builtin_lisp_symbol
	movq	-1512(%rbp), %rdi       # 8-byte Reload
	movq	%rax, %rsi
	callq	Fexpand_file_name
	xorl	%edi, %edi
	movq	%rax, -200(%rbp)
	movq	-200(%rbp), %rax
	movq	%rax, -1520(%rbp)       # 8-byte Spill
	callq	builtin_lisp_symbol
	movq	-1520(%rbp), %rcx       # 8-byte Reload
	cmpq	%rax, %rcx
	je	.LBB48_15
# BB#13:                                # %land.lhs.true
	movq	-200(%rbp), %rdi
	callq	Ffile_readable_p
	xorl	%edi, %edi
	movq	%rax, -1528(%rbp)       # 8-byte Spill
	callq	builtin_lisp_symbol
	movq	-1528(%rbp), %rcx       # 8-byte Reload
	cmpq	%rax, %rcx
	je	.LBB48_15
# BB#14:                                # %if.then.41
	movq	-200(%rbp), %rdi
	callq	SSDATA
	movq	%rax, %rdi
	callq	gtk_rc_parse
.LBB48_15:                              # %if.end.43
	movabsq	$x_error_handler, %rdi
	callq	XSetErrorHandler
	movabsq	$x_io_error_quitter, %rdi
	movq	%rax, -1536(%rbp)       # 8-byte Spill
	callq	XSetIOErrorHandler
	movq	%rax, -1544(%rbp)       # 8-byte Spill
.LBB48_16:                              # %if.end.46
	cmpq	$0, -40(%rbp)
	jne	.LBB48_18
# BB#17:                                # %if.then.48
	callq	unblock_input
	movq	$0, -8(%rbp)
	jmp	.LBB48_382
.LBB48_18:                              # %if.end.49
	movq	-40(%rbp), %rdi
	callq	XGetXCBConnection
	movq	%rax, -72(%rbp)
	cmpq	$0, -72(%rbp)
	jne	.LBB48_20
# BB#19:                                # %if.then.52
	movq	-40(%rbp), %rdi
	callq	xg_display_close
	callq	unblock_input
	movq	$0, -8(%rbp)
	jmp	.LBB48_382
.LBB48_20:                              # %if.end.53
	movl	$1016, %eax             # imm = 0x3F8
	movl	%eax, %edi
	callq	xzalloc
	movq	%rax, -56(%rbp)
	movq	-56(%rbp), %rdi
	callq	x_create_terminal
	movq	%rax, -48(%rbp)
	movq	x_display_list, %rax
	movq	%rax, -208(%rbp)
.LBB48_21:                              # %for.cond.56
                                        # =>This Inner Loop Header: Depth=1
	cmpq	$0, -208(%rbp)
	je	.LBB48_26
# BB#22:                                # %for.body.58
                                        #   in Loop: Header=BB48_21 Depth=1
	movq	-208(%rbp), %rax
	movq	32(%rax), %rax
	subq	$3, %rax
	movq	(%rax), %rdi
	callq	SSDATA
	movq	-16(%rbp), %rdi
	movq	%rax, -1552(%rbp)       # 8-byte Spill
	callq	SSDATA
	movq	-1552(%rbp), %rdi       # 8-byte Reload
	movq	%rax, %rsi
	callq	same_x_server
	testb	$1, %al
	jne	.LBB48_23
	jmp	.LBB48_24
.LBB48_23:                              # %if.then.62
	jmp	.LBB48_26
.LBB48_24:                              # %if.end.63
                                        #   in Loop: Header=BB48_21 Depth=1
	jmp	.LBB48_25
.LBB48_25:                              # %for.inc.64
                                        #   in Loop: Header=BB48_21 Depth=1
	movq	-208(%rbp), %rax
	movq	(%rax), %rax
	movq	%rax, -208(%rbp)
	jmp	.LBB48_21
.LBB48_26:                              # %for.end.65
	cmpq	$0, -208(%rbp)
	je	.LBB48_28
# BB#27:                                # %if.then.67
	movq	-208(%rbp), %rax
	movq	8(%rax), %rax
	movq	72(%rax), %rax
	movq	-48(%rbp), %rcx
	movq	%rax, 72(%rcx)
	jmp	.LBB48_36
.LBB48_28:                              # %if.else.70
	movl	$1045, %edi             # imm = 0x415
	callq	builtin_lisp_symbol
	movq	%rax, %rdi
	callq	allocate_kboard
	movl	$998, %edi              # imm = 0x3E6
	movq	-48(%rbp), %rcx
	movq	%rax, 72(%rcx)
	callq	builtin_lisp_symbol
	movl	$957, %edi              # imm = 0x3BD
	subq	$0, %rax
	movq	lispsym+24(,%rax), %rax
	movq	%rax, -1560(%rbp)       # 8-byte Spill
	callq	builtin_lisp_symbol
	movq	-1560(%rbp), %rcx       # 8-byte Reload
	cmpq	%rax, %rcx
	je	.LBB48_33
# BB#29:                                # %if.then.78
	movq	-40(%rbp), %rax
	movq	32(%rax), %rax
	movq	%rax, -216(%rbp)
	movq	-48(%rbp), %rax
	movq	40(%rax), %rax
	movq	%rax, terminal_list
	callq	unblock_input
	movl	$998, %edi              # imm = 0x3E6
	movq	-48(%rbp), %rax
	movq	72(%rax), %rax
	movq	%rax, -1568(%rbp)       # 8-byte Spill
	callq	builtin_lisp_symbol
	cmpq	$0, -216(%rbp)
	movq	%rax, -1576(%rbp)       # 8-byte Spill
	je	.LBB48_31
# BB#30:                                # %cond.true
	movq	-216(%rbp), %rdi
	callq	build_string
	movq	%rax, -1584(%rbp)       # 8-byte Spill
	jmp	.LBB48_32
.LBB48_31:                              # %cond.false
	movq	empty_unibyte_string, %rax
	movq	%rax, -1584(%rbp)       # 8-byte Spill
.LBB48_32:                              # %cond.end
	movq	-1584(%rbp), %rax       # 8-byte Reload
	movq	-1576(%rbp), %rdi       # 8-byte Reload
	movq	%rax, %rsi
	callq	call1
	movq	-1568(%rbp), %rdi       # 8-byte Reload
	movq	%rax, %rsi
	callq	kset_system_key_alist
	callq	block_input
	movq	terminal_list, %rax
	movq	-48(%rbp), %rsi
	movq	%rax, 40(%rsi)
	movq	-48(%rbp), %rax
	movq	%rax, terminal_list
.LBB48_33:                              # %if.end.86
	movq	current_kboard, %rax
	cmpq	initial_kboard, %rax
	jne	.LBB48_35
# BB#34:                                # %if.then.88
	movq	-48(%rbp), %rax
	movq	72(%rax), %rax
	movq	%rax, current_kboard
.LBB48_35:                              # %if.end.90
	jmp	.LBB48_36
.LBB48_36:                              # %if.end.91
	xorl	%edi, %edi
	movq	-48(%rbp), %rax
	movq	72(%rax), %rax
	movl	168(%rax), %ecx
	addl	$1, %ecx
	movl	%ecx, 168(%rax)
	movq	x_display_list, %rax
	movq	-56(%rbp), %rdx
	movq	%rax, (%rdx)
	movq	-56(%rbp), %rax
	movq	%rax, x_display_list
	movq	-16(%rbp), %rax
	movq	%rax, -1592(%rbp)       # 8-byte Spill
	callq	builtin_lisp_symbol
	movq	-1592(%rbp), %rdi       # 8-byte Reload
	movq	%rax, %rsi
	callq	Fcons
	movq	-56(%rbp), %rdx
	movq	%rax, 32(%rdx)
	movq	-40(%rbp), %rax
	movq	-56(%rbp), %rdx
	movq	%rax, 16(%rdx)
	movq	-56(%rbp), %rax
	movq	16(%rax), %rax
	movl	16(%rax), %ecx
	movq	-56(%rbp), %rax
	movl	%ecx, 24(%rax)
	movq	-72(%rbp), %rax
	movq	-56(%rbp), %rdx
	movq	%rax, 1008(%rdx)
	movq	-56(%rbp), %rax
	movl	$1, 172(%rax)
	movq	-56(%rbp), %rax
	movl	$1, 168(%rax)
	movq	-16(%rbp), %rdi
	callq	xlispstrdup
	movq	-48(%rbp), %rdx
	movq	%rax, 64(%rdx)
	callq	Fsystem_name
	xorl	%ecx, %ecx
	movb	%cl, %r8b
	movq	%rax, -224(%rbp)
	testb	$1, %r8b
	jne	.LBB48_37
	jmp	.LBB48_96
.LBB48_37:                              # %cond.true.101
	xorl	%eax, %eax
	movb	%al, %cl
	testb	$1, %cl
	jne	.LBB48_38
	jmp	.LBB48_67
.LBB48_38:                              # %cond.true.102
	movq	-224(%rbp), %rdi
	callq	SBYTES
	addq	$2, %rax
	movb	%al, %cl
	movsbl	%cl, %edx
	imull	$0, %edx, %edx
	movq	globals+1192, %rdi
	movl	%edx, -1596(%rbp)       # 4-byte Spill
	callq	SBYTES
	movb	%al, %cl
	movsbl	%cl, %edx
	movl	-1596(%rbp), %esi       # 4-byte Reload
	addl	%edx, %esi
	imull	$0, %esi, %edx
	subl	$1, %edx
	cmpl	$0, %edx
	jge	.LBB48_40
# BB#39:                                # %cond.true.113
	movq	-224(%rbp), %rdi
	callq	SBYTES
	addq	$2, %rax
	movb	%al, %cl
	movsbl	%cl, %edx
	imull	$0, %edx, %edx
	movq	globals+1192, %rdi
	movl	%edx, -1600(%rbp)       # 4-byte Spill
	callq	SBYTES
	xorl	%edx, %edx
	movb	%al, %cl
	movsbl	%cl, %esi
	movl	-1600(%rbp), %r8d       # 4-byte Reload
	addl	%esi, %r8d
	imull	$0, %r8d, %esi
	addl	$0, %esi
	xorl	$-1, %esi
	cmpl	$-1, %esi
	sete	%cl
	andb	$1, %cl
	movzbl	%cl, %esi
	subl	%esi, %edx
	movq	-224(%rbp), %rdi
	movl	%edx, -1604(%rbp)       # 4-byte Spill
	callq	SBYTES
	addq	$2, %rax
	movb	%al, %cl
	movsbl	%cl, %edx
	imull	$0, %edx, %edx
	movq	globals+1192, %rdi
	movl	%edx, -1608(%rbp)       # 4-byte Spill
	callq	SBYTES
	movb	%al, %cl
	movsbl	%cl, %edx
	movl	-1608(%rbp), %esi       # 4-byte Reload
	addl	%edx, %esi
	imull	$0, %esi, %edx
	addl	$1, %edx
	shll	$30, %edx
	subl	$1, %edx
	shll	$1, %edx
	addl	$1, %edx
	movl	-1604(%rbp), %esi       # 4-byte Reload
	subl	%edx, %esi
	movl	%esi, -1612(%rbp)       # 4-byte Spill
	jmp	.LBB48_41
.LBB48_40:                              # %cond.false.143
	movq	-224(%rbp), %rdi
	callq	SBYTES
	addq	$2, %rax
	movb	%al, %cl
	movsbl	%cl, %edx
	imull	$0, %edx, %edx
	movq	globals+1192, %rdi
	movl	%edx, -1616(%rbp)       # 4-byte Spill
	callq	SBYTES
	movb	%al, %cl
	movsbl	%cl, %edx
	movl	-1616(%rbp), %esi       # 4-byte Reload
	addl	%edx, %esi
	imull	$0, %esi, %edx
	addl	$0, %edx
	movl	%edx, -1612(%rbp)       # 4-byte Spill
.LBB48_41:                              # %cond.end.155
	movl	-1612(%rbp), %eax       # 4-byte Reload
	cmpl	$0, %eax
	jge	.LBB48_51
# BB#42:                                # %cond.true.159
	movq	-224(%rbp), %rdi
	callq	SBYTES
	addq	$2, %rax
	movb	%al, %cl
	movsbl	%cl, %edx
	cmpl	$0, %edx
	jge	.LBB48_47
# BB#43:                                # %cond.true.166
	movq	globals+1192, %rdi
	callq	SBYTES
	movb	%al, %cl
	movsbl	%cl, %edx
	movq	-224(%rbp), %rdi
	movl	%edx, -1620(%rbp)       # 4-byte Spill
	callq	SBYTES
	addq	$2, %rax
	movb	%al, %cl
	movsbl	%cl, %edx
	imull	$0, %edx, %edx
	movq	globals+1192, %rdi
	movl	%edx, -1624(%rbp)       # 4-byte Spill
	callq	SBYTES
	movb	%al, %cl
	movsbl	%cl, %edx
	movl	-1624(%rbp), %esi       # 4-byte Reload
	addl	%edx, %esi
	imull	$0, %esi, %edx
	subl	$1, %edx
	cmpl	$0, %edx
	jge	.LBB48_45
# BB#44:                                # %cond.true.183
	movq	-224(%rbp), %rdi
	callq	SBYTES
	addq	$2, %rax
	movb	%al, %cl
	movsbl	%cl, %edx
	imull	$0, %edx, %edx
	movq	globals+1192, %rdi
	movl	%edx, -1628(%rbp)       # 4-byte Spill
	callq	SBYTES
	xorl	%edx, %edx
	movb	%al, %cl
	movsbl	%cl, %esi
	movl	-1628(%rbp), %r8d       # 4-byte Reload
	addl	%esi, %r8d
	imull	$0, %r8d, %esi
	addl	$0, %esi
	xorl	$-1, %esi
	cmpl	$-1, %esi
	sete	%cl
	andb	$1, %cl
	movzbl	%cl, %esi
	subl	%esi, %edx
	movq	-224(%rbp), %rdi
	movl	%edx, -1632(%rbp)       # 4-byte Spill
	callq	SBYTES
	addq	$2, %rax
	movb	%al, %cl
	movsbl	%cl, %edx
	imull	$0, %edx, %edx
	movq	globals+1192, %rdi
	movl	%edx, -1636(%rbp)       # 4-byte Spill
	callq	SBYTES
	movb	%al, %cl
	movsbl	%cl, %edx
	movl	-1636(%rbp), %esi       # 4-byte Reload
	addl	%edx, %esi
	imull	$0, %esi, %edx
	addl	$1, %edx
	shll	$30, %edx
	subl	$1, %edx
	shll	$1, %edx
	addl	$1, %edx
	movl	-1632(%rbp), %esi       # 4-byte Reload
	subl	%edx, %esi
	movl	%esi, -1640(%rbp)       # 4-byte Spill
	jmp	.LBB48_46
.LBB48_45:                              # %cond.false.215
	movq	-224(%rbp), %rdi
	callq	SBYTES
	addq	$2, %rax
	movb	%al, %cl
	movsbl	%cl, %edx
	imull	$0, %edx, %edx
	movq	globals+1192, %rdi
	movl	%edx, -1644(%rbp)       # 4-byte Spill
	callq	SBYTES
	movb	%al, %cl
	movsbl	%cl, %edx
	movl	-1644(%rbp), %esi       # 4-byte Reload
	addl	%edx, %esi
	imull	$0, %esi, %edx
	addl	$0, %edx
	movl	%edx, -1640(%rbp)       # 4-byte Spill
.LBB48_46:                              # %cond.end.227
	movl	-1640(%rbp), %eax       # 4-byte Reload
	movq	-224(%rbp), %rdi
	movl	%eax, -1648(%rbp)       # 4-byte Spill
	callq	SBYTES
	addq	$2, %rax
	movb	%al, %cl
	movsbl	%cl, %edx
	movl	-1648(%rbp), %esi       # 4-byte Reload
	subl	%edx, %esi
	movl	-1620(%rbp), %edx       # 4-byte Reload
	cmpl	%esi, %edx
	jl	.LBB48_59
	jmp	.LBB48_56
.LBB48_47:                              # %cond.false.236
	movq	-224(%rbp), %rdi
	callq	SBYTES
	addq	$2, %rax
	movb	%al, %cl
	movsbl	%cl, %edx
	imull	$0, %edx, %edx
	movq	globals+1192, %rdi
	movl	%edx, -1652(%rbp)       # 4-byte Spill
	callq	SBYTES
	movb	%al, %cl
	movsbl	%cl, %edx
	movl	-1652(%rbp), %esi       # 4-byte Reload
	addl	%edx, %esi
	imull	$0, %esi, %edx
	subl	$1, %edx
	cmpl	$0, %edx
	jge	.LBB48_49
# BB#48:                                # %cond.true.250
	movq	-224(%rbp), %rdi
	callq	SBYTES
	addq	$2, %rax
	movb	%al, %cl
	movsbl	%cl, %edx
	imull	$0, %edx, %edx
	movq	globals+1192, %rdi
	movl	%edx, -1656(%rbp)       # 4-byte Spill
	callq	SBYTES
	movb	%al, %cl
	movsbl	%cl, %edx
	movl	-1656(%rbp), %esi       # 4-byte Reload
	addl	%edx, %esi
	imull	$0, %esi, %edx
	addl	$1, %edx
	shll	$30, %edx
	subl	$1, %edx
	shll	$1, %edx
	addl	$1, %edx
	movl	%edx, -1660(%rbp)       # 4-byte Spill
	jmp	.LBB48_50
.LBB48_49:                              # %cond.false.266
	movq	-224(%rbp), %rdi
	callq	SBYTES
	addq	$2, %rax
	movb	%al, %cl
	movsbl	%cl, %edx
	imull	$0, %edx, %edx
	movq	globals+1192, %rdi
	movl	%edx, -1664(%rbp)       # 4-byte Spill
	callq	SBYTES
	movb	%al, %cl
	movsbl	%cl, %edx
	movl	-1664(%rbp), %esi       # 4-byte Reload
	addl	%edx, %esi
	imull	$0, %esi, %edx
	subl	$1, %edx
	movl	%edx, -1660(%rbp)       # 4-byte Spill
.LBB48_50:                              # %cond.end.278
	movl	-1660(%rbp), %eax       # 4-byte Reload
	movq	-224(%rbp), %rdi
	movl	%eax, -1668(%rbp)       # 4-byte Spill
	callq	SBYTES
	addq	$2, %rax
	movb	%al, %cl
	movsbl	%cl, %edx
	movl	-1668(%rbp), %esi       # 4-byte Reload
	subl	%edx, %esi
	movq	globals+1192, %rdi
	movl	%esi, -1672(%rbp)       # 4-byte Spill
	callq	SBYTES
	movb	%al, %cl
	movsbl	%cl, %edx
	movl	-1672(%rbp), %esi       # 4-byte Reload
	cmpl	%edx, %esi
	jl	.LBB48_59
	jmp	.LBB48_56
.LBB48_51:                              # %cond.false.290
	movq	globals+1192, %rdi
	callq	SBYTES
	movb	%al, %cl
	movsbl	%cl, %edx
	cmpl	$0, %edx
	jge	.LBB48_53
# BB#52:                                # %cond.true.296
	movq	-224(%rbp), %rdi
	callq	SBYTES
	addq	$2, %rax
	movb	%al, %cl
	movsbl	%cl, %edx
	movq	globals+1192, %rdi
	movl	%edx, -1676(%rbp)       # 4-byte Spill
	callq	SBYTES
	movb	%al, %cl
	movsbl	%cl, %edx
	movq	-224(%rbp), %rdi
	movl	%edx, -1680(%rbp)       # 4-byte Spill
	callq	SBYTES
	addq	$2, %rax
	movb	%al, %cl
	movsbl	%cl, %edx
	movl	-1680(%rbp), %esi       # 4-byte Reload
	addl	%edx, %esi
	movl	-1676(%rbp), %edx       # 4-byte Reload
	cmpl	%esi, %edx
	jle	.LBB48_59
	jmp	.LBB48_56
.LBB48_53:                              # %cond.false.311
	movq	-224(%rbp), %rdi
	callq	SBYTES
	addq	$2, %rax
	movb	%al, %cl
	movsbl	%cl, %edx
	cmpl	$0, %edx
	jge	.LBB48_55
# BB#54:                                # %cond.true.318
	movq	globals+1192, %rdi
	callq	SBYTES
	movb	%al, %cl
	movsbl	%cl, %edx
	movq	globals+1192, %rdi
	movl	%edx, -1684(%rbp)       # 4-byte Spill
	callq	SBYTES
	movb	%al, %cl
	movsbl	%cl, %edx
	movq	-224(%rbp), %rdi
	movl	%edx, -1688(%rbp)       # 4-byte Spill
	callq	SBYTES
	addq	$2, %rax
	movb	%al, %cl
	movsbl	%cl, %edx
	movl	-1688(%rbp), %esi       # 4-byte Reload
	addl	%edx, %esi
	movl	-1684(%rbp), %edx       # 4-byte Reload
	cmpl	%esi, %edx
	jle	.LBB48_59
	jmp	.LBB48_56
.LBB48_55:                              # %cond.false.332
	movq	globals+1192, %rdi
	callq	SBYTES
	movb	%al, %cl
	movsbl	%cl, %edx
	movq	-224(%rbp), %rdi
	movl	%edx, -1692(%rbp)       # 4-byte Spill
	callq	SBYTES
	addq	$2, %rax
	movb	%al, %cl
	movsbl	%cl, %edx
	movl	-1692(%rbp), %esi       # 4-byte Reload
	addl	%edx, %esi
	movq	-224(%rbp), %rdi
	movl	%esi, -1696(%rbp)       # 4-byte Spill
	callq	SBYTES
	addq	$2, %rax
	movb	%al, %cl
	movsbl	%cl, %edx
	movl	-1696(%rbp), %esi       # 4-byte Reload
	cmpl	%edx, %esi
	jl	.LBB48_59
.LBB48_56:                              # %lor.lhs.false
	movq	globals+1192, %rdi
	callq	SBYTES
	movb	%al, %cl
	movsbl	%cl, %edx
	movq	-224(%rbp), %rdi
	movl	%edx, -1700(%rbp)       # 4-byte Spill
	callq	SBYTES
	addq	$2, %rax
	movb	%al, %cl
	movsbl	%cl, %edx
	movl	-1700(%rbp), %esi       # 4-byte Reload
	addl	%edx, %esi
	imull	$0, %esi, %edx
	subl	$1, %edx
	cmpl	$0, %edx
	jge	.LBB48_58
# BB#57:                                # %land.lhs.true.359
	movq	globals+1192, %rdi
	callq	SBYTES
	movb	%al, %cl
	movsbl	%cl, %edx
	movq	-224(%rbp), %rdi
	movl	%edx, -1704(%rbp)       # 4-byte Spill
	callq	SBYTES
	addq	$2, %rax
	movb	%al, %cl
	movsbl	%cl, %edx
	movl	-1704(%rbp), %esi       # 4-byte Reload
	addl	%edx, %esi
	cmpl	$-128, %esi
	jl	.LBB48_59
.LBB48_58:                              # %lor.lhs.false.370
	movq	globals+1192, %rdi
	callq	SBYTES
	movb	%al, %cl
	movsbl	%cl, %edx
	movq	-224(%rbp), %rdi
	movl	%edx, -1708(%rbp)       # 4-byte Spill
	callq	SBYTES
	movl	$127, %edx
	addq	$2, %rax
	movb	%al, %cl
	movsbl	%cl, %esi
	movl	-1708(%rbp), %r8d       # 4-byte Reload
	addl	%esi, %r8d
	cmpl	%r8d, %edx
	jge	.LBB48_63
.LBB48_59:                              # %cond.true.381
	movq	globals+1192, %rdi
	callq	SBYTES
	movb	%al, %cl
	movzbl	%cl, %edx
	movq	-224(%rbp), %rdi
	movl	%edx, -1712(%rbp)       # 4-byte Spill
	callq	SBYTES
	addq	$2, %rax
	movb	%al, %cl
	movzbl	%cl, %edx
	movl	-1712(%rbp), %esi       # 4-byte Reload
	addl	%edx, %esi
	cmpl	$127, %esi
	jg	.LBB48_61
# BB#60:                                # %cond.true.392
	movq	globals+1192, %rdi
	callq	SBYTES
	movb	%al, %cl
	movzbl	%cl, %edx
	movq	-224(%rbp), %rdi
	movl	%edx, -1716(%rbp)       # 4-byte Spill
	callq	SBYTES
	addq	$2, %rax
	movb	%al, %cl
	movzbl	%cl, %edx
	movl	-1716(%rbp), %esi       # 4-byte Reload
	addl	%edx, %esi
	movb	%sil, %cl
	movsbl	%cl, %edx
	movl	%edx, -1720(%rbp)       # 4-byte Spill
	jmp	.LBB48_62
.LBB48_61:                              # %cond.false.403
	movq	globals+1192, %rdi
	callq	SBYTES
	movb	%al, %cl
	movzbl	%cl, %edx
	movq	-224(%rbp), %rdi
	movl	%edx, -1724(%rbp)       # 4-byte Spill
	callq	SBYTES
	addq	$2, %rax
	movb	%al, %cl
	movzbl	%cl, %edx
	movl	-1724(%rbp), %esi       # 4-byte Reload
	addl	%edx, %esi
	subl	$-128, %esi
	movb	%sil, %cl
	movsbl	%cl, %edx
	addl	$-128, %edx
	movl	%edx, -1720(%rbp)       # 4-byte Spill
.LBB48_62:                              # %cond.end.416
	movl	-1720(%rbp), %eax       # 4-byte Reload
	movb	$1, %cl
	movslq	%eax, %rdx
	movq	%rdx, -232(%rbp)
	testb	$1, %cl
	jne	.LBB48_335
	jmp	.LBB48_336
.LBB48_63:                              # %cond.false.419
	movq	globals+1192, %rdi
	callq	SBYTES
	movb	%al, %cl
	movzbl	%cl, %edx
	movq	-224(%rbp), %rdi
	movl	%edx, -1728(%rbp)       # 4-byte Spill
	callq	SBYTES
	addq	$2, %rax
	movb	%al, %cl
	movzbl	%cl, %edx
	movl	-1728(%rbp), %esi       # 4-byte Reload
	addl	%edx, %esi
	cmpl	$127, %esi
	jg	.LBB48_65
# BB#64:                                # %cond.true.430
	movq	globals+1192, %rdi
	callq	SBYTES
	movb	%al, %cl
	movzbl	%cl, %edx
	movq	-224(%rbp), %rdi
	movl	%edx, -1732(%rbp)       # 4-byte Spill
	callq	SBYTES
	addq	$2, %rax
	movb	%al, %cl
	movzbl	%cl, %edx
	movl	-1732(%rbp), %esi       # 4-byte Reload
	addl	%edx, %esi
	movb	%sil, %cl
	movsbl	%cl, %edx
	movl	%edx, -1736(%rbp)       # 4-byte Spill
	jmp	.LBB48_66
.LBB48_65:                              # %cond.false.441
	movq	globals+1192, %rdi
	callq	SBYTES
	movb	%al, %cl
	movzbl	%cl, %edx
	movq	-224(%rbp), %rdi
	movl	%edx, -1740(%rbp)       # 4-byte Spill
	callq	SBYTES
	addq	$2, %rax
	movb	%al, %cl
	movzbl	%cl, %edx
	movl	-1740(%rbp), %esi       # 4-byte Reload
	addl	%edx, %esi
	subl	$-128, %esi
	movb	%sil, %cl
	movsbl	%cl, %edx
	addl	$-128, %edx
	movl	%edx, -1736(%rbp)       # 4-byte Spill
.LBB48_66:                              # %cond.end.454
	movl	-1736(%rbp), %eax       # 4-byte Reload
	xorl	%ecx, %ecx
	movb	%cl, %dl
	movslq	%eax, %rsi
	movq	%rsi, -232(%rbp)
	testb	$1, %dl
	jne	.LBB48_335
	jmp	.LBB48_336
.LBB48_67:                              # %cond.false.457
	movq	-224(%rbp), %rdi
	callq	SBYTES
	addq	$2, %rax
	imulq	$0, %rax, %rax
	movq	globals+1192, %rdi
	movq	%rax, -1752(%rbp)       # 8-byte Spill
	callq	SBYTES
	movq	-1752(%rbp), %rdi       # 8-byte Reload
	addq	%rax, %rdi
	imulq	$0, %rdi, %rax
	subq	$1, %rax
	cmpq	$0, %rax
	jge	.LBB48_69
# BB#68:                                # %cond.true.467
	movq	-224(%rbp), %rdi
	callq	SBYTES
	addq	$2, %rax
	imulq	$0, %rax, %rax
	movq	globals+1192, %rdi
	movq	%rax, -1760(%rbp)       # 8-byte Spill
	callq	SBYTES
	xorl	%ecx, %ecx
	movq	-1760(%rbp), %rdi       # 8-byte Reload
	addq	%rax, %rdi
	imulq	$0, %rdi, %rax
	addq	$0, %rax
	xorq	$-1, %rax
	cmpq	$-1, %rax
	sete	%dl
	andb	$1, %dl
	movzbl	%dl, %esi
	subl	%esi, %ecx
	movslq	%ecx, %rax
	movq	-224(%rbp), %rdi
	movq	%rax, -1768(%rbp)       # 8-byte Spill
	callq	SBYTES
	addq	$2, %rax
	imulq	$0, %rax, %rax
	movq	globals+1192, %rdi
	movq	%rax, -1776(%rbp)       # 8-byte Spill
	callq	SBYTES
	movq	-1776(%rbp), %rdi       # 8-byte Reload
	addq	%rax, %rdi
	imulq	$0, %rdi, %rax
	addq	$1, %rax
	shlq	$62, %rax
	subq	$1, %rax
	shlq	$1, %rax
	addq	$1, %rax
	movq	-1768(%rbp), %rdi       # 8-byte Reload
	subq	%rax, %rdi
	movq	%rdi, -1784(%rbp)       # 8-byte Spill
	jmp	.LBB48_70
.LBB48_69:                              # %cond.false.492
	movq	-224(%rbp), %rdi
	callq	SBYTES
	addq	$2, %rax
	imulq	$0, %rax, %rax
	movq	globals+1192, %rdi
	movq	%rax, -1792(%rbp)       # 8-byte Spill
	callq	SBYTES
	movq	-1792(%rbp), %rdi       # 8-byte Reload
	addq	%rax, %rdi
	imulq	$0, %rdi, %rax
	addq	$0, %rax
	movq	%rax, -1784(%rbp)       # 8-byte Spill
.LBB48_70:                              # %cond.end.500
	movq	-1784(%rbp), %rax       # 8-byte Reload
	cmpq	$0, %rax
	jge	.LBB48_80
# BB#71:                                # %cond.true.504
	movq	-224(%rbp), %rdi
	callq	SBYTES
	addq	$2, %rax
	cmpq	$0, %rax
	jge	.LBB48_76
# BB#72:                                # %cond.true.509
	movq	globals+1192, %rdi
	callq	SBYTES
	movq	-224(%rbp), %rdi
	movq	%rax, -1800(%rbp)       # 8-byte Spill
	callq	SBYTES
	addq	$2, %rax
	imulq	$0, %rax, %rax
	movq	globals+1192, %rdi
	movq	%rax, -1808(%rbp)       # 8-byte Spill
	callq	SBYTES
	movq	-1808(%rbp), %rdi       # 8-byte Reload
	addq	%rax, %rdi
	imulq	$0, %rdi, %rax
	subq	$1, %rax
	cmpq	$0, %rax
	jge	.LBB48_74
# BB#73:                                # %cond.true.520
	movq	-224(%rbp), %rdi
	callq	SBYTES
	addq	$2, %rax
	imulq	$0, %rax, %rax
	movq	globals+1192, %rdi
	movq	%rax, -1816(%rbp)       # 8-byte Spill
	callq	SBYTES
	xorl	%ecx, %ecx
	movq	-1816(%rbp), %rdi       # 8-byte Reload
	addq	%rax, %rdi
	imulq	$0, %rdi, %rax
	addq	$0, %rax
	xorq	$-1, %rax
	cmpq	$-1, %rax
	sete	%dl
	andb	$1, %dl
	movzbl	%dl, %esi
	subl	%esi, %ecx
	movslq	%ecx, %rax
	movq	-224(%rbp), %rdi
	movq	%rax, -1824(%rbp)       # 8-byte Spill
	callq	SBYTES
	addq	$2, %rax
	imulq	$0, %rax, %rax
	movq	globals+1192, %rdi
	movq	%rax, -1832(%rbp)       # 8-byte Spill
	callq	SBYTES
	movq	-1832(%rbp), %rdi       # 8-byte Reload
	addq	%rax, %rdi
	imulq	$0, %rdi, %rax
	addq	$1, %rax
	shlq	$62, %rax
	subq	$1, %rax
	shlq	$1, %rax
	addq	$1, %rax
	movq	-1824(%rbp), %rdi       # 8-byte Reload
	subq	%rax, %rdi
	movq	%rdi, -1840(%rbp)       # 8-byte Spill
	jmp	.LBB48_75
.LBB48_74:                              # %cond.false.545
	movq	-224(%rbp), %rdi
	callq	SBYTES
	addq	$2, %rax
	imulq	$0, %rax, %rax
	movq	globals+1192, %rdi
	movq	%rax, -1848(%rbp)       # 8-byte Spill
	callq	SBYTES
	movq	-1848(%rbp), %rdi       # 8-byte Reload
	addq	%rax, %rdi
	imulq	$0, %rdi, %rax
	addq	$0, %rax
	movq	%rax, -1840(%rbp)       # 8-byte Spill
.LBB48_75:                              # %cond.end.553
	movq	-1840(%rbp), %rax       # 8-byte Reload
	movq	-224(%rbp), %rdi
	movq	%rax, -1856(%rbp)       # 8-byte Spill
	callq	SBYTES
	addq	$2, %rax
	movq	-1856(%rbp), %rdi       # 8-byte Reload
	subq	%rax, %rdi
	movq	-1800(%rbp), %rax       # 8-byte Reload
	cmpq	%rdi, %rax
	jl	.LBB48_88
	jmp	.LBB48_85
.LBB48_76:                              # %cond.false.560
	movq	-224(%rbp), %rdi
	callq	SBYTES
	addq	$2, %rax
	imulq	$0, %rax, %rax
	movq	globals+1192, %rdi
	movq	%rax, -1864(%rbp)       # 8-byte Spill
	callq	SBYTES
	movq	-1864(%rbp), %rdi       # 8-byte Reload
	addq	%rax, %rdi
	imulq	$0, %rdi, %rax
	subq	$1, %rax
	cmpq	$0, %rax
	jge	.LBB48_78
# BB#77:                                # %cond.true.570
	movq	-224(%rbp), %rdi
	callq	SBYTES
	addq	$2, %rax
	imulq	$0, %rax, %rax
	movq	globals+1192, %rdi
	movq	%rax, -1872(%rbp)       # 8-byte Spill
	callq	SBYTES
	movq	-1872(%rbp), %rdi       # 8-byte Reload
	addq	%rax, %rdi
	imulq	$0, %rdi, %rax
	addq	$1, %rax
	shlq	$62, %rax
	subq	$1, %rax
	shlq	$1, %rax
	addq	$1, %rax
	movq	%rax, -1880(%rbp)       # 8-byte Spill
	jmp	.LBB48_79
.LBB48_78:                              # %cond.false.582
	movq	-224(%rbp), %rdi
	callq	SBYTES
	addq	$2, %rax
	imulq	$0, %rax, %rax
	movq	globals+1192, %rdi
	movq	%rax, -1888(%rbp)       # 8-byte Spill
	callq	SBYTES
	movq	-1888(%rbp), %rdi       # 8-byte Reload
	addq	%rax, %rdi
	imulq	$0, %rdi, %rax
	subq	$1, %rax
	movq	%rax, -1880(%rbp)       # 8-byte Spill
.LBB48_79:                              # %cond.end.590
	movq	-1880(%rbp), %rax       # 8-byte Reload
	movq	-224(%rbp), %rdi
	movq	%rax, -1896(%rbp)       # 8-byte Spill
	callq	SBYTES
	addq	$2, %rax
	movq	-1896(%rbp), %rdi       # 8-byte Reload
	subq	%rax, %rdi
	movq	globals+1192, %rax
	movq	%rdi, -1904(%rbp)       # 8-byte Spill
	movq	%rax, %rdi
	callq	SBYTES
	movq	-1904(%rbp), %rdi       # 8-byte Reload
	cmpq	%rax, %rdi
	jl	.LBB48_88
	jmp	.LBB48_85
.LBB48_80:                              # %cond.false.598
	movq	globals+1192, %rdi
	callq	SBYTES
	cmpq	$0, %rax
	jge	.LBB48_82
# BB#81:                                # %cond.true.602
	movq	-224(%rbp), %rdi
	callq	SBYTES
	addq	$2, %rax
	movq	globals+1192, %rdi
	movq	%rax, -1912(%rbp)       # 8-byte Spill
	callq	SBYTES
	movq	-224(%rbp), %rdi
	movq	%rax, -1920(%rbp)       # 8-byte Spill
	callq	SBYTES
	addq	$2, %rax
	movq	-1920(%rbp), %rdi       # 8-byte Reload
	addq	%rax, %rdi
	movq	-1912(%rbp), %rax       # 8-byte Reload
	cmpq	%rdi, %rax
	jle	.LBB48_88
	jmp	.LBB48_85
.LBB48_82:                              # %cond.false.611
	movq	-224(%rbp), %rdi
	callq	SBYTES
	addq	$2, %rax
	cmpq	$0, %rax
	jge	.LBB48_84
# BB#83:                                # %cond.true.616
	movq	globals+1192, %rdi
	callq	SBYTES
	movq	globals+1192, %rdi
	movq	%rax, -1928(%rbp)       # 8-byte Spill
	callq	SBYTES
	movq	-224(%rbp), %rdi
	movq	%rax, -1936(%rbp)       # 8-byte Spill
	callq	SBYTES
	addq	$2, %rax
	movq	-1936(%rbp), %rdi       # 8-byte Reload
	addq	%rax, %rdi
	movq	-1928(%rbp), %rax       # 8-byte Reload
	cmpq	%rdi, %rax
	jle	.LBB48_88
	jmp	.LBB48_85
.LBB48_84:                              # %cond.false.624
	movq	globals+1192, %rdi
	callq	SBYTES
	movq	-224(%rbp), %rdi
	movq	%rax, -1944(%rbp)       # 8-byte Spill
	callq	SBYTES
	addq	$2, %rax
	movq	-1944(%rbp), %rdi       # 8-byte Reload
	addq	%rax, %rdi
	movq	-224(%rbp), %rax
	movq	%rdi, -1952(%rbp)       # 8-byte Spill
	movq	%rax, %rdi
	callq	SBYTES
	addq	$2, %rax
	movq	-1952(%rbp), %rdi       # 8-byte Reload
	cmpq	%rax, %rdi
	jl	.LBB48_88
.LBB48_85:                              # %lor.lhs.false.633
	movq	globals+1192, %rdi
	callq	SBYTES
	movq	-224(%rbp), %rdi
	movq	%rax, -1960(%rbp)       # 8-byte Spill
	callq	SBYTES
	addq	$2, %rax
	movq	-1960(%rbp), %rdi       # 8-byte Reload
	addq	%rax, %rdi
	imulq	$0, %rdi, %rax
	subq	$1, %rax
	cmpq	$0, %rax
	jge	.LBB48_87
# BB#86:                                # %land.lhs.true.642
	movq	globals+1192, %rdi
	callq	SBYTES
	movq	-224(%rbp), %rdi
	movq	%rax, -1968(%rbp)       # 8-byte Spill
	callq	SBYTES
	addq	$2, %rax
	movq	-1968(%rbp), %rdi       # 8-byte Reload
	addq	%rax, %rdi
	cmpq	$-128, %rdi
	jl	.LBB48_88
.LBB48_87:                              # %lor.lhs.false.649
	movq	globals+1192, %rdi
	callq	SBYTES
	movq	-224(%rbp), %rdi
	movq	%rax, -1976(%rbp)       # 8-byte Spill
	callq	SBYTES
	movl	$127, %ecx
	movl	%ecx, %edi
	addq	$2, %rax
	movq	-1976(%rbp), %rdx       # 8-byte Reload
	addq	%rax, %rdx
	cmpq	%rdx, %rdi
	jge	.LBB48_92
.LBB48_88:                              # %cond.true.656
	movq	globals+1192, %rdi
	callq	SBYTES
	movb	%al, %cl
	movzbl	%cl, %edx
	movq	-224(%rbp), %rdi
	movl	%edx, -1980(%rbp)       # 4-byte Spill
	callq	SBYTES
	addq	$2, %rax
	movb	%al, %cl
	movzbl	%cl, %edx
	movl	-1980(%rbp), %esi       # 4-byte Reload
	addl	%edx, %esi
	cmpl	$127, %esi
	jg	.LBB48_90
# BB#89:                                # %cond.true.667
	movq	globals+1192, %rdi
	callq	SBYTES
	movb	%al, %cl
	movzbl	%cl, %edx
	movq	-224(%rbp), %rdi
	movl	%edx, -1984(%rbp)       # 4-byte Spill
	callq	SBYTES
	addq	$2, %rax
	movb	%al, %cl
	movzbl	%cl, %edx
	movl	-1984(%rbp), %esi       # 4-byte Reload
	addl	%edx, %esi
	movb	%sil, %cl
	movsbl	%cl, %edx
	movl	%edx, -1988(%rbp)       # 4-byte Spill
	jmp	.LBB48_91
.LBB48_90:                              # %cond.false.678
	movq	globals+1192, %rdi
	callq	SBYTES
	movb	%al, %cl
	movzbl	%cl, %edx
	movq	-224(%rbp), %rdi
	movl	%edx, -1992(%rbp)       # 4-byte Spill
	callq	SBYTES
	addq	$2, %rax
	movb	%al, %cl
	movzbl	%cl, %edx
	movl	-1992(%rbp), %esi       # 4-byte Reload
	addl	%edx, %esi
	subl	$-128, %esi
	movb	%sil, %cl
	movsbl	%cl, %edx
	addl	$-128, %edx
	movl	%edx, -1988(%rbp)       # 4-byte Spill
.LBB48_91:                              # %cond.end.691
	movl	-1988(%rbp), %eax       # 4-byte Reload
	movb	$1, %cl
	movslq	%eax, %rdx
	movq	%rdx, -232(%rbp)
	testb	$1, %cl
	jne	.LBB48_335
	jmp	.LBB48_336
.LBB48_92:                              # %cond.false.694
	movq	globals+1192, %rdi
	callq	SBYTES
	movb	%al, %cl
	movzbl	%cl, %edx
	movq	-224(%rbp), %rdi
	movl	%edx, -1996(%rbp)       # 4-byte Spill
	callq	SBYTES
	addq	$2, %rax
	movb	%al, %cl
	movzbl	%cl, %edx
	movl	-1996(%rbp), %esi       # 4-byte Reload
	addl	%edx, %esi
	cmpl	$127, %esi
	jg	.LBB48_94
# BB#93:                                # %cond.true.705
	movq	globals+1192, %rdi
	callq	SBYTES
	movb	%al, %cl
	movzbl	%cl, %edx
	movq	-224(%rbp), %rdi
	movl	%edx, -2000(%rbp)       # 4-byte Spill
	callq	SBYTES
	addq	$2, %rax
	movb	%al, %cl
	movzbl	%cl, %edx
	movl	-2000(%rbp), %esi       # 4-byte Reload
	addl	%edx, %esi
	movb	%sil, %cl
	movsbl	%cl, %edx
	movl	%edx, -2004(%rbp)       # 4-byte Spill
	jmp	.LBB48_95
.LBB48_94:                              # %cond.false.716
	movq	globals+1192, %rdi
	callq	SBYTES
	movb	%al, %cl
	movzbl	%cl, %edx
	movq	-224(%rbp), %rdi
	movl	%edx, -2008(%rbp)       # 4-byte Spill
	callq	SBYTES
	addq	$2, %rax
	movb	%al, %cl
	movzbl	%cl, %edx
	movl	-2008(%rbp), %esi       # 4-byte Reload
	addl	%edx, %esi
	subl	$-128, %esi
	movb	%sil, %cl
	movsbl	%cl, %edx
	addl	$-128, %edx
	movl	%edx, -2004(%rbp)       # 4-byte Spill
.LBB48_95:                              # %cond.end.729
	movl	-2004(%rbp), %eax       # 4-byte Reload
	xorl	%ecx, %ecx
	movb	%cl, %dl
	movslq	%eax, %rsi
	movq	%rsi, -232(%rbp)
	testb	$1, %dl
	jne	.LBB48_335
	jmp	.LBB48_336
.LBB48_96:                              # %cond.false.732
	xorl	%eax, %eax
	movb	%al, %cl
	testb	$1, %cl
	jne	.LBB48_97
	jmp	.LBB48_156
.LBB48_97:                              # %cond.true.733
	xorl	%eax, %eax
	movb	%al, %cl
	testb	$1, %cl
	jne	.LBB48_98
	jmp	.LBB48_127
.LBB48_98:                              # %cond.true.734
	movq	-224(%rbp), %rdi
	callq	SBYTES
	addq	$2, %rax
	movw	%ax, %cx
	movswl	%cx, %edx
	imull	$0, %edx, %edx
	movq	globals+1192, %rdi
	movl	%edx, -2012(%rbp)       # 4-byte Spill
	callq	SBYTES
	movw	%ax, %cx
	movswl	%cx, %edx
	movl	-2012(%rbp), %esi       # 4-byte Reload
	addl	%edx, %esi
	imull	$0, %esi, %edx
	subl	$1, %edx
	cmpl	$0, %edx
	jge	.LBB48_100
# BB#99:                                # %cond.true.748
	movq	-224(%rbp), %rdi
	callq	SBYTES
	addq	$2, %rax
	movw	%ax, %cx
	movswl	%cx, %edx
	imull	$0, %edx, %edx
	movq	globals+1192, %rdi
	movl	%edx, -2016(%rbp)       # 4-byte Spill
	callq	SBYTES
	xorl	%edx, %edx
	movw	%ax, %cx
	movswl	%cx, %esi
	movl	-2016(%rbp), %r8d       # 4-byte Reload
	addl	%esi, %r8d
	imull	$0, %r8d, %esi
	addl	$0, %esi
	xorl	$-1, %esi
	cmpl	$-1, %esi
	sete	%r9b
	andb	$1, %r9b
	movzbl	%r9b, %esi
	subl	%esi, %edx
	movq	-224(%rbp), %rdi
	movl	%edx, -2020(%rbp)       # 4-byte Spill
	callq	SBYTES
	addq	$2, %rax
	movw	%ax, %cx
	movswl	%cx, %edx
	imull	$0, %edx, %edx
	movq	globals+1192, %rdi
	movl	%edx, -2024(%rbp)       # 4-byte Spill
	callq	SBYTES
	movw	%ax, %cx
	movswl	%cx, %edx
	movl	-2024(%rbp), %esi       # 4-byte Reload
	addl	%edx, %esi
	imull	$0, %esi, %edx
	addl	$1, %edx
	shll	$30, %edx
	subl	$1, %edx
	shll	$1, %edx
	addl	$1, %edx
	movl	-2020(%rbp), %esi       # 4-byte Reload
	subl	%edx, %esi
	movl	%esi, -2028(%rbp)       # 4-byte Spill
	jmp	.LBB48_101
.LBB48_100:                             # %cond.false.780
	movq	-224(%rbp), %rdi
	callq	SBYTES
	addq	$2, %rax
	movw	%ax, %cx
	movswl	%cx, %edx
	imull	$0, %edx, %edx
	movq	globals+1192, %rdi
	movl	%edx, -2032(%rbp)       # 4-byte Spill
	callq	SBYTES
	movw	%ax, %cx
	movswl	%cx, %edx
	movl	-2032(%rbp), %esi       # 4-byte Reload
	addl	%edx, %esi
	imull	$0, %esi, %edx
	addl	$0, %edx
	movl	%edx, -2028(%rbp)       # 4-byte Spill
.LBB48_101:                             # %cond.end.792
	movl	-2028(%rbp), %eax       # 4-byte Reload
	cmpl	$0, %eax
	jge	.LBB48_111
# BB#102:                               # %cond.true.796
	movq	-224(%rbp), %rdi
	callq	SBYTES
	addq	$2, %rax
	movw	%ax, %cx
	movswl	%cx, %edx
	cmpl	$0, %edx
	jge	.LBB48_107
# BB#103:                               # %cond.true.803
	movq	globals+1192, %rdi
	callq	SBYTES
	movw	%ax, %cx
	movswl	%cx, %edx
	movq	-224(%rbp), %rdi
	movl	%edx, -2036(%rbp)       # 4-byte Spill
	callq	SBYTES
	addq	$2, %rax
	movw	%ax, %cx
	movswl	%cx, %edx
	imull	$0, %edx, %edx
	movq	globals+1192, %rdi
	movl	%edx, -2040(%rbp)       # 4-byte Spill
	callq	SBYTES
	movw	%ax, %cx
	movswl	%cx, %edx
	movl	-2040(%rbp), %esi       # 4-byte Reload
	addl	%edx, %esi
	imull	$0, %esi, %edx
	subl	$1, %edx
	cmpl	$0, %edx
	jge	.LBB48_105
# BB#104:                               # %cond.true.820
	movq	-224(%rbp), %rdi
	callq	SBYTES
	addq	$2, %rax
	movw	%ax, %cx
	movswl	%cx, %edx
	imull	$0, %edx, %edx
	movq	globals+1192, %rdi
	movl	%edx, -2044(%rbp)       # 4-byte Spill
	callq	SBYTES
	xorl	%edx, %edx
	movw	%ax, %cx
	movswl	%cx, %esi
	movl	-2044(%rbp), %r8d       # 4-byte Reload
	addl	%esi, %r8d
	imull	$0, %r8d, %esi
	addl	$0, %esi
	xorl	$-1, %esi
	cmpl	$-1, %esi
	sete	%r9b
	andb	$1, %r9b
	movzbl	%r9b, %esi
	subl	%esi, %edx
	movq	-224(%rbp), %rdi
	movl	%edx, -2048(%rbp)       # 4-byte Spill
	callq	SBYTES
	addq	$2, %rax
	movw	%ax, %cx
	movswl	%cx, %edx
	imull	$0, %edx, %edx
	movq	globals+1192, %rdi
	movl	%edx, -2052(%rbp)       # 4-byte Spill
	callq	SBYTES
	movw	%ax, %cx
	movswl	%cx, %edx
	movl	-2052(%rbp), %esi       # 4-byte Reload
	addl	%edx, %esi
	imull	$0, %esi, %edx
	addl	$1, %edx
	shll	$30, %edx
	subl	$1, %edx
	shll	$1, %edx
	addl	$1, %edx
	movl	-2048(%rbp), %esi       # 4-byte Reload
	subl	%edx, %esi
	movl	%esi, -2056(%rbp)       # 4-byte Spill
	jmp	.LBB48_106
.LBB48_105:                             # %cond.false.852
	movq	-224(%rbp), %rdi
	callq	SBYTES
	addq	$2, %rax
	movw	%ax, %cx
	movswl	%cx, %edx
	imull	$0, %edx, %edx
	movq	globals+1192, %rdi
	movl	%edx, -2060(%rbp)       # 4-byte Spill
	callq	SBYTES
	movw	%ax, %cx
	movswl	%cx, %edx
	movl	-2060(%rbp), %esi       # 4-byte Reload
	addl	%edx, %esi
	imull	$0, %esi, %edx
	addl	$0, %edx
	movl	%edx, -2056(%rbp)       # 4-byte Spill
.LBB48_106:                             # %cond.end.864
	movl	-2056(%rbp), %eax       # 4-byte Reload
	movq	-224(%rbp), %rdi
	movl	%eax, -2064(%rbp)       # 4-byte Spill
	callq	SBYTES
	addq	$2, %rax
	movw	%ax, %cx
	movswl	%cx, %edx
	movl	-2064(%rbp), %esi       # 4-byte Reload
	subl	%edx, %esi
	movl	-2036(%rbp), %edx       # 4-byte Reload
	cmpl	%esi, %edx
	jl	.LBB48_119
	jmp	.LBB48_116
.LBB48_107:                             # %cond.false.873
	movq	-224(%rbp), %rdi
	callq	SBYTES
	addq	$2, %rax
	movw	%ax, %cx
	movswl	%cx, %edx
	imull	$0, %edx, %edx
	movq	globals+1192, %rdi
	movl	%edx, -2068(%rbp)       # 4-byte Spill
	callq	SBYTES
	movw	%ax, %cx
	movswl	%cx, %edx
	movl	-2068(%rbp), %esi       # 4-byte Reload
	addl	%edx, %esi
	imull	$0, %esi, %edx
	subl	$1, %edx
	cmpl	$0, %edx
	jge	.LBB48_109
# BB#108:                               # %cond.true.887
	movq	-224(%rbp), %rdi
	callq	SBYTES
	addq	$2, %rax
	movw	%ax, %cx
	movswl	%cx, %edx
	imull	$0, %edx, %edx
	movq	globals+1192, %rdi
	movl	%edx, -2072(%rbp)       # 4-byte Spill
	callq	SBYTES
	movw	%ax, %cx
	movswl	%cx, %edx
	movl	-2072(%rbp), %esi       # 4-byte Reload
	addl	%edx, %esi
	imull	$0, %esi, %edx
	addl	$1, %edx
	shll	$30, %edx
	subl	$1, %edx
	shll	$1, %edx
	addl	$1, %edx
	movl	%edx, -2076(%rbp)       # 4-byte Spill
	jmp	.LBB48_110
.LBB48_109:                             # %cond.false.903
	movq	-224(%rbp), %rdi
	callq	SBYTES
	addq	$2, %rax
	movw	%ax, %cx
	movswl	%cx, %edx
	imull	$0, %edx, %edx
	movq	globals+1192, %rdi
	movl	%edx, -2080(%rbp)       # 4-byte Spill
	callq	SBYTES
	movw	%ax, %cx
	movswl	%cx, %edx
	movl	-2080(%rbp), %esi       # 4-byte Reload
	addl	%edx, %esi
	imull	$0, %esi, %edx
	subl	$1, %edx
	movl	%edx, -2076(%rbp)       # 4-byte Spill
.LBB48_110:                             # %cond.end.915
	movl	-2076(%rbp), %eax       # 4-byte Reload
	movq	-224(%rbp), %rdi
	movl	%eax, -2084(%rbp)       # 4-byte Spill
	callq	SBYTES
	addq	$2, %rax
	movw	%ax, %cx
	movswl	%cx, %edx
	movl	-2084(%rbp), %esi       # 4-byte Reload
	subl	%edx, %esi
	movq	globals+1192, %rdi
	movl	%esi, -2088(%rbp)       # 4-byte Spill
	callq	SBYTES
	movw	%ax, %cx
	movswl	%cx, %edx
	movl	-2088(%rbp), %esi       # 4-byte Reload
	cmpl	%edx, %esi
	jl	.LBB48_119
	jmp	.LBB48_116
.LBB48_111:                             # %cond.false.927
	movq	globals+1192, %rdi
	callq	SBYTES
	movw	%ax, %cx
	movswl	%cx, %edx
	cmpl	$0, %edx
	jge	.LBB48_113
# BB#112:                               # %cond.true.933
	movq	-224(%rbp), %rdi
	callq	SBYTES
	addq	$2, %rax
	movw	%ax, %cx
	movswl	%cx, %edx
	movq	globals+1192, %rdi
	movl	%edx, -2092(%rbp)       # 4-byte Spill
	callq	SBYTES
	movw	%ax, %cx
	movswl	%cx, %edx
	movq	-224(%rbp), %rdi
	movl	%edx, -2096(%rbp)       # 4-byte Spill
	callq	SBYTES
	addq	$2, %rax
	movw	%ax, %cx
	movswl	%cx, %edx
	movl	-2096(%rbp), %esi       # 4-byte Reload
	addl	%edx, %esi
	movl	-2092(%rbp), %edx       # 4-byte Reload
	cmpl	%esi, %edx
	jle	.LBB48_119
	jmp	.LBB48_116
.LBB48_113:                             # %cond.false.948
	movq	-224(%rbp), %rdi
	callq	SBYTES
	addq	$2, %rax
	movw	%ax, %cx
	movswl	%cx, %edx
	cmpl	$0, %edx
	jge	.LBB48_115
# BB#114:                               # %cond.true.955
	movq	globals+1192, %rdi
	callq	SBYTES
	movw	%ax, %cx
	movswl	%cx, %edx
	movq	globals+1192, %rdi
	movl	%edx, -2100(%rbp)       # 4-byte Spill
	callq	SBYTES
	movw	%ax, %cx
	movswl	%cx, %edx
	movq	-224(%rbp), %rdi
	movl	%edx, -2104(%rbp)       # 4-byte Spill
	callq	SBYTES
	addq	$2, %rax
	movw	%ax, %cx
	movswl	%cx, %edx
	movl	-2104(%rbp), %esi       # 4-byte Reload
	addl	%edx, %esi
	movl	-2100(%rbp), %edx       # 4-byte Reload
	cmpl	%esi, %edx
	jle	.LBB48_119
	jmp	.LBB48_116
.LBB48_115:                             # %cond.false.969
	movq	globals+1192, %rdi
	callq	SBYTES
	movw	%ax, %cx
	movswl	%cx, %edx
	movq	-224(%rbp), %rdi
	movl	%edx, -2108(%rbp)       # 4-byte Spill
	callq	SBYTES
	addq	$2, %rax
	movw	%ax, %cx
	movswl	%cx, %edx
	movl	-2108(%rbp), %esi       # 4-byte Reload
	addl	%edx, %esi
	movq	-224(%rbp), %rdi
	movl	%esi, -2112(%rbp)       # 4-byte Spill
	callq	SBYTES
	addq	$2, %rax
	movw	%ax, %cx
	movswl	%cx, %edx
	movl	-2112(%rbp), %esi       # 4-byte Reload
	cmpl	%edx, %esi
	jl	.LBB48_119
.LBB48_116:                             # %lor.lhs.false.984
	movq	globals+1192, %rdi
	callq	SBYTES
	movw	%ax, %cx
	movswl	%cx, %edx
	movq	-224(%rbp), %rdi
	movl	%edx, -2116(%rbp)       # 4-byte Spill
	callq	SBYTES
	addq	$2, %rax
	movw	%ax, %cx
	movswl	%cx, %edx
	movl	-2116(%rbp), %esi       # 4-byte Reload
	addl	%edx, %esi
	imull	$0, %esi, %edx
	subl	$1, %edx
	cmpl	$0, %edx
	jge	.LBB48_118
# BB#117:                               # %land.lhs.true.997
	movq	globals+1192, %rdi
	callq	SBYTES
	movw	%ax, %cx
	movswl	%cx, %edx
	movq	-224(%rbp), %rdi
	movl	%edx, -2120(%rbp)       # 4-byte Spill
	callq	SBYTES
	addq	$2, %rax
	movw	%ax, %cx
	movswl	%cx, %edx
	movl	-2120(%rbp), %esi       # 4-byte Reload
	addl	%edx, %esi
	cmpl	$-32768, %esi           # imm = 0xFFFFFFFFFFFF8000
	jl	.LBB48_119
.LBB48_118:                             # %lor.lhs.false.1008
	movq	globals+1192, %rdi
	callq	SBYTES
	movw	%ax, %cx
	movswl	%cx, %edx
	movq	-224(%rbp), %rdi
	movl	%edx, -2124(%rbp)       # 4-byte Spill
	callq	SBYTES
	movl	$32767, %edx            # imm = 0x7FFF
	addq	$2, %rax
	movw	%ax, %cx
	movswl	%cx, %esi
	movl	-2124(%rbp), %r8d       # 4-byte Reload
	addl	%esi, %r8d
	cmpl	%r8d, %edx
	jge	.LBB48_123
.LBB48_119:                             # %cond.true.1019
	movq	globals+1192, %rdi
	callq	SBYTES
	movw	%ax, %cx
	movzwl	%cx, %edx
	movq	-224(%rbp), %rdi
	movl	%edx, -2128(%rbp)       # 4-byte Spill
	callq	SBYTES
	addq	$2, %rax
	movw	%ax, %cx
	movzwl	%cx, %edx
	movl	-2128(%rbp), %esi       # 4-byte Reload
	addl	%edx, %esi
	cmpl	$32767, %esi            # imm = 0x7FFF
	jg	.LBB48_121
# BB#120:                               # %cond.true.1030
	movq	globals+1192, %rdi
	callq	SBYTES
	movw	%ax, %cx
	movzwl	%cx, %edx
	movq	-224(%rbp), %rdi
	movl	%edx, -2132(%rbp)       # 4-byte Spill
	callq	SBYTES
	addq	$2, %rax
	movw	%ax, %cx
	movzwl	%cx, %edx
	movl	-2132(%rbp), %esi       # 4-byte Reload
	addl	%edx, %esi
	movw	%si, %cx
	movswl	%cx, %edx
	movl	%edx, -2136(%rbp)       # 4-byte Spill
	jmp	.LBB48_122
.LBB48_121:                             # %cond.false.1041
	movq	globals+1192, %rdi
	callq	SBYTES
	movw	%ax, %cx
	movzwl	%cx, %edx
	movq	-224(%rbp), %rdi
	movl	%edx, -2140(%rbp)       # 4-byte Spill
	callq	SBYTES
	addq	$2, %rax
	movw	%ax, %cx
	movzwl	%cx, %edx
	movl	-2140(%rbp), %esi       # 4-byte Reload
	addl	%edx, %esi
	subl	$-32768, %esi           # imm = 0xFFFFFFFFFFFF8000
	movw	%si, %cx
	movswl	%cx, %edx
	addl	$-32768, %edx           # imm = 0xFFFFFFFFFFFF8000
	movl	%edx, -2136(%rbp)       # 4-byte Spill
.LBB48_122:                             # %cond.end.1054
	movl	-2136(%rbp), %eax       # 4-byte Reload
	movb	$1, %cl
	movslq	%eax, %rdx
	movq	%rdx, -232(%rbp)
	testb	$1, %cl
	jne	.LBB48_335
	jmp	.LBB48_336
.LBB48_123:                             # %cond.false.1057
	movq	globals+1192, %rdi
	callq	SBYTES
	movw	%ax, %cx
	movzwl	%cx, %edx
	movq	-224(%rbp), %rdi
	movl	%edx, -2144(%rbp)       # 4-byte Spill
	callq	SBYTES
	addq	$2, %rax
	movw	%ax, %cx
	movzwl	%cx, %edx
	movl	-2144(%rbp), %esi       # 4-byte Reload
	addl	%edx, %esi
	cmpl	$32767, %esi            # imm = 0x7FFF
	jg	.LBB48_125
# BB#124:                               # %cond.true.1068
	movq	globals+1192, %rdi
	callq	SBYTES
	movw	%ax, %cx
	movzwl	%cx, %edx
	movq	-224(%rbp), %rdi
	movl	%edx, -2148(%rbp)       # 4-byte Spill
	callq	SBYTES
	addq	$2, %rax
	movw	%ax, %cx
	movzwl	%cx, %edx
	movl	-2148(%rbp), %esi       # 4-byte Reload
	addl	%edx, %esi
	movw	%si, %cx
	movswl	%cx, %edx
	movl	%edx, -2152(%rbp)       # 4-byte Spill
	jmp	.LBB48_126
.LBB48_125:                             # %cond.false.1079
	movq	globals+1192, %rdi
	callq	SBYTES
	movw	%ax, %cx
	movzwl	%cx, %edx
	movq	-224(%rbp), %rdi
	movl	%edx, -2156(%rbp)       # 4-byte Spill
	callq	SBYTES
	addq	$2, %rax
	movw	%ax, %cx
	movzwl	%cx, %edx
	movl	-2156(%rbp), %esi       # 4-byte Reload
	addl	%edx, %esi
	subl	$-32768, %esi           # imm = 0xFFFFFFFFFFFF8000
	movw	%si, %cx
	movswl	%cx, %edx
	addl	$-32768, %edx           # imm = 0xFFFFFFFFFFFF8000
	movl	%edx, -2152(%rbp)       # 4-byte Spill
.LBB48_126:                             # %cond.end.1092
	movl	-2152(%rbp), %eax       # 4-byte Reload
	xorl	%ecx, %ecx
	movb	%cl, %dl
	movslq	%eax, %rsi
	movq	%rsi, -232(%rbp)
	testb	$1, %dl
	jne	.LBB48_335
	jmp	.LBB48_336
.LBB48_127:                             # %cond.false.1095
	movq	-224(%rbp), %rdi
	callq	SBYTES
	addq	$2, %rax
	imulq	$0, %rax, %rax
	movq	globals+1192, %rdi
	movq	%rax, -2168(%rbp)       # 8-byte Spill
	callq	SBYTES
	movq	-2168(%rbp), %rdi       # 8-byte Reload
	addq	%rax, %rdi
	imulq	$0, %rdi, %rax
	subq	$1, %rax
	cmpq	$0, %rax
	jge	.LBB48_129
# BB#128:                               # %cond.true.1105
	movq	-224(%rbp), %rdi
	callq	SBYTES
	addq	$2, %rax
	imulq	$0, %rax, %rax
	movq	globals+1192, %rdi
	movq	%rax, -2176(%rbp)       # 8-byte Spill
	callq	SBYTES
	xorl	%ecx, %ecx
	movq	-2176(%rbp), %rdi       # 8-byte Reload
	addq	%rax, %rdi
	imulq	$0, %rdi, %rax
	addq	$0, %rax
	xorq	$-1, %rax
	cmpq	$-1, %rax
	sete	%dl
	andb	$1, %dl
	movzbl	%dl, %esi
	subl	%esi, %ecx
	movslq	%ecx, %rax
	movq	-224(%rbp), %rdi
	movq	%rax, -2184(%rbp)       # 8-byte Spill
	callq	SBYTES
	addq	$2, %rax
	imulq	$0, %rax, %rax
	movq	globals+1192, %rdi
	movq	%rax, -2192(%rbp)       # 8-byte Spill
	callq	SBYTES
	movq	-2192(%rbp), %rdi       # 8-byte Reload
	addq	%rax, %rdi
	imulq	$0, %rdi, %rax
	addq	$1, %rax
	shlq	$62, %rax
	subq	$1, %rax
	shlq	$1, %rax
	addq	$1, %rax
	movq	-2184(%rbp), %rdi       # 8-byte Reload
	subq	%rax, %rdi
	movq	%rdi, -2200(%rbp)       # 8-byte Spill
	jmp	.LBB48_130
.LBB48_129:                             # %cond.false.1130
	movq	-224(%rbp), %rdi
	callq	SBYTES
	addq	$2, %rax
	imulq	$0, %rax, %rax
	movq	globals+1192, %rdi
	movq	%rax, -2208(%rbp)       # 8-byte Spill
	callq	SBYTES
	movq	-2208(%rbp), %rdi       # 8-byte Reload
	addq	%rax, %rdi
	imulq	$0, %rdi, %rax
	addq	$0, %rax
	movq	%rax, -2200(%rbp)       # 8-byte Spill
.LBB48_130:                             # %cond.end.1138
	movq	-2200(%rbp), %rax       # 8-byte Reload
	cmpq	$0, %rax
	jge	.LBB48_140
# BB#131:                               # %cond.true.1142
	movq	-224(%rbp), %rdi
	callq	SBYTES
	addq	$2, %rax
	cmpq	$0, %rax
	jge	.LBB48_136
# BB#132:                               # %cond.true.1147
	movq	globals+1192, %rdi
	callq	SBYTES
	movq	-224(%rbp), %rdi
	movq	%rax, -2216(%rbp)       # 8-byte Spill
	callq	SBYTES
	addq	$2, %rax
	imulq	$0, %rax, %rax
	movq	globals+1192, %rdi
	movq	%rax, -2224(%rbp)       # 8-byte Spill
	callq	SBYTES
	movq	-2224(%rbp), %rdi       # 8-byte Reload
	addq	%rax, %rdi
	imulq	$0, %rdi, %rax
	subq	$1, %rax
	cmpq	$0, %rax
	jge	.LBB48_134
# BB#133:                               # %cond.true.1158
	movq	-224(%rbp), %rdi
	callq	SBYTES
	addq	$2, %rax
	imulq	$0, %rax, %rax
	movq	globals+1192, %rdi
	movq	%rax, -2232(%rbp)       # 8-byte Spill
	callq	SBYTES
	xorl	%ecx, %ecx
	movq	-2232(%rbp), %rdi       # 8-byte Reload
	addq	%rax, %rdi
	imulq	$0, %rdi, %rax
	addq	$0, %rax
	xorq	$-1, %rax
	cmpq	$-1, %rax
	sete	%dl
	andb	$1, %dl
	movzbl	%dl, %esi
	subl	%esi, %ecx
	movslq	%ecx, %rax
	movq	-224(%rbp), %rdi
	movq	%rax, -2240(%rbp)       # 8-byte Spill
	callq	SBYTES
	addq	$2, %rax
	imulq	$0, %rax, %rax
	movq	globals+1192, %rdi
	movq	%rax, -2248(%rbp)       # 8-byte Spill
	callq	SBYTES
	movq	-2248(%rbp), %rdi       # 8-byte Reload
	addq	%rax, %rdi
	imulq	$0, %rdi, %rax
	addq	$1, %rax
	shlq	$62, %rax
	subq	$1, %rax
	shlq	$1, %rax
	addq	$1, %rax
	movq	-2240(%rbp), %rdi       # 8-byte Reload
	subq	%rax, %rdi
	movq	%rdi, -2256(%rbp)       # 8-byte Spill
	jmp	.LBB48_135
.LBB48_134:                             # %cond.false.1183
	movq	-224(%rbp), %rdi
	callq	SBYTES
	addq	$2, %rax
	imulq	$0, %rax, %rax
	movq	globals+1192, %rdi
	movq	%rax, -2264(%rbp)       # 8-byte Spill
	callq	SBYTES
	movq	-2264(%rbp), %rdi       # 8-byte Reload
	addq	%rax, %rdi
	imulq	$0, %rdi, %rax
	addq	$0, %rax
	movq	%rax, -2256(%rbp)       # 8-byte Spill
.LBB48_135:                             # %cond.end.1191
	movq	-2256(%rbp), %rax       # 8-byte Reload
	movq	-224(%rbp), %rdi
	movq	%rax, -2272(%rbp)       # 8-byte Spill
	callq	SBYTES
	addq	$2, %rax
	movq	-2272(%rbp), %rdi       # 8-byte Reload
	subq	%rax, %rdi
	movq	-2216(%rbp), %rax       # 8-byte Reload
	cmpq	%rdi, %rax
	jl	.LBB48_148
	jmp	.LBB48_145
.LBB48_136:                             # %cond.false.1198
	movq	-224(%rbp), %rdi
	callq	SBYTES
	addq	$2, %rax
	imulq	$0, %rax, %rax
	movq	globals+1192, %rdi
	movq	%rax, -2280(%rbp)       # 8-byte Spill
	callq	SBYTES
	movq	-2280(%rbp), %rdi       # 8-byte Reload
	addq	%rax, %rdi
	imulq	$0, %rdi, %rax
	subq	$1, %rax
	cmpq	$0, %rax
	jge	.LBB48_138
# BB#137:                               # %cond.true.1208
	movq	-224(%rbp), %rdi
	callq	SBYTES
	addq	$2, %rax
	imulq	$0, %rax, %rax
	movq	globals+1192, %rdi
	movq	%rax, -2288(%rbp)       # 8-byte Spill
	callq	SBYTES
	movq	-2288(%rbp), %rdi       # 8-byte Reload
	addq	%rax, %rdi
	imulq	$0, %rdi, %rax
	addq	$1, %rax
	shlq	$62, %rax
	subq	$1, %rax
	shlq	$1, %rax
	addq	$1, %rax
	movq	%rax, -2296(%rbp)       # 8-byte Spill
	jmp	.LBB48_139
.LBB48_138:                             # %cond.false.1220
	movq	-224(%rbp), %rdi
	callq	SBYTES
	addq	$2, %rax
	imulq	$0, %rax, %rax
	movq	globals+1192, %rdi
	movq	%rax, -2304(%rbp)       # 8-byte Spill
	callq	SBYTES
	movq	-2304(%rbp), %rdi       # 8-byte Reload
	addq	%rax, %rdi
	imulq	$0, %rdi, %rax
	subq	$1, %rax
	movq	%rax, -2296(%rbp)       # 8-byte Spill
.LBB48_139:                             # %cond.end.1228
	movq	-2296(%rbp), %rax       # 8-byte Reload
	movq	-224(%rbp), %rdi
	movq	%rax, -2312(%rbp)       # 8-byte Spill
	callq	SBYTES
	addq	$2, %rax
	movq	-2312(%rbp), %rdi       # 8-byte Reload
	subq	%rax, %rdi
	movq	globals+1192, %rax
	movq	%rdi, -2320(%rbp)       # 8-byte Spill
	movq	%rax, %rdi
	callq	SBYTES
	movq	-2320(%rbp), %rdi       # 8-byte Reload
	cmpq	%rax, %rdi
	jl	.LBB48_148
	jmp	.LBB48_145
.LBB48_140:                             # %cond.false.1236
	movq	globals+1192, %rdi
	callq	SBYTES
	cmpq	$0, %rax
	jge	.LBB48_142
# BB#141:                               # %cond.true.1240
	movq	-224(%rbp), %rdi
	callq	SBYTES
	addq	$2, %rax
	movq	globals+1192, %rdi
	movq	%rax, -2328(%rbp)       # 8-byte Spill
	callq	SBYTES
	movq	-224(%rbp), %rdi
	movq	%rax, -2336(%rbp)       # 8-byte Spill
	callq	SBYTES
	addq	$2, %rax
	movq	-2336(%rbp), %rdi       # 8-byte Reload
	addq	%rax, %rdi
	movq	-2328(%rbp), %rax       # 8-byte Reload
	cmpq	%rdi, %rax
	jle	.LBB48_148
	jmp	.LBB48_145
.LBB48_142:                             # %cond.false.1249
	movq	-224(%rbp), %rdi
	callq	SBYTES
	addq	$2, %rax
	cmpq	$0, %rax
	jge	.LBB48_144
# BB#143:                               # %cond.true.1254
	movq	globals+1192, %rdi
	callq	SBYTES
	movq	globals+1192, %rdi
	movq	%rax, -2344(%rbp)       # 8-byte Spill
	callq	SBYTES
	movq	-224(%rbp), %rdi
	movq	%rax, -2352(%rbp)       # 8-byte Spill
	callq	SBYTES
	addq	$2, %rax
	movq	-2352(%rbp), %rdi       # 8-byte Reload
	addq	%rax, %rdi
	movq	-2344(%rbp), %rax       # 8-byte Reload
	cmpq	%rdi, %rax
	jle	.LBB48_148
	jmp	.LBB48_145
.LBB48_144:                             # %cond.false.1262
	movq	globals+1192, %rdi
	callq	SBYTES
	movq	-224(%rbp), %rdi
	movq	%rax, -2360(%rbp)       # 8-byte Spill
	callq	SBYTES
	addq	$2, %rax
	movq	-2360(%rbp), %rdi       # 8-byte Reload
	addq	%rax, %rdi
	movq	-224(%rbp), %rax
	movq	%rdi, -2368(%rbp)       # 8-byte Spill
	movq	%rax, %rdi
	callq	SBYTES
	addq	$2, %rax
	movq	-2368(%rbp), %rdi       # 8-byte Reload
	cmpq	%rax, %rdi
	jl	.LBB48_148
.LBB48_145:                             # %lor.lhs.false.1271
	movq	globals+1192, %rdi
	callq	SBYTES
	movq	-224(%rbp), %rdi
	movq	%rax, -2376(%rbp)       # 8-byte Spill
	callq	SBYTES
	addq	$2, %rax
	movq	-2376(%rbp), %rdi       # 8-byte Reload
	addq	%rax, %rdi
	imulq	$0, %rdi, %rax
	subq	$1, %rax
	cmpq	$0, %rax
	jge	.LBB48_147
# BB#146:                               # %land.lhs.true.1280
	movq	globals+1192, %rdi
	callq	SBYTES
	movq	-224(%rbp), %rdi
	movq	%rax, -2384(%rbp)       # 8-byte Spill
	callq	SBYTES
	addq	$2, %rax
	movq	-2384(%rbp), %rdi       # 8-byte Reload
	addq	%rax, %rdi
	cmpq	$-32768, %rdi           # imm = 0xFFFFFFFFFFFF8000
	jl	.LBB48_148
.LBB48_147:                             # %lor.lhs.false.1287
	movq	globals+1192, %rdi
	callq	SBYTES
	movq	-224(%rbp), %rdi
	movq	%rax, -2392(%rbp)       # 8-byte Spill
	callq	SBYTES
	movl	$32767, %ecx            # imm = 0x7FFF
	movl	%ecx, %edi
	addq	$2, %rax
	movq	-2392(%rbp), %rdx       # 8-byte Reload
	addq	%rax, %rdx
	cmpq	%rdx, %rdi
	jge	.LBB48_152
.LBB48_148:                             # %cond.true.1294
	movq	globals+1192, %rdi
	callq	SBYTES
	movw	%ax, %cx
	movzwl	%cx, %edx
	movq	-224(%rbp), %rdi
	movl	%edx, -2396(%rbp)       # 4-byte Spill
	callq	SBYTES
	addq	$2, %rax
	movw	%ax, %cx
	movzwl	%cx, %edx
	movl	-2396(%rbp), %esi       # 4-byte Reload
	addl	%edx, %esi
	cmpl	$32767, %esi            # imm = 0x7FFF
	jg	.LBB48_150
# BB#149:                               # %cond.true.1305
	movq	globals+1192, %rdi
	callq	SBYTES
	movw	%ax, %cx
	movzwl	%cx, %edx
	movq	-224(%rbp), %rdi
	movl	%edx, -2400(%rbp)       # 4-byte Spill
	callq	SBYTES
	addq	$2, %rax
	movw	%ax, %cx
	movzwl	%cx, %edx
	movl	-2400(%rbp), %esi       # 4-byte Reload
	addl	%edx, %esi
	movw	%si, %cx
	movswl	%cx, %edx
	movl	%edx, -2404(%rbp)       # 4-byte Spill
	jmp	.LBB48_151
.LBB48_150:                             # %cond.false.1316
	movq	globals+1192, %rdi
	callq	SBYTES
	movw	%ax, %cx
	movzwl	%cx, %edx
	movq	-224(%rbp), %rdi
	movl	%edx, -2408(%rbp)       # 4-byte Spill
	callq	SBYTES
	addq	$2, %rax
	movw	%ax, %cx
	movzwl	%cx, %edx
	movl	-2408(%rbp), %esi       # 4-byte Reload
	addl	%edx, %esi
	subl	$-32768, %esi           # imm = 0xFFFFFFFFFFFF8000
	movw	%si, %cx
	movswl	%cx, %edx
	addl	$-32768, %edx           # imm = 0xFFFFFFFFFFFF8000
	movl	%edx, -2404(%rbp)       # 4-byte Spill
.LBB48_151:                             # %cond.end.1329
	movl	-2404(%rbp), %eax       # 4-byte Reload
	movb	$1, %cl
	movslq	%eax, %rdx
	movq	%rdx, -232(%rbp)
	testb	$1, %cl
	jne	.LBB48_335
	jmp	.LBB48_336
.LBB48_152:                             # %cond.false.1332
	movq	globals+1192, %rdi
	callq	SBYTES
	movw	%ax, %cx
	movzwl	%cx, %edx
	movq	-224(%rbp), %rdi
	movl	%edx, -2412(%rbp)       # 4-byte Spill
	callq	SBYTES
	addq	$2, %rax
	movw	%ax, %cx
	movzwl	%cx, %edx
	movl	-2412(%rbp), %esi       # 4-byte Reload
	addl	%edx, %esi
	cmpl	$32767, %esi            # imm = 0x7FFF
	jg	.LBB48_154
# BB#153:                               # %cond.true.1343
	movq	globals+1192, %rdi
	callq	SBYTES
	movw	%ax, %cx
	movzwl	%cx, %edx
	movq	-224(%rbp), %rdi
	movl	%edx, -2416(%rbp)       # 4-byte Spill
	callq	SBYTES
	addq	$2, %rax
	movw	%ax, %cx
	movzwl	%cx, %edx
	movl	-2416(%rbp), %esi       # 4-byte Reload
	addl	%edx, %esi
	movw	%si, %cx
	movswl	%cx, %edx
	movl	%edx, -2420(%rbp)       # 4-byte Spill
	jmp	.LBB48_155
.LBB48_154:                             # %cond.false.1354
	movq	globals+1192, %rdi
	callq	SBYTES
	movw	%ax, %cx
	movzwl	%cx, %edx
	movq	-224(%rbp), %rdi
	movl	%edx, -2424(%rbp)       # 4-byte Spill
	callq	SBYTES
	addq	$2, %rax
	movw	%ax, %cx
	movzwl	%cx, %edx
	movl	-2424(%rbp), %esi       # 4-byte Reload
	addl	%edx, %esi
	subl	$-32768, %esi           # imm = 0xFFFFFFFFFFFF8000
	movw	%si, %cx
	movswl	%cx, %edx
	addl	$-32768, %edx           # imm = 0xFFFFFFFFFFFF8000
	movl	%edx, -2420(%rbp)       # 4-byte Spill
.LBB48_155:                             # %cond.end.1367
	movl	-2420(%rbp), %eax       # 4-byte Reload
	xorl	%ecx, %ecx
	movb	%cl, %dl
	movslq	%eax, %rsi
	movq	%rsi, -232(%rbp)
	testb	$1, %dl
	jne	.LBB48_335
	jmp	.LBB48_336
.LBB48_156:                             # %cond.false.1370
	xorl	%eax, %eax
	movb	%al, %cl
	testb	$1, %cl
	jne	.LBB48_157
	jmp	.LBB48_216
.LBB48_157:                             # %cond.true.1371
	xorl	%eax, %eax
	movb	%al, %cl
	testb	$1, %cl
	jne	.LBB48_158
	jmp	.LBB48_187
.LBB48_158:                             # %cond.true.1372
	movq	-224(%rbp), %rdi
	callq	SBYTES
	addq	$2, %rax
	movl	%eax, %ecx
	imull	$0, %ecx, %ecx
	movq	globals+1192, %rdi
	movl	%ecx, -2428(%rbp)       # 4-byte Spill
	callq	SBYTES
	movl	%eax, %ecx
	movl	-2428(%rbp), %edx       # 4-byte Reload
	addl	%ecx, %edx
	imull	$0, %edx, %ecx
	subl	$1, %ecx
	cmpl	$0, %ecx
	jge	.LBB48_160
# BB#159:                               # %cond.true.1384
	movq	-224(%rbp), %rdi
	callq	SBYTES
	addq	$2, %rax
	movl	%eax, %ecx
	imull	$0, %ecx, %ecx
	movq	globals+1192, %rdi
	movl	%ecx, -2432(%rbp)       # 4-byte Spill
	callq	SBYTES
	xorl	%ecx, %ecx
	movl	%eax, %edx
	movl	-2432(%rbp), %esi       # 4-byte Reload
	addl	%edx, %esi
	imull	$0, %esi, %edx
	addl	$0, %edx
	xorl	$-1, %edx
	cmpl	$-1, %edx
	sete	%r8b
	andb	$1, %r8b
	movzbl	%r8b, %edx
	subl	%edx, %ecx
	movq	-224(%rbp), %rdi
	movl	%ecx, -2436(%rbp)       # 4-byte Spill
	callq	SBYTES
	addq	$2, %rax
	movl	%eax, %ecx
	imull	$0, %ecx, %ecx
	movq	globals+1192, %rdi
	movl	%ecx, -2440(%rbp)       # 4-byte Spill
	callq	SBYTES
	movl	%eax, %ecx
	movl	-2440(%rbp), %edx       # 4-byte Reload
	addl	%ecx, %edx
	imull	$0, %edx, %ecx
	addl	$1, %ecx
	shll	$30, %ecx
	subl	$1, %ecx
	shll	$1, %ecx
	addl	$1, %ecx
	movl	-2436(%rbp), %edx       # 4-byte Reload
	subl	%ecx, %edx
	movl	%edx, -2444(%rbp)       # 4-byte Spill
	jmp	.LBB48_161
.LBB48_160:                             # %cond.false.1412
	movq	-224(%rbp), %rdi
	callq	SBYTES
	addq	$2, %rax
	movl	%eax, %ecx
	imull	$0, %ecx, %ecx
	movq	globals+1192, %rdi
	movl	%ecx, -2448(%rbp)       # 4-byte Spill
	callq	SBYTES
	movl	%eax, %ecx
	movl	-2448(%rbp), %edx       # 4-byte Reload
	addl	%ecx, %edx
	imull	$0, %edx, %ecx
	addl	$0, %ecx
	movl	%ecx, -2444(%rbp)       # 4-byte Spill
.LBB48_161:                             # %cond.end.1422
	movl	-2444(%rbp), %eax       # 4-byte Reload
	cmpl	$0, %eax
	jge	.LBB48_171
# BB#162:                               # %cond.true.1426
	movq	-224(%rbp), %rdi
	callq	SBYTES
	addq	$2, %rax
	movl	%eax, %ecx
	cmpl	$0, %ecx
	jge	.LBB48_167
# BB#163:                               # %cond.true.1432
	movq	globals+1192, %rdi
	callq	SBYTES
	movl	%eax, %ecx
	movq	-224(%rbp), %rdi
	movl	%ecx, -2452(%rbp)       # 4-byte Spill
	callq	SBYTES
	addq	$2, %rax
	movl	%eax, %ecx
	imull	$0, %ecx, %ecx
	movq	globals+1192, %rdi
	movl	%ecx, -2456(%rbp)       # 4-byte Spill
	callq	SBYTES
	movl	%eax, %ecx
	movl	-2456(%rbp), %edx       # 4-byte Reload
	addl	%ecx, %edx
	imull	$0, %edx, %ecx
	subl	$1, %ecx
	cmpl	$0, %ecx
	jge	.LBB48_165
# BB#164:                               # %cond.true.1446
	movq	-224(%rbp), %rdi
	callq	SBYTES
	addq	$2, %rax
	movl	%eax, %ecx
	imull	$0, %ecx, %ecx
	movq	globals+1192, %rdi
	movl	%ecx, -2460(%rbp)       # 4-byte Spill
	callq	SBYTES
	xorl	%ecx, %ecx
	movl	%eax, %edx
	movl	-2460(%rbp), %esi       # 4-byte Reload
	addl	%edx, %esi
	imull	$0, %esi, %edx
	addl	$0, %edx
	xorl	$-1, %edx
	cmpl	$-1, %edx
	sete	%r8b
	andb	$1, %r8b
	movzbl	%r8b, %edx
	subl	%edx, %ecx
	movq	-224(%rbp), %rdi
	movl	%ecx, -2464(%rbp)       # 4-byte Spill
	callq	SBYTES
	addq	$2, %rax
	movl	%eax, %ecx
	imull	$0, %ecx, %ecx
	movq	globals+1192, %rdi
	movl	%ecx, -2468(%rbp)       # 4-byte Spill
	callq	SBYTES
	movl	%eax, %ecx
	movl	-2468(%rbp), %edx       # 4-byte Reload
	addl	%ecx, %edx
	imull	$0, %edx, %ecx
	addl	$1, %ecx
	shll	$30, %ecx
	subl	$1, %ecx
	shll	$1, %ecx
	addl	$1, %ecx
	movl	-2464(%rbp), %edx       # 4-byte Reload
	subl	%ecx, %edx
	movl	%edx, -2472(%rbp)       # 4-byte Spill
	jmp	.LBB48_166
.LBB48_165:                             # %cond.false.1474
	movq	-224(%rbp), %rdi
	callq	SBYTES
	addq	$2, %rax
	movl	%eax, %ecx
	imull	$0, %ecx, %ecx
	movq	globals+1192, %rdi
	movl	%ecx, -2476(%rbp)       # 4-byte Spill
	callq	SBYTES
	movl	%eax, %ecx
	movl	-2476(%rbp), %edx       # 4-byte Reload
	addl	%ecx, %edx
	imull	$0, %edx, %ecx
	addl	$0, %ecx
	movl	%ecx, -2472(%rbp)       # 4-byte Spill
.LBB48_166:                             # %cond.end.1484
	movl	-2472(%rbp), %eax       # 4-byte Reload
	movq	-224(%rbp), %rdi
	movl	%eax, -2480(%rbp)       # 4-byte Spill
	callq	SBYTES
	addq	$2, %rax
	movl	%eax, %ecx
	movl	-2480(%rbp), %edx       # 4-byte Reload
	subl	%ecx, %edx
	movl	-2452(%rbp), %ecx       # 4-byte Reload
	cmpl	%edx, %ecx
	jl	.LBB48_179
	jmp	.LBB48_176
.LBB48_167:                             # %cond.false.1492
	movq	-224(%rbp), %rdi
	callq	SBYTES
	addq	$2, %rax
	movl	%eax, %ecx
	imull	$0, %ecx, %ecx
	movq	globals+1192, %rdi
	movl	%ecx, -2484(%rbp)       # 4-byte Spill
	callq	SBYTES
	movl	%eax, %ecx
	movl	-2484(%rbp), %edx       # 4-byte Reload
	addl	%ecx, %edx
	imull	$0, %edx, %ecx
	subl	$1, %ecx
	cmpl	$0, %ecx
	jge	.LBB48_169
# BB#168:                               # %cond.true.1504
	movq	-224(%rbp), %rdi
	callq	SBYTES
	addq	$2, %rax
	movl	%eax, %ecx
	imull	$0, %ecx, %ecx
	movq	globals+1192, %rdi
	movl	%ecx, -2488(%rbp)       # 4-byte Spill
	callq	SBYTES
	movl	%eax, %ecx
	movl	-2488(%rbp), %edx       # 4-byte Reload
	addl	%ecx, %edx
	imull	$0, %edx, %ecx
	addl	$1, %ecx
	shll	$30, %ecx
	subl	$1, %ecx
	shll	$1, %ecx
	addl	$1, %ecx
	movl	%ecx, -2492(%rbp)       # 4-byte Spill
	jmp	.LBB48_170
.LBB48_169:                             # %cond.false.1518
	movq	-224(%rbp), %rdi
	callq	SBYTES
	addq	$2, %rax
	movl	%eax, %ecx
	imull	$0, %ecx, %ecx
	movq	globals+1192, %rdi
	movl	%ecx, -2496(%rbp)       # 4-byte Spill
	callq	SBYTES
	movl	%eax, %ecx
	movl	-2496(%rbp), %edx       # 4-byte Reload
	addl	%ecx, %edx
	imull	$0, %edx, %ecx
	subl	$1, %ecx
	movl	%ecx, -2492(%rbp)       # 4-byte Spill
.LBB48_170:                             # %cond.end.1528
	movl	-2492(%rbp), %eax       # 4-byte Reload
	movq	-224(%rbp), %rdi
	movl	%eax, -2500(%rbp)       # 4-byte Spill
	callq	SBYTES
	addq	$2, %rax
	movl	%eax, %ecx
	movl	-2500(%rbp), %edx       # 4-byte Reload
	subl	%ecx, %edx
	movq	globals+1192, %rdi
	movl	%edx, -2504(%rbp)       # 4-byte Spill
	callq	SBYTES
	movl	%eax, %ecx
	movl	-2504(%rbp), %edx       # 4-byte Reload
	cmpl	%ecx, %edx
	jl	.LBB48_179
	jmp	.LBB48_176
.LBB48_171:                             # %cond.false.1538
	movq	globals+1192, %rdi
	callq	SBYTES
	movl	%eax, %ecx
	cmpl	$0, %ecx
	jge	.LBB48_173
# BB#172:                               # %cond.true.1543
	movq	-224(%rbp), %rdi
	callq	SBYTES
	addq	$2, %rax
	movl	%eax, %ecx
	movq	globals+1192, %rdi
	movl	%ecx, -2508(%rbp)       # 4-byte Spill
	callq	SBYTES
	movl	%eax, %ecx
	movq	-224(%rbp), %rdi
	movl	%ecx, -2512(%rbp)       # 4-byte Spill
	callq	SBYTES
	addq	$2, %rax
	movl	%eax, %ecx
	movl	-2512(%rbp), %edx       # 4-byte Reload
	addl	%ecx, %edx
	movl	-2508(%rbp), %ecx       # 4-byte Reload
	cmpl	%edx, %ecx
	jle	.LBB48_179
	jmp	.LBB48_176
.LBB48_173:                             # %cond.false.1555
	movq	-224(%rbp), %rdi
	callq	SBYTES
	addq	$2, %rax
	movl	%eax, %ecx
	cmpl	$0, %ecx
	jge	.LBB48_175
# BB#174:                               # %cond.true.1561
	movq	globals+1192, %rdi
	callq	SBYTES
	movl	%eax, %ecx
	movq	globals+1192, %rdi
	movl	%ecx, -2516(%rbp)       # 4-byte Spill
	callq	SBYTES
	movl	%eax, %ecx
	movq	-224(%rbp), %rdi
	movl	%ecx, -2520(%rbp)       # 4-byte Spill
	callq	SBYTES
	addq	$2, %rax
	movl	%eax, %ecx
	movl	-2520(%rbp), %edx       # 4-byte Reload
	addl	%ecx, %edx
	movl	-2516(%rbp), %ecx       # 4-byte Reload
	cmpl	%edx, %ecx
	jle	.LBB48_179
	jmp	.LBB48_176
.LBB48_175:                             # %cond.false.1572
	movq	globals+1192, %rdi
	callq	SBYTES
	movl	%eax, %ecx
	movq	-224(%rbp), %rdi
	movl	%ecx, -2524(%rbp)       # 4-byte Spill
	callq	SBYTES
	addq	$2, %rax
	movl	%eax, %ecx
	movl	-2524(%rbp), %edx       # 4-byte Reload
	addl	%ecx, %edx
	movq	-224(%rbp), %rdi
	movl	%edx, -2528(%rbp)       # 4-byte Spill
	callq	SBYTES
	addq	$2, %rax
	movl	%eax, %ecx
	movl	-2528(%rbp), %edx       # 4-byte Reload
	cmpl	%ecx, %edx
	jl	.LBB48_179
.LBB48_176:                             # %lor.lhs.false.1584
	movq	globals+1192, %rdi
	callq	SBYTES
	movl	%eax, %ecx
	movq	-224(%rbp), %rdi
	movl	%ecx, -2532(%rbp)       # 4-byte Spill
	callq	SBYTES
	addq	$2, %rax
	movl	%eax, %ecx
	movl	-2532(%rbp), %edx       # 4-byte Reload
	addl	%ecx, %edx
	imull	$0, %edx, %ecx
	subl	$1, %ecx
	cmpl	$0, %ecx
	jge	.LBB48_178
# BB#177:                               # %land.lhs.true.1595
	movq	globals+1192, %rdi
	callq	SBYTES
	movl	%eax, %ecx
	movq	-224(%rbp), %rdi
	movl	%ecx, -2536(%rbp)       # 4-byte Spill
	callq	SBYTES
	addq	$2, %rax
	movl	%eax, %ecx
	movl	-2536(%rbp), %edx       # 4-byte Reload
	addl	%ecx, %edx
	cmpl	$-2147483648, %edx      # imm = 0xFFFFFFFF80000000
	jl	.LBB48_179
.LBB48_178:                             # %lor.lhs.false.1604
	movq	globals+1192, %rdi
	callq	SBYTES
	movl	%eax, %ecx
	movq	-224(%rbp), %rdi
	movl	%ecx, -2540(%rbp)       # 4-byte Spill
	callq	SBYTES
	movl	$2147483647, %ecx       # imm = 0x7FFFFFFF
	addq	$2, %rax
	movl	%eax, %edx
	movl	-2540(%rbp), %esi       # 4-byte Reload
	addl	%edx, %esi
	cmpl	%esi, %ecx
	jge	.LBB48_183
.LBB48_179:                             # %cond.true.1613
	movq	globals+1192, %rdi
	callq	SBYTES
	movl	%eax, %ecx
	movq	-224(%rbp), %rdi
	movl	%ecx, -2544(%rbp)       # 4-byte Spill
	callq	SBYTES
	addq	$2, %rax
	movl	%eax, %ecx
	movl	-2544(%rbp), %edx       # 4-byte Reload
	addl	%ecx, %edx
	cmpl	$2147483647, %edx       # imm = 0x7FFFFFFF
	ja	.LBB48_181
# BB#180:                               # %cond.true.1622
	movq	globals+1192, %rdi
	callq	SBYTES
	movl	%eax, %ecx
	movq	-224(%rbp), %rdi
	movl	%ecx, -2548(%rbp)       # 4-byte Spill
	callq	SBYTES
	addq	$2, %rax
	movl	%eax, %ecx
	movl	-2548(%rbp), %edx       # 4-byte Reload
	addl	%ecx, %edx
	movl	%edx, -2552(%rbp)       # 4-byte Spill
	jmp	.LBB48_182
.LBB48_181:                             # %cond.false.1629
	movq	globals+1192, %rdi
	callq	SBYTES
	movl	%eax, %ecx
	movq	-224(%rbp), %rdi
	movl	%ecx, -2556(%rbp)       # 4-byte Spill
	callq	SBYTES
	addq	$2, %rax
	movl	%eax, %ecx
	movl	-2556(%rbp), %edx       # 4-byte Reload
	addl	%ecx, %edx
	subl	$-2147483648, %edx      # imm = 0xFFFFFFFF80000000
	addl	$-2147483648, %edx      # imm = 0xFFFFFFFF80000000
	movl	%edx, -2552(%rbp)       # 4-byte Spill
.LBB48_182:                             # %cond.end.1638
	movl	-2552(%rbp), %eax       # 4-byte Reload
	movb	$1, %cl
	movslq	%eax, %rdx
	movq	%rdx, -232(%rbp)
	testb	$1, %cl
	jne	.LBB48_335
	jmp	.LBB48_336
.LBB48_183:                             # %cond.false.1641
	movq	globals+1192, %rdi
	callq	SBYTES
	movl	%eax, %ecx
	movq	-224(%rbp), %rdi
	movl	%ecx, -2560(%rbp)       # 4-byte Spill
	callq	SBYTES
	addq	$2, %rax
	movl	%eax, %ecx
	movl	-2560(%rbp), %edx       # 4-byte Reload
	addl	%ecx, %edx
	cmpl	$2147483647, %edx       # imm = 0x7FFFFFFF
	ja	.LBB48_185
# BB#184:                               # %cond.true.1650
	movq	globals+1192, %rdi
	callq	SBYTES
	movl	%eax, %ecx
	movq	-224(%rbp), %rdi
	movl	%ecx, -2564(%rbp)       # 4-byte Spill
	callq	SBYTES
	addq	$2, %rax
	movl	%eax, %ecx
	movl	-2564(%rbp), %edx       # 4-byte Reload
	addl	%ecx, %edx
	movl	%edx, -2568(%rbp)       # 4-byte Spill
	jmp	.LBB48_186
.LBB48_185:                             # %cond.false.1657
	movq	globals+1192, %rdi
	callq	SBYTES
	movl	%eax, %ecx
	movq	-224(%rbp), %rdi
	movl	%ecx, -2572(%rbp)       # 4-byte Spill
	callq	SBYTES
	addq	$2, %rax
	movl	%eax, %ecx
	movl	-2572(%rbp), %edx       # 4-byte Reload
	addl	%ecx, %edx
	subl	$-2147483648, %edx      # imm = 0xFFFFFFFF80000000
	addl	$-2147483648, %edx      # imm = 0xFFFFFFFF80000000
	movl	%edx, -2568(%rbp)       # 4-byte Spill
.LBB48_186:                             # %cond.end.1666
	movl	-2568(%rbp), %eax       # 4-byte Reload
	xorl	%ecx, %ecx
	movb	%cl, %dl
	movslq	%eax, %rsi
	movq	%rsi, -232(%rbp)
	testb	$1, %dl
	jne	.LBB48_335
	jmp	.LBB48_336
.LBB48_187:                             # %cond.false.1669
	movq	-224(%rbp), %rdi
	callq	SBYTES
	addq	$2, %rax
	imulq	$0, %rax, %rax
	movq	globals+1192, %rdi
	movq	%rax, -2584(%rbp)       # 8-byte Spill
	callq	SBYTES
	movq	-2584(%rbp), %rdi       # 8-byte Reload
	addq	%rax, %rdi
	imulq	$0, %rdi, %rax
	subq	$1, %rax
	cmpq	$0, %rax
	jge	.LBB48_189
# BB#188:                               # %cond.true.1679
	movq	-224(%rbp), %rdi
	callq	SBYTES
	addq	$2, %rax
	imulq	$0, %rax, %rax
	movq	globals+1192, %rdi
	movq	%rax, -2592(%rbp)       # 8-byte Spill
	callq	SBYTES
	xorl	%ecx, %ecx
	movq	-2592(%rbp), %rdi       # 8-byte Reload
	addq	%rax, %rdi
	imulq	$0, %rdi, %rax
	addq	$0, %rax
	xorq	$-1, %rax
	cmpq	$-1, %rax
	sete	%dl
	andb	$1, %dl
	movzbl	%dl, %esi
	subl	%esi, %ecx
	movslq	%ecx, %rax
	movq	-224(%rbp), %rdi
	movq	%rax, -2600(%rbp)       # 8-byte Spill
	callq	SBYTES
	addq	$2, %rax
	imulq	$0, %rax, %rax
	movq	globals+1192, %rdi
	movq	%rax, -2608(%rbp)       # 8-byte Spill
	callq	SBYTES
	movq	-2608(%rbp), %rdi       # 8-byte Reload
	addq	%rax, %rdi
	imulq	$0, %rdi, %rax
	addq	$1, %rax
	shlq	$62, %rax
	subq	$1, %rax
	shlq	$1, %rax
	addq	$1, %rax
	movq	-2600(%rbp), %rdi       # 8-byte Reload
	subq	%rax, %rdi
	movq	%rdi, -2616(%rbp)       # 8-byte Spill
	jmp	.LBB48_190
.LBB48_189:                             # %cond.false.1704
	movq	-224(%rbp), %rdi
	callq	SBYTES
	addq	$2, %rax
	imulq	$0, %rax, %rax
	movq	globals+1192, %rdi
	movq	%rax, -2624(%rbp)       # 8-byte Spill
	callq	SBYTES
	movq	-2624(%rbp), %rdi       # 8-byte Reload
	addq	%rax, %rdi
	imulq	$0, %rdi, %rax
	addq	$0, %rax
	movq	%rax, -2616(%rbp)       # 8-byte Spill
.LBB48_190:                             # %cond.end.1712
	movq	-2616(%rbp), %rax       # 8-byte Reload
	cmpq	$0, %rax
	jge	.LBB48_200
# BB#191:                               # %cond.true.1716
	movq	-224(%rbp), %rdi
	callq	SBYTES
	addq	$2, %rax
	cmpq	$0, %rax
	jge	.LBB48_196
# BB#192:                               # %cond.true.1721
	movq	globals+1192, %rdi
	callq	SBYTES
	movq	-224(%rbp), %rdi
	movq	%rax, -2632(%rbp)       # 8-byte Spill
	callq	SBYTES
	addq	$2, %rax
	imulq	$0, %rax, %rax
	movq	globals+1192, %rdi
	movq	%rax, -2640(%rbp)       # 8-byte Spill
	callq	SBYTES
	movq	-2640(%rbp), %rdi       # 8-byte Reload
	addq	%rax, %rdi
	imulq	$0, %rdi, %rax
	subq	$1, %rax
	cmpq	$0, %rax
	jge	.LBB48_194
# BB#193:                               # %cond.true.1732
	movq	-224(%rbp), %rdi
	callq	SBYTES
	addq	$2, %rax
	imulq	$0, %rax, %rax
	movq	globals+1192, %rdi
	movq	%rax, -2648(%rbp)       # 8-byte Spill
	callq	SBYTES
	xorl	%ecx, %ecx
	movq	-2648(%rbp), %rdi       # 8-byte Reload
	addq	%rax, %rdi
	imulq	$0, %rdi, %rax
	addq	$0, %rax
	xorq	$-1, %rax
	cmpq	$-1, %rax
	sete	%dl
	andb	$1, %dl
	movzbl	%dl, %esi
	subl	%esi, %ecx
	movslq	%ecx, %rax
	movq	-224(%rbp), %rdi
	movq	%rax, -2656(%rbp)       # 8-byte Spill
	callq	SBYTES
	addq	$2, %rax
	imulq	$0, %rax, %rax
	movq	globals+1192, %rdi
	movq	%rax, -2664(%rbp)       # 8-byte Spill
	callq	SBYTES
	movq	-2664(%rbp), %rdi       # 8-byte Reload
	addq	%rax, %rdi
	imulq	$0, %rdi, %rax
	addq	$1, %rax
	shlq	$62, %rax
	subq	$1, %rax
	shlq	$1, %rax
	addq	$1, %rax
	movq	-2656(%rbp), %rdi       # 8-byte Reload
	subq	%rax, %rdi
	movq	%rdi, -2672(%rbp)       # 8-byte Spill
	jmp	.LBB48_195
.LBB48_194:                             # %cond.false.1757
	movq	-224(%rbp), %rdi
	callq	SBYTES
	addq	$2, %rax
	imulq	$0, %rax, %rax
	movq	globals+1192, %rdi
	movq	%rax, -2680(%rbp)       # 8-byte Spill
	callq	SBYTES
	movq	-2680(%rbp), %rdi       # 8-byte Reload
	addq	%rax, %rdi
	imulq	$0, %rdi, %rax
	addq	$0, %rax
	movq	%rax, -2672(%rbp)       # 8-byte Spill
.LBB48_195:                             # %cond.end.1765
	movq	-2672(%rbp), %rax       # 8-byte Reload
	movq	-224(%rbp), %rdi
	movq	%rax, -2688(%rbp)       # 8-byte Spill
	callq	SBYTES
	addq	$2, %rax
	movq	-2688(%rbp), %rdi       # 8-byte Reload
	subq	%rax, %rdi
	movq	-2632(%rbp), %rax       # 8-byte Reload
	cmpq	%rdi, %rax
	jl	.LBB48_208
	jmp	.LBB48_205
.LBB48_196:                             # %cond.false.1772
	movq	-224(%rbp), %rdi
	callq	SBYTES
	addq	$2, %rax
	imulq	$0, %rax, %rax
	movq	globals+1192, %rdi
	movq	%rax, -2696(%rbp)       # 8-byte Spill
	callq	SBYTES
	movq	-2696(%rbp), %rdi       # 8-byte Reload
	addq	%rax, %rdi
	imulq	$0, %rdi, %rax
	subq	$1, %rax
	cmpq	$0, %rax
	jge	.LBB48_198
# BB#197:                               # %cond.true.1782
	movq	-224(%rbp), %rdi
	callq	SBYTES
	addq	$2, %rax
	imulq	$0, %rax, %rax
	movq	globals+1192, %rdi
	movq	%rax, -2704(%rbp)       # 8-byte Spill
	callq	SBYTES
	movq	-2704(%rbp), %rdi       # 8-byte Reload
	addq	%rax, %rdi
	imulq	$0, %rdi, %rax
	addq	$1, %rax
	shlq	$62, %rax
	subq	$1, %rax
	shlq	$1, %rax
	addq	$1, %rax
	movq	%rax, -2712(%rbp)       # 8-byte Spill
	jmp	.LBB48_199
.LBB48_198:                             # %cond.false.1794
	movq	-224(%rbp), %rdi
	callq	SBYTES
	addq	$2, %rax
	imulq	$0, %rax, %rax
	movq	globals+1192, %rdi
	movq	%rax, -2720(%rbp)       # 8-byte Spill
	callq	SBYTES
	movq	-2720(%rbp), %rdi       # 8-byte Reload
	addq	%rax, %rdi
	imulq	$0, %rdi, %rax
	subq	$1, %rax
	movq	%rax, -2712(%rbp)       # 8-byte Spill
.LBB48_199:                             # %cond.end.1802
	movq	-2712(%rbp), %rax       # 8-byte Reload
	movq	-224(%rbp), %rdi
	movq	%rax, -2728(%rbp)       # 8-byte Spill
	callq	SBYTES
	addq	$2, %rax
	movq	-2728(%rbp), %rdi       # 8-byte Reload
	subq	%rax, %rdi
	movq	globals+1192, %rax
	movq	%rdi, -2736(%rbp)       # 8-byte Spill
	movq	%rax, %rdi
	callq	SBYTES
	movq	-2736(%rbp), %rdi       # 8-byte Reload
	cmpq	%rax, %rdi
	jl	.LBB48_208
	jmp	.LBB48_205
.LBB48_200:                             # %cond.false.1810
	movq	globals+1192, %rdi
	callq	SBYTES
	cmpq	$0, %rax
	jge	.LBB48_202
# BB#201:                               # %cond.true.1814
	movq	-224(%rbp), %rdi
	callq	SBYTES
	addq	$2, %rax
	movq	globals+1192, %rdi
	movq	%rax, -2744(%rbp)       # 8-byte Spill
	callq	SBYTES
	movq	-224(%rbp), %rdi
	movq	%rax, -2752(%rbp)       # 8-byte Spill
	callq	SBYTES
	addq	$2, %rax
	movq	-2752(%rbp), %rdi       # 8-byte Reload
	addq	%rax, %rdi
	movq	-2744(%rbp), %rax       # 8-byte Reload
	cmpq	%rdi, %rax
	jle	.LBB48_208
	jmp	.LBB48_205
.LBB48_202:                             # %cond.false.1823
	movq	-224(%rbp), %rdi
	callq	SBYTES
	addq	$2, %rax
	cmpq	$0, %rax
	jge	.LBB48_204
# BB#203:                               # %cond.true.1828
	movq	globals+1192, %rdi
	callq	SBYTES
	movq	globals+1192, %rdi
	movq	%rax, -2760(%rbp)       # 8-byte Spill
	callq	SBYTES
	movq	-224(%rbp), %rdi
	movq	%rax, -2768(%rbp)       # 8-byte Spill
	callq	SBYTES
	addq	$2, %rax
	movq	-2768(%rbp), %rdi       # 8-byte Reload
	addq	%rax, %rdi
	movq	-2760(%rbp), %rax       # 8-byte Reload
	cmpq	%rdi, %rax
	jle	.LBB48_208
	jmp	.LBB48_205
.LBB48_204:                             # %cond.false.1836
	movq	globals+1192, %rdi
	callq	SBYTES
	movq	-224(%rbp), %rdi
	movq	%rax, -2776(%rbp)       # 8-byte Spill
	callq	SBYTES
	addq	$2, %rax
	movq	-2776(%rbp), %rdi       # 8-byte Reload
	addq	%rax, %rdi
	movq	-224(%rbp), %rax
	movq	%rdi, -2784(%rbp)       # 8-byte Spill
	movq	%rax, %rdi
	callq	SBYTES
	addq	$2, %rax
	movq	-2784(%rbp), %rdi       # 8-byte Reload
	cmpq	%rax, %rdi
	jl	.LBB48_208
.LBB48_205:                             # %lor.lhs.false.1845
	movq	globals+1192, %rdi
	callq	SBYTES
	movq	-224(%rbp), %rdi
	movq	%rax, -2792(%rbp)       # 8-byte Spill
	callq	SBYTES
	addq	$2, %rax
	movq	-2792(%rbp), %rdi       # 8-byte Reload
	addq	%rax, %rdi
	imulq	$0, %rdi, %rax
	subq	$1, %rax
	cmpq	$0, %rax
	jge	.LBB48_207
# BB#206:                               # %land.lhs.true.1854
	movq	globals+1192, %rdi
	callq	SBYTES
	movq	-224(%rbp), %rdi
	movq	%rax, -2800(%rbp)       # 8-byte Spill
	callq	SBYTES
	addq	$2, %rax
	movq	-2800(%rbp), %rdi       # 8-byte Reload
	addq	%rax, %rdi
	cmpq	$-2147483648, %rdi      # imm = 0xFFFFFFFF80000000
	jl	.LBB48_208
.LBB48_207:                             # %lor.lhs.false.1861
	movq	globals+1192, %rdi
	callq	SBYTES
	movq	-224(%rbp), %rdi
	movq	%rax, -2808(%rbp)       # 8-byte Spill
	callq	SBYTES
	movl	$2147483647, %ecx       # imm = 0x7FFFFFFF
	movl	%ecx, %edi
	addq	$2, %rax
	movq	-2808(%rbp), %rdx       # 8-byte Reload
	addq	%rax, %rdx
	cmpq	%rdx, %rdi
	jge	.LBB48_212
.LBB48_208:                             # %cond.true.1868
	movq	globals+1192, %rdi
	callq	SBYTES
	movl	%eax, %ecx
	movq	-224(%rbp), %rdi
	movl	%ecx, -2812(%rbp)       # 4-byte Spill
	callq	SBYTES
	addq	$2, %rax
	movl	%eax, %ecx
	movl	-2812(%rbp), %edx       # 4-byte Reload
	addl	%ecx, %edx
	cmpl	$2147483647, %edx       # imm = 0x7FFFFFFF
	ja	.LBB48_210
# BB#209:                               # %cond.true.1877
	movq	globals+1192, %rdi
	callq	SBYTES
	movl	%eax, %ecx
	movq	-224(%rbp), %rdi
	movl	%ecx, -2816(%rbp)       # 4-byte Spill
	callq	SBYTES
	addq	$2, %rax
	movl	%eax, %ecx
	movl	-2816(%rbp), %edx       # 4-byte Reload
	addl	%ecx, %edx
	movl	%edx, -2820(%rbp)       # 4-byte Spill
	jmp	.LBB48_211
.LBB48_210:                             # %cond.false.1884
	movq	globals+1192, %rdi
	callq	SBYTES
	movl	%eax, %ecx
	movq	-224(%rbp), %rdi
	movl	%ecx, -2824(%rbp)       # 4-byte Spill
	callq	SBYTES
	addq	$2, %rax
	movl	%eax, %ecx
	movl	-2824(%rbp), %edx       # 4-byte Reload
	addl	%ecx, %edx
	subl	$-2147483648, %edx      # imm = 0xFFFFFFFF80000000
	addl	$-2147483648, %edx      # imm = 0xFFFFFFFF80000000
	movl	%edx, -2820(%rbp)       # 4-byte Spill
.LBB48_211:                             # %cond.end.1893
	movl	-2820(%rbp), %eax       # 4-byte Reload
	movb	$1, %cl
	movslq	%eax, %rdx
	movq	%rdx, -232(%rbp)
	testb	$1, %cl
	jne	.LBB48_335
	jmp	.LBB48_336
.LBB48_212:                             # %cond.false.1896
	movq	globals+1192, %rdi
	callq	SBYTES
	movl	%eax, %ecx
	movq	-224(%rbp), %rdi
	movl	%ecx, -2828(%rbp)       # 4-byte Spill
	callq	SBYTES
	addq	$2, %rax
	movl	%eax, %ecx
	movl	-2828(%rbp), %edx       # 4-byte Reload
	addl	%ecx, %edx
	cmpl	$2147483647, %edx       # imm = 0x7FFFFFFF
	ja	.LBB48_214
# BB#213:                               # %cond.true.1905
	movq	globals+1192, %rdi
	callq	SBYTES
	movl	%eax, %ecx
	movq	-224(%rbp), %rdi
	movl	%ecx, -2832(%rbp)       # 4-byte Spill
	callq	SBYTES
	addq	$2, %rax
	movl	%eax, %ecx
	movl	-2832(%rbp), %edx       # 4-byte Reload
	addl	%ecx, %edx
	movl	%edx, -2836(%rbp)       # 4-byte Spill
	jmp	.LBB48_215
.LBB48_214:                             # %cond.false.1912
	movq	globals+1192, %rdi
	callq	SBYTES
	movl	%eax, %ecx
	movq	-224(%rbp), %rdi
	movl	%ecx, -2840(%rbp)       # 4-byte Spill
	callq	SBYTES
	addq	$2, %rax
	movl	%eax, %ecx
	movl	-2840(%rbp), %edx       # 4-byte Reload
	addl	%ecx, %edx
	subl	$-2147483648, %edx      # imm = 0xFFFFFFFF80000000
	addl	$-2147483648, %edx      # imm = 0xFFFFFFFF80000000
	movl	%edx, -2836(%rbp)       # 4-byte Spill
.LBB48_215:                             # %cond.end.1921
	movl	-2836(%rbp), %eax       # 4-byte Reload
	xorl	%ecx, %ecx
	movb	%cl, %dl
	movslq	%eax, %rsi
	movq	%rsi, -232(%rbp)
	testb	$1, %dl
	jne	.LBB48_335
	jmp	.LBB48_336
.LBB48_216:                             # %cond.false.1924
	movb	$1, %al
	testb	$1, %al
	jne	.LBB48_217
	jmp	.LBB48_276
.LBB48_217:                             # %cond.true.1925
	xorl	%eax, %eax
	movb	%al, %cl
	testb	$1, %cl
	jne	.LBB48_218
	jmp	.LBB48_247
.LBB48_218:                             # %cond.true.1926
	movq	-224(%rbp), %rdi
	callq	SBYTES
	addq	$2, %rax
	imulq	$0, %rax, %rax
	movq	globals+1192, %rdi
	movq	%rax, -2848(%rbp)       # 8-byte Spill
	callq	SBYTES
	movq	-2848(%rbp), %rdi       # 8-byte Reload
	addq	%rax, %rdi
	imulq	$0, %rdi, %rax
	subq	$1, %rax
	cmpq	$0, %rax
	jge	.LBB48_220
# BB#219:                               # %cond.true.1936
	movq	-224(%rbp), %rdi
	callq	SBYTES
	addq	$2, %rax
	imulq	$0, %rax, %rax
	movq	globals+1192, %rdi
	movq	%rax, -2856(%rbp)       # 8-byte Spill
	callq	SBYTES
	xorl	%ecx, %ecx
	movq	-2856(%rbp), %rdi       # 8-byte Reload
	addq	%rax, %rdi
	imulq	$0, %rdi, %rax
	addq	$0, %rax
	xorq	$-1, %rax
	cmpq	$-1, %rax
	sete	%dl
	andb	$1, %dl
	movzbl	%dl, %esi
	subl	%esi, %ecx
	movslq	%ecx, %rax
	movq	-224(%rbp), %rdi
	movq	%rax, -2864(%rbp)       # 8-byte Spill
	callq	SBYTES
	addq	$2, %rax
	imulq	$0, %rax, %rax
	movq	globals+1192, %rdi
	movq	%rax, -2872(%rbp)       # 8-byte Spill
	callq	SBYTES
	movq	-2872(%rbp), %rdi       # 8-byte Reload
	addq	%rax, %rdi
	imulq	$0, %rdi, %rax
	addq	$1, %rax
	shlq	$62, %rax
	subq	$1, %rax
	shlq	$1, %rax
	addq	$1, %rax
	movq	-2864(%rbp), %rdi       # 8-byte Reload
	subq	%rax, %rdi
	movq	%rdi, -2880(%rbp)       # 8-byte Spill
	jmp	.LBB48_221
.LBB48_220:                             # %cond.false.1961
	movq	-224(%rbp), %rdi
	callq	SBYTES
	addq	$2, %rax
	imulq	$0, %rax, %rax
	movq	globals+1192, %rdi
	movq	%rax, -2888(%rbp)       # 8-byte Spill
	callq	SBYTES
	movq	-2888(%rbp), %rdi       # 8-byte Reload
	addq	%rax, %rdi
	imulq	$0, %rdi, %rax
	addq	$0, %rax
	movq	%rax, -2880(%rbp)       # 8-byte Spill
.LBB48_221:                             # %cond.end.1969
	movq	-2880(%rbp), %rax       # 8-byte Reload
	cmpq	$0, %rax
	jge	.LBB48_231
# BB#222:                               # %cond.true.1973
	movq	-224(%rbp), %rdi
	callq	SBYTES
	addq	$2, %rax
	cmpq	$0, %rax
	jge	.LBB48_227
# BB#223:                               # %cond.true.1978
	movq	globals+1192, %rdi
	callq	SBYTES
	movq	-224(%rbp), %rdi
	movq	%rax, -2896(%rbp)       # 8-byte Spill
	callq	SBYTES
	addq	$2, %rax
	imulq	$0, %rax, %rax
	movq	globals+1192, %rdi
	movq	%rax, -2904(%rbp)       # 8-byte Spill
	callq	SBYTES
	movq	-2904(%rbp), %rdi       # 8-byte Reload
	addq	%rax, %rdi
	imulq	$0, %rdi, %rax
	subq	$1, %rax
	cmpq	$0, %rax
	jge	.LBB48_225
# BB#224:                               # %cond.true.1989
	movq	-224(%rbp), %rdi
	callq	SBYTES
	addq	$2, %rax
	imulq	$0, %rax, %rax
	movq	globals+1192, %rdi
	movq	%rax, -2912(%rbp)       # 8-byte Spill
	callq	SBYTES
	xorl	%ecx, %ecx
	movq	-2912(%rbp), %rdi       # 8-byte Reload
	addq	%rax, %rdi
	imulq	$0, %rdi, %rax
	addq	$0, %rax
	xorq	$-1, %rax
	cmpq	$-1, %rax
	sete	%dl
	andb	$1, %dl
	movzbl	%dl, %esi
	subl	%esi, %ecx
	movslq	%ecx, %rax
	movq	-224(%rbp), %rdi
	movq	%rax, -2920(%rbp)       # 8-byte Spill
	callq	SBYTES
	addq	$2, %rax
	imulq	$0, %rax, %rax
	movq	globals+1192, %rdi
	movq	%rax, -2928(%rbp)       # 8-byte Spill
	callq	SBYTES
	movq	-2928(%rbp), %rdi       # 8-byte Reload
	addq	%rax, %rdi
	imulq	$0, %rdi, %rax
	addq	$1, %rax
	shlq	$62, %rax
	subq	$1, %rax
	shlq	$1, %rax
	addq	$1, %rax
	movq	-2920(%rbp), %rdi       # 8-byte Reload
	subq	%rax, %rdi
	movq	%rdi, -2936(%rbp)       # 8-byte Spill
	jmp	.LBB48_226
.LBB48_225:                             # %cond.false.2014
	movq	-224(%rbp), %rdi
	callq	SBYTES
	addq	$2, %rax
	imulq	$0, %rax, %rax
	movq	globals+1192, %rdi
	movq	%rax, -2944(%rbp)       # 8-byte Spill
	callq	SBYTES
	movq	-2944(%rbp), %rdi       # 8-byte Reload
	addq	%rax, %rdi
	imulq	$0, %rdi, %rax
	addq	$0, %rax
	movq	%rax, -2936(%rbp)       # 8-byte Spill
.LBB48_226:                             # %cond.end.2022
	movq	-2936(%rbp), %rax       # 8-byte Reload
	movq	-224(%rbp), %rdi
	movq	%rax, -2952(%rbp)       # 8-byte Spill
	callq	SBYTES
	addq	$2, %rax
	movq	-2952(%rbp), %rdi       # 8-byte Reload
	subq	%rax, %rdi
	movq	-2896(%rbp), %rax       # 8-byte Reload
	cmpq	%rdi, %rax
	jl	.LBB48_239
	jmp	.LBB48_236
.LBB48_227:                             # %cond.false.2029
	movq	-224(%rbp), %rdi
	callq	SBYTES
	addq	$2, %rax
	imulq	$0, %rax, %rax
	movq	globals+1192, %rdi
	movq	%rax, -2960(%rbp)       # 8-byte Spill
	callq	SBYTES
	movq	-2960(%rbp), %rdi       # 8-byte Reload
	addq	%rax, %rdi
	imulq	$0, %rdi, %rax
	subq	$1, %rax
	cmpq	$0, %rax
	jge	.LBB48_229
# BB#228:                               # %cond.true.2039
	movq	-224(%rbp), %rdi
	callq	SBYTES
	addq	$2, %rax
	imulq	$0, %rax, %rax
	movq	globals+1192, %rdi
	movq	%rax, -2968(%rbp)       # 8-byte Spill
	callq	SBYTES
	movq	-2968(%rbp), %rdi       # 8-byte Reload
	addq	%rax, %rdi
	imulq	$0, %rdi, %rax
	addq	$1, %rax
	shlq	$62, %rax
	subq	$1, %rax
	shlq	$1, %rax
	addq	$1, %rax
	movq	%rax, -2976(%rbp)       # 8-byte Spill
	jmp	.LBB48_230
.LBB48_229:                             # %cond.false.2051
	movq	-224(%rbp), %rdi
	callq	SBYTES
	addq	$2, %rax
	imulq	$0, %rax, %rax
	movq	globals+1192, %rdi
	movq	%rax, -2984(%rbp)       # 8-byte Spill
	callq	SBYTES
	movq	-2984(%rbp), %rdi       # 8-byte Reload
	addq	%rax, %rdi
	imulq	$0, %rdi, %rax
	subq	$1, %rax
	movq	%rax, -2976(%rbp)       # 8-byte Spill
.LBB48_230:                             # %cond.end.2059
	movq	-2976(%rbp), %rax       # 8-byte Reload
	movq	-224(%rbp), %rdi
	movq	%rax, -2992(%rbp)       # 8-byte Spill
	callq	SBYTES
	addq	$2, %rax
	movq	-2992(%rbp), %rdi       # 8-byte Reload
	subq	%rax, %rdi
	movq	globals+1192, %rax
	movq	%rdi, -3000(%rbp)       # 8-byte Spill
	movq	%rax, %rdi
	callq	SBYTES
	movq	-3000(%rbp), %rdi       # 8-byte Reload
	cmpq	%rax, %rdi
	jl	.LBB48_239
	jmp	.LBB48_236
.LBB48_231:                             # %cond.false.2067
	movq	globals+1192, %rdi
	callq	SBYTES
	cmpq	$0, %rax
	jge	.LBB48_233
# BB#232:                               # %cond.true.2071
	movq	-224(%rbp), %rdi
	callq	SBYTES
	addq	$2, %rax
	movq	globals+1192, %rdi
	movq	%rax, -3008(%rbp)       # 8-byte Spill
	callq	SBYTES
	movq	-224(%rbp), %rdi
	movq	%rax, -3016(%rbp)       # 8-byte Spill
	callq	SBYTES
	addq	$2, %rax
	movq	-3016(%rbp), %rdi       # 8-byte Reload
	addq	%rax, %rdi
	movq	-3008(%rbp), %rax       # 8-byte Reload
	cmpq	%rdi, %rax
	jle	.LBB48_239
	jmp	.LBB48_236
.LBB48_233:                             # %cond.false.2080
	movq	-224(%rbp), %rdi
	callq	SBYTES
	addq	$2, %rax
	cmpq	$0, %rax
	jge	.LBB48_235
# BB#234:                               # %cond.true.2085
	movq	globals+1192, %rdi
	callq	SBYTES
	movq	globals+1192, %rdi
	movq	%rax, -3024(%rbp)       # 8-byte Spill
	callq	SBYTES
	movq	-224(%rbp), %rdi
	movq	%rax, -3032(%rbp)       # 8-byte Spill
	callq	SBYTES
	addq	$2, %rax
	movq	-3032(%rbp), %rdi       # 8-byte Reload
	addq	%rax, %rdi
	movq	-3024(%rbp), %rax       # 8-byte Reload
	cmpq	%rdi, %rax
	jle	.LBB48_239
	jmp	.LBB48_236
.LBB48_235:                             # %cond.false.2093
	movq	globals+1192, %rdi
	callq	SBYTES
	movq	-224(%rbp), %rdi
	movq	%rax, -3040(%rbp)       # 8-byte Spill
	callq	SBYTES
	addq	$2, %rax
	movq	-3040(%rbp), %rdi       # 8-byte Reload
	addq	%rax, %rdi
	movq	-224(%rbp), %rax
	movq	%rdi, -3048(%rbp)       # 8-byte Spill
	movq	%rax, %rdi
	callq	SBYTES
	addq	$2, %rax
	movq	-3048(%rbp), %rdi       # 8-byte Reload
	cmpq	%rax, %rdi
	jl	.LBB48_239
.LBB48_236:                             # %lor.lhs.false.2102
	movq	globals+1192, %rdi
	callq	SBYTES
	movq	-224(%rbp), %rdi
	movq	%rax, -3056(%rbp)       # 8-byte Spill
	callq	SBYTES
	addq	$2, %rax
	movq	-3056(%rbp), %rdi       # 8-byte Reload
	addq	%rax, %rdi
	imulq	$0, %rdi, %rax
	subq	$1, %rax
	cmpq	$0, %rax
	jge	.LBB48_238
# BB#237:                               # %land.lhs.true.2111
	movq	globals+1192, %rdi
	callq	SBYTES
	movq	-224(%rbp), %rdi
	movq	%rax, -3064(%rbp)       # 8-byte Spill
	callq	SBYTES
	movabsq	$-9223372036854775808, %rdi # imm = 0x8000000000000000
	addq	$2, %rax
	movq	-3064(%rbp), %rcx       # 8-byte Reload
	addq	%rax, %rcx
	cmpq	%rdi, %rcx
	jl	.LBB48_239
.LBB48_238:                             # %lor.lhs.false.2118
	movq	globals+1192, %rdi
	callq	SBYTES
	movq	-224(%rbp), %rdi
	movq	%rax, -3072(%rbp)       # 8-byte Spill
	callq	SBYTES
	movabsq	$9223372036854775807, %rdi # imm = 0x7FFFFFFFFFFFFFFF
	addq	$2, %rax
	movq	-3072(%rbp), %rcx       # 8-byte Reload
	addq	%rax, %rcx
	cmpq	%rcx, %rdi
	jge	.LBB48_243
.LBB48_239:                             # %cond.true.2125
	movq	globals+1192, %rdi
	callq	SBYTES
	movq	-224(%rbp), %rdi
	movq	%rax, -3080(%rbp)       # 8-byte Spill
	callq	SBYTES
	movabsq	$9223372036854775807, %rdi # imm = 0x7FFFFFFFFFFFFFFF
	addq	$2, %rax
	movq	-3080(%rbp), %rcx       # 8-byte Reload
	addq	%rax, %rcx
	cmpq	%rdi, %rcx
	ja	.LBB48_241
# BB#240:                               # %cond.true.2132
	movq	globals+1192, %rdi
	callq	SBYTES
	movq	-224(%rbp), %rdi
	movq	%rax, -3088(%rbp)       # 8-byte Spill
	callq	SBYTES
	addq	$2, %rax
	movq	-3088(%rbp), %rdi       # 8-byte Reload
	addq	%rax, %rdi
	movq	%rdi, -3096(%rbp)       # 8-byte Spill
	jmp	.LBB48_242
.LBB48_241:                             # %cond.false.2137
	movq	globals+1192, %rdi
	callq	SBYTES
	movq	-224(%rbp), %rdi
	movq	%rax, -3104(%rbp)       # 8-byte Spill
	callq	SBYTES
	addq	$2, %rax
	movq	-3104(%rbp), %rdi       # 8-byte Reload
	addq	%rax, %rdi
	movabsq	$-9223372036854775808, %rax # imm = 0x8000000000000000
	subq	%rax, %rdi
	movabsq	$-9223372036854775808, %rax # imm = 0x8000000000000000
	addq	%rax, %rdi
	movq	%rdi, -3096(%rbp)       # 8-byte Spill
.LBB48_242:                             # %cond.end.2144
	movq	-3096(%rbp), %rax       # 8-byte Reload
	movb	$1, %cl
	movq	%rax, -232(%rbp)
	testb	$1, %cl
	jne	.LBB48_335
	jmp	.LBB48_336
.LBB48_243:                             # %cond.false.2146
	movq	globals+1192, %rdi
	callq	SBYTES
	movq	-224(%rbp), %rdi
	movq	%rax, -3112(%rbp)       # 8-byte Spill
	callq	SBYTES
	movabsq	$9223372036854775807, %rdi # imm = 0x7FFFFFFFFFFFFFFF
	addq	$2, %rax
	movq	-3112(%rbp), %rcx       # 8-byte Reload
	addq	%rax, %rcx
	cmpq	%rdi, %rcx
	ja	.LBB48_245
# BB#244:                               # %cond.true.2153
	movq	globals+1192, %rdi
	callq	SBYTES
	movq	-224(%rbp), %rdi
	movq	%rax, -3120(%rbp)       # 8-byte Spill
	callq	SBYTES
	addq	$2, %rax
	movq	-3120(%rbp), %rdi       # 8-byte Reload
	addq	%rax, %rdi
	movq	%rdi, -3128(%rbp)       # 8-byte Spill
	jmp	.LBB48_246
.LBB48_245:                             # %cond.false.2158
	movq	globals+1192, %rdi
	callq	SBYTES
	movq	-224(%rbp), %rdi
	movq	%rax, -3136(%rbp)       # 8-byte Spill
	callq	SBYTES
	addq	$2, %rax
	movq	-3136(%rbp), %rdi       # 8-byte Reload
	addq	%rax, %rdi
	movabsq	$-9223372036854775808, %rax # imm = 0x8000000000000000
	subq	%rax, %rdi
	movabsq	$-9223372036854775808, %rax # imm = 0x8000000000000000
	addq	%rax, %rdi
	movq	%rdi, -3128(%rbp)       # 8-byte Spill
.LBB48_246:                             # %cond.end.2165
	movq	-3128(%rbp), %rax       # 8-byte Reload
	xorl	%ecx, %ecx
	movb	%cl, %dl
	movq	%rax, -232(%rbp)
	testb	$1, %dl
	jne	.LBB48_335
	jmp	.LBB48_336
.LBB48_247:                             # %cond.false.2167
	movq	-224(%rbp), %rdi
	callq	SBYTES
	addq	$2, %rax
	imulq	$0, %rax, %rax
	movq	globals+1192, %rdi
	movq	%rax, -3144(%rbp)       # 8-byte Spill
	callq	SBYTES
	movq	-3144(%rbp), %rdi       # 8-byte Reload
	addq	%rax, %rdi
	imulq	$0, %rdi, %rax
	subq	$1, %rax
	cmpq	$0, %rax
	jge	.LBB48_249
# BB#248:                               # %cond.true.2177
	movq	-224(%rbp), %rdi
	callq	SBYTES
	addq	$2, %rax
	imulq	$0, %rax, %rax
	movq	globals+1192, %rdi
	movq	%rax, -3152(%rbp)       # 8-byte Spill
	callq	SBYTES
	xorl	%ecx, %ecx
	movq	-3152(%rbp), %rdi       # 8-byte Reload
	addq	%rax, %rdi
	imulq	$0, %rdi, %rax
	addq	$0, %rax
	xorq	$-1, %rax
	cmpq	$-1, %rax
	sete	%dl
	andb	$1, %dl
	movzbl	%dl, %esi
	subl	%esi, %ecx
	movslq	%ecx, %rax
	movq	-224(%rbp), %rdi
	movq	%rax, -3160(%rbp)       # 8-byte Spill
	callq	SBYTES
	addq	$2, %rax
	imulq	$0, %rax, %rax
	movq	globals+1192, %rdi
	movq	%rax, -3168(%rbp)       # 8-byte Spill
	callq	SBYTES
	movq	-3168(%rbp), %rdi       # 8-byte Reload
	addq	%rax, %rdi
	imulq	$0, %rdi, %rax
	addq	$1, %rax
	shlq	$62, %rax
	subq	$1, %rax
	shlq	$1, %rax
	addq	$1, %rax
	movq	-3160(%rbp), %rdi       # 8-byte Reload
	subq	%rax, %rdi
	movq	%rdi, -3176(%rbp)       # 8-byte Spill
	jmp	.LBB48_250
.LBB48_249:                             # %cond.false.2202
	movq	-224(%rbp), %rdi
	callq	SBYTES
	addq	$2, %rax
	imulq	$0, %rax, %rax
	movq	globals+1192, %rdi
	movq	%rax, -3184(%rbp)       # 8-byte Spill
	callq	SBYTES
	movq	-3184(%rbp), %rdi       # 8-byte Reload
	addq	%rax, %rdi
	imulq	$0, %rdi, %rax
	addq	$0, %rax
	movq	%rax, -3176(%rbp)       # 8-byte Spill
.LBB48_250:                             # %cond.end.2210
	movq	-3176(%rbp), %rax       # 8-byte Reload
	cmpq	$0, %rax
	jge	.LBB48_260
# BB#251:                               # %cond.true.2214
	movq	-224(%rbp), %rdi
	callq	SBYTES
	addq	$2, %rax
	cmpq	$0, %rax
	jge	.LBB48_256
# BB#252:                               # %cond.true.2219
	movq	globals+1192, %rdi
	callq	SBYTES
	movq	-224(%rbp), %rdi
	movq	%rax, -3192(%rbp)       # 8-byte Spill
	callq	SBYTES
	addq	$2, %rax
	imulq	$0, %rax, %rax
	movq	globals+1192, %rdi
	movq	%rax, -3200(%rbp)       # 8-byte Spill
	callq	SBYTES
	movq	-3200(%rbp), %rdi       # 8-byte Reload
	addq	%rax, %rdi
	imulq	$0, %rdi, %rax
	subq	$1, %rax
	cmpq	$0, %rax
	jge	.LBB48_254
# BB#253:                               # %cond.true.2230
	movq	-224(%rbp), %rdi
	callq	SBYTES
	addq	$2, %rax
	imulq	$0, %rax, %rax
	movq	globals+1192, %rdi
	movq	%rax, -3208(%rbp)       # 8-byte Spill
	callq	SBYTES
	xorl	%ecx, %ecx
	movq	-3208(%rbp), %rdi       # 8-byte Reload
	addq	%rax, %rdi
	imulq	$0, %rdi, %rax
	addq	$0, %rax
	xorq	$-1, %rax
	cmpq	$-1, %rax
	sete	%dl
	andb	$1, %dl
	movzbl	%dl, %esi
	subl	%esi, %ecx
	movslq	%ecx, %rax
	movq	-224(%rbp), %rdi
	movq	%rax, -3216(%rbp)       # 8-byte Spill
	callq	SBYTES
	addq	$2, %rax
	imulq	$0, %rax, %rax
	movq	globals+1192, %rdi
	movq	%rax, -3224(%rbp)       # 8-byte Spill
	callq	SBYTES
	movq	-3224(%rbp), %rdi       # 8-byte Reload
	addq	%rax, %rdi
	imulq	$0, %rdi, %rax
	addq	$1, %rax
	shlq	$62, %rax
	subq	$1, %rax
	shlq	$1, %rax
	addq	$1, %rax
	movq	-3216(%rbp), %rdi       # 8-byte Reload
	subq	%rax, %rdi
	movq	%rdi, -3232(%rbp)       # 8-byte Spill
	jmp	.LBB48_255
.LBB48_254:                             # %cond.false.2255
	movq	-224(%rbp), %rdi
	callq	SBYTES
	addq	$2, %rax
	imulq	$0, %rax, %rax
	movq	globals+1192, %rdi
	movq	%rax, -3240(%rbp)       # 8-byte Spill
	callq	SBYTES
	movq	-3240(%rbp), %rdi       # 8-byte Reload
	addq	%rax, %rdi
	imulq	$0, %rdi, %rax
	addq	$0, %rax
	movq	%rax, -3232(%rbp)       # 8-byte Spill
.LBB48_255:                             # %cond.end.2263
	movq	-3232(%rbp), %rax       # 8-byte Reload
	movq	-224(%rbp), %rdi
	movq	%rax, -3248(%rbp)       # 8-byte Spill
	callq	SBYTES
	addq	$2, %rax
	movq	-3248(%rbp), %rdi       # 8-byte Reload
	subq	%rax, %rdi
	movq	-3192(%rbp), %rax       # 8-byte Reload
	cmpq	%rdi, %rax
	jl	.LBB48_268
	jmp	.LBB48_265
.LBB48_256:                             # %cond.false.2270
	movq	-224(%rbp), %rdi
	callq	SBYTES
	addq	$2, %rax
	imulq	$0, %rax, %rax
	movq	globals+1192, %rdi
	movq	%rax, -3256(%rbp)       # 8-byte Spill
	callq	SBYTES
	movq	-3256(%rbp), %rdi       # 8-byte Reload
	addq	%rax, %rdi
	imulq	$0, %rdi, %rax
	subq	$1, %rax
	cmpq	$0, %rax
	jge	.LBB48_258
# BB#257:                               # %cond.true.2280
	movq	-224(%rbp), %rdi
	callq	SBYTES
	addq	$2, %rax
	imulq	$0, %rax, %rax
	movq	globals+1192, %rdi
	movq	%rax, -3264(%rbp)       # 8-byte Spill
	callq	SBYTES
	movq	-3264(%rbp), %rdi       # 8-byte Reload
	addq	%rax, %rdi
	imulq	$0, %rdi, %rax
	addq	$1, %rax
	shlq	$62, %rax
	subq	$1, %rax
	shlq	$1, %rax
	addq	$1, %rax
	movq	%rax, -3272(%rbp)       # 8-byte Spill
	jmp	.LBB48_259
.LBB48_258:                             # %cond.false.2292
	movq	-224(%rbp), %rdi
	callq	SBYTES
	addq	$2, %rax
	imulq	$0, %rax, %rax
	movq	globals+1192, %rdi
	movq	%rax, -3280(%rbp)       # 8-byte Spill
	callq	SBYTES
	movq	-3280(%rbp), %rdi       # 8-byte Reload
	addq	%rax, %rdi
	imulq	$0, %rdi, %rax
	subq	$1, %rax
	movq	%rax, -3272(%rbp)       # 8-byte Spill
.LBB48_259:                             # %cond.end.2300
	movq	-3272(%rbp), %rax       # 8-byte Reload
	movq	-224(%rbp), %rdi
	movq	%rax, -3288(%rbp)       # 8-byte Spill
	callq	SBYTES
	addq	$2, %rax
	movq	-3288(%rbp), %rdi       # 8-byte Reload
	subq	%rax, %rdi
	movq	globals+1192, %rax
	movq	%rdi, -3296(%rbp)       # 8-byte Spill
	movq	%rax, %rdi
	callq	SBYTES
	movq	-3296(%rbp), %rdi       # 8-byte Reload
	cmpq	%rax, %rdi
	jl	.LBB48_268
	jmp	.LBB48_265
.LBB48_260:                             # %cond.false.2308
	movq	globals+1192, %rdi
	callq	SBYTES
	cmpq	$0, %rax
	jge	.LBB48_262
# BB#261:                               # %cond.true.2312
	movq	-224(%rbp), %rdi
	callq	SBYTES
	addq	$2, %rax
	movq	globals+1192, %rdi
	movq	%rax, -3304(%rbp)       # 8-byte Spill
	callq	SBYTES
	movq	-224(%rbp), %rdi
	movq	%rax, -3312(%rbp)       # 8-byte Spill
	callq	SBYTES
	addq	$2, %rax
	movq	-3312(%rbp), %rdi       # 8-byte Reload
	addq	%rax, %rdi
	movq	-3304(%rbp), %rax       # 8-byte Reload
	cmpq	%rdi, %rax
	jle	.LBB48_268
	jmp	.LBB48_265
.LBB48_262:                             # %cond.false.2321
	movq	-224(%rbp), %rdi
	callq	SBYTES
	addq	$2, %rax
	cmpq	$0, %rax
	jge	.LBB48_264
# BB#263:                               # %cond.true.2326
	movq	globals+1192, %rdi
	callq	SBYTES
	movq	globals+1192, %rdi
	movq	%rax, -3320(%rbp)       # 8-byte Spill
	callq	SBYTES
	movq	-224(%rbp), %rdi
	movq	%rax, -3328(%rbp)       # 8-byte Spill
	callq	SBYTES
	addq	$2, %rax
	movq	-3328(%rbp), %rdi       # 8-byte Reload
	addq	%rax, %rdi
	movq	-3320(%rbp), %rax       # 8-byte Reload
	cmpq	%rdi, %rax
	jle	.LBB48_268
	jmp	.LBB48_265
.LBB48_264:                             # %cond.false.2334
	movq	globals+1192, %rdi
	callq	SBYTES
	movq	-224(%rbp), %rdi
	movq	%rax, -3336(%rbp)       # 8-byte Spill
	callq	SBYTES
	addq	$2, %rax
	movq	-3336(%rbp), %rdi       # 8-byte Reload
	addq	%rax, %rdi
	movq	-224(%rbp), %rax
	movq	%rdi, -3344(%rbp)       # 8-byte Spill
	movq	%rax, %rdi
	callq	SBYTES
	addq	$2, %rax
	movq	-3344(%rbp), %rdi       # 8-byte Reload
	cmpq	%rax, %rdi
	jl	.LBB48_268
.LBB48_265:                             # %lor.lhs.false.2343
	movq	globals+1192, %rdi
	callq	SBYTES
	movq	-224(%rbp), %rdi
	movq	%rax, -3352(%rbp)       # 8-byte Spill
	callq	SBYTES
	addq	$2, %rax
	movq	-3352(%rbp), %rdi       # 8-byte Reload
	addq	%rax, %rdi
	imulq	$0, %rdi, %rax
	subq	$1, %rax
	cmpq	$0, %rax
	jge	.LBB48_267
# BB#266:                               # %land.lhs.true.2352
	movq	globals+1192, %rdi
	callq	SBYTES
	movq	-224(%rbp), %rdi
	movq	%rax, -3360(%rbp)       # 8-byte Spill
	callq	SBYTES
	movabsq	$-9223372036854775808, %rdi # imm = 0x8000000000000000
	addq	$2, %rax
	movq	-3360(%rbp), %rcx       # 8-byte Reload
	addq	%rax, %rcx
	cmpq	%rdi, %rcx
	jl	.LBB48_268
.LBB48_267:                             # %lor.lhs.false.2359
	movq	globals+1192, %rdi
	callq	SBYTES
	movq	-224(%rbp), %rdi
	movq	%rax, -3368(%rbp)       # 8-byte Spill
	callq	SBYTES
	movabsq	$9223372036854775807, %rdi # imm = 0x7FFFFFFFFFFFFFFF
	addq	$2, %rax
	movq	-3368(%rbp), %rcx       # 8-byte Reload
	addq	%rax, %rcx
	cmpq	%rcx, %rdi
	jge	.LBB48_272
.LBB48_268:                             # %cond.true.2366
	movq	globals+1192, %rdi
	callq	SBYTES
	movq	-224(%rbp), %rdi
	movq	%rax, -3376(%rbp)       # 8-byte Spill
	callq	SBYTES
	movabsq	$9223372036854775807, %rdi # imm = 0x7FFFFFFFFFFFFFFF
	addq	$2, %rax
	movq	-3376(%rbp), %rcx       # 8-byte Reload
	addq	%rax, %rcx
	cmpq	%rdi, %rcx
	ja	.LBB48_270
# BB#269:                               # %cond.true.2373
	movq	globals+1192, %rdi
	callq	SBYTES
	movq	-224(%rbp), %rdi
	movq	%rax, -3384(%rbp)       # 8-byte Spill
	callq	SBYTES
	addq	$2, %rax
	movq	-3384(%rbp), %rdi       # 8-byte Reload
	addq	%rax, %rdi
	movq	%rdi, -3392(%rbp)       # 8-byte Spill
	jmp	.LBB48_271
.LBB48_270:                             # %cond.false.2378
	movq	globals+1192, %rdi
	callq	SBYTES
	movq	-224(%rbp), %rdi
	movq	%rax, -3400(%rbp)       # 8-byte Spill
	callq	SBYTES
	addq	$2, %rax
	movq	-3400(%rbp), %rdi       # 8-byte Reload
	addq	%rax, %rdi
	movabsq	$-9223372036854775808, %rax # imm = 0x8000000000000000
	subq	%rax, %rdi
	movabsq	$-9223372036854775808, %rax # imm = 0x8000000000000000
	addq	%rax, %rdi
	movq	%rdi, -3392(%rbp)       # 8-byte Spill
.LBB48_271:                             # %cond.end.2385
	movq	-3392(%rbp), %rax       # 8-byte Reload
	movb	$1, %cl
	movq	%rax, -232(%rbp)
	testb	$1, %cl
	jne	.LBB48_335
	jmp	.LBB48_336
.LBB48_272:                             # %cond.false.2387
	movq	globals+1192, %rdi
	callq	SBYTES
	movq	-224(%rbp), %rdi
	movq	%rax, -3408(%rbp)       # 8-byte Spill
	callq	SBYTES
	movabsq	$9223372036854775807, %rdi # imm = 0x7FFFFFFFFFFFFFFF
	addq	$2, %rax
	movq	-3408(%rbp), %rcx       # 8-byte Reload
	addq	%rax, %rcx
	cmpq	%rdi, %rcx
	ja	.LBB48_274
# BB#273:                               # %cond.true.2394
	movq	globals+1192, %rdi
	callq	SBYTES
	movq	-224(%rbp), %rdi
	movq	%rax, -3416(%rbp)       # 8-byte Spill
	callq	SBYTES
	addq	$2, %rax
	movq	-3416(%rbp), %rdi       # 8-byte Reload
	addq	%rax, %rdi
	movq	%rdi, -3424(%rbp)       # 8-byte Spill
	jmp	.LBB48_275
.LBB48_274:                             # %cond.false.2399
	movq	globals+1192, %rdi
	callq	SBYTES
	movq	-224(%rbp), %rdi
	movq	%rax, -3432(%rbp)       # 8-byte Spill
	callq	SBYTES
	addq	$2, %rax
	movq	-3432(%rbp), %rdi       # 8-byte Reload
	addq	%rax, %rdi
	movabsq	$-9223372036854775808, %rax # imm = 0x8000000000000000
	subq	%rax, %rdi
	movabsq	$-9223372036854775808, %rax # imm = 0x8000000000000000
	addq	%rax, %rdi
	movq	%rdi, -3424(%rbp)       # 8-byte Spill
.LBB48_275:                             # %cond.end.2406
	movq	-3424(%rbp), %rax       # 8-byte Reload
	xorl	%ecx, %ecx
	movb	%cl, %dl
	movq	%rax, -232(%rbp)
	testb	$1, %dl
	jne	.LBB48_335
	jmp	.LBB48_336
.LBB48_276:                             # %cond.false.2408
	xorl	%eax, %eax
	movb	%al, %cl
	testb	$1, %cl
	jne	.LBB48_277
	jmp	.LBB48_306
.LBB48_277:                             # %cond.true.2409
	movq	-224(%rbp), %rdi
	callq	SBYTES
	addq	$2, %rax
	imulq	$0, %rax, %rax
	movq	globals+1192, %rdi
	movq	%rax, -3440(%rbp)       # 8-byte Spill
	callq	SBYTES
	movq	-3440(%rbp), %rdi       # 8-byte Reload
	addq	%rax, %rdi
	imulq	$0, %rdi, %rax
	subq	$1, %rax
	cmpq	$0, %rax
	jge	.LBB48_279
# BB#278:                               # %cond.true.2419
	movq	-224(%rbp), %rdi
	callq	SBYTES
	addq	$2, %rax
	imulq	$0, %rax, %rax
	movq	globals+1192, %rdi
	movq	%rax, -3448(%rbp)       # 8-byte Spill
	callq	SBYTES
	xorl	%ecx, %ecx
	movq	-3448(%rbp), %rdi       # 8-byte Reload
	addq	%rax, %rdi
	imulq	$0, %rdi, %rax
	addq	$0, %rax
	xorq	$-1, %rax
	cmpq	$-1, %rax
	sete	%dl
	andb	$1, %dl
	movzbl	%dl, %esi
	subl	%esi, %ecx
	movslq	%ecx, %rax
	movq	-224(%rbp), %rdi
	movq	%rax, -3456(%rbp)       # 8-byte Spill
	callq	SBYTES
	addq	$2, %rax
	imulq	$0, %rax, %rax
	movq	globals+1192, %rdi
	movq	%rax, -3464(%rbp)       # 8-byte Spill
	callq	SBYTES
	movq	-3464(%rbp), %rdi       # 8-byte Reload
	addq	%rax, %rdi
	imulq	$0, %rdi, %rax
	addq	$1, %rax
	shlq	$62, %rax
	subq	$1, %rax
	shlq	$1, %rax
	addq	$1, %rax
	movq	-3456(%rbp), %rdi       # 8-byte Reload
	subq	%rax, %rdi
	movq	%rdi, -3472(%rbp)       # 8-byte Spill
	jmp	.LBB48_280
.LBB48_279:                             # %cond.false.2444
	movq	-224(%rbp), %rdi
	callq	SBYTES
	addq	$2, %rax
	imulq	$0, %rax, %rax
	movq	globals+1192, %rdi
	movq	%rax, -3480(%rbp)       # 8-byte Spill
	callq	SBYTES
	movq	-3480(%rbp), %rdi       # 8-byte Reload
	addq	%rax, %rdi
	imulq	$0, %rdi, %rax
	addq	$0, %rax
	movq	%rax, -3472(%rbp)       # 8-byte Spill
.LBB48_280:                             # %cond.end.2452
	movq	-3472(%rbp), %rax       # 8-byte Reload
	cmpq	$0, %rax
	jge	.LBB48_290
# BB#281:                               # %cond.true.2456
	movq	-224(%rbp), %rdi
	callq	SBYTES
	addq	$2, %rax
	cmpq	$0, %rax
	jge	.LBB48_286
# BB#282:                               # %cond.true.2461
